

Microchip MPLAB XC8 Assembler V2.40 build 20220703182018 
                                                                                               Sat Feb 18 15:50:09 2023

Microchip MPLAB XC8 C Compiler v2.40 (Free license) build 20220703182018 Og1 
     1                           	processor	18F57Q43
     2                           	fnconf	rparam,??,?,0
     3                           	pagewidth 120
     4                           	opt	flic
     5                           	psect	smallconst,global,reloc=2,class=SMALLCONST,delta=1,noexec
     6                           	psect	nvCOMRAM,global,class=COMRAM,space=1,delta=1,lowdata,noexec
     7                           	psect	cinit,global,reloc=2,class=CODE,delta=1
     8                           	psect	bssCOMRAM,global,class=COMRAM,space=1,delta=1,lowdata,noexec
     9                           	psect	bssBANK5,global,class=BANK5,space=1,delta=1,lowdata,noexec
    10                           	psect	cstackCOMRAM,global,class=COMRAM,space=1,delta=1,lowdata,noexec
    11                           	psect	text0,global,reloc=2,class=CODE,delta=1
    12                           	psect	text1,global,reloc=2,class=CODE,delta=1
    13                           	psect	text2,global,reloc=2,class=CODE,delta=1
    14                           	psect	text3,global,reloc=2,class=CODE,delta=1
    15                           	psect	text4,global,reloc=2,class=CODE,delta=1
    16                           	psect	text5,global,reloc=2,class=CODE,delta=1
    17                           	psect	text6,global,reloc=2,class=CODE,delta=1
    18                           	psect	text7,global,reloc=2,class=CODE,delta=1
    19                           	psect	text8,global,reloc=2,class=CODE,delta=1
    20                           	psect	text9,global,reloc=2,class=CODE,delta=1
    21                           	psect	text10,global,reloc=2,class=CODE,delta=1
    22                           	psect	text11,global,reloc=2,class=CODE,delta=1
    23                           	psect	text12,global,reloc=2,class=CODE,delta=1
    24                           	psect	text13,global,reloc=2,class=CODE,delta=1
    25                           	psect	text14,global,reloc=2,class=CODE,delta=1
    26                           	psect	text15,global,reloc=2,class=CODE,delta=1
    27                           	psect	text16,global,reloc=2,class=CODE,delta=1
    28                           	psect	text17,global,reloc=2,class=CODE,delta=1,group=1
    29                           	psect	text18,global,reloc=2,class=CODE,delta=1
    30                           	psect	text19,global,reloc=2,class=CODE,delta=1
    31                           	psect	text20,global,reloc=2,class=CODE,delta=1
    32                           	psect	text21,global,reloc=2,class=CODE,delta=1
    33                           	psect	text22,global,reloc=2,class=CODE,delta=1
    34                           	psect	text23,global,reloc=2,class=CODE,delta=1
    35                           	psect	text24,global,reloc=2,class=CODE,delta=1
    36                           	psect	text25,global,reloc=2,class=CODE,delta=1
    37                           	psect	text26,global,reloc=2,class=CODE,delta=1
    38                           	psect	text27,global,reloc=2,class=CODE,delta=1
    39                           	psect	intsave_regs,global,class=BIGRAM,space=1,delta=1,noexec
    40                           	psect	rparam,global,class=COMRAM,space=1,delta=1,noexec
    41                           	psect	idloc,global,abs,ovrld,class=IDLOC,space=5,delta=1,noexec
    42                           	psect	config,global,abs,ovrld,class=CONFIG,space=4,delta=1,noexec
    43   000000                     
    44                           ; Version 2.40
    45                           ; Generated 08/12/2021 GMT
    46                           ; 
    47                           ; Copyright © 2021, Microchip Technology Inc. and its subsidiaries ("Microchip")
    48                           ; All rights reserved.
    49                           ; 
    50                           ; This software is developed by Microchip Technology Inc. and its subsidiaries ("Microch
      +                          ip").
    51                           ; 
    52                           ; Redistribution and use in source and binary forms, with or without modification, are
    53                           ; permitted provided that the following conditions are met:
    54                           ; 
    55                           ;     1. Redistributions of source code must retain the above copyright notice, this lis
      +                          t of
    56                           ;        conditions and the following disclaimer.
    57                           ; 
    58                           ;     2. Redistributions in binary form must reproduce the above copyright notice, this 
      +                          list
    59                           ;        of conditions and the following disclaimer in the documentation and/or other
    60                           ;        materials provided with the distribution. Publication is not required when
    61                           ;        this file is used in an embedded application.
    62                           ; 
    63                           ;     3. Microchip's name may not be used to endorse or promote products derived from th
      +                          is
    64                           ;        software without specific prior written permission.
    65                           ; 
    66                           ; THIS SOFTWARE IS PROVIDED BY MICROCHIP "AS IS" AND ANY EXPRESS OR IMPLIED WARRANTIES,
    67                           ; INCLUDING, BUT NOT LIMITED TO, THE IMPLIED WARRANTIES OF MERCHANTABILITY AND FITNESS F
      +                          OR
    68                           ; PURPOSE ARE DISCLAIMED.  IN NO EVENT SHALL MICROCHIP BE LIABLE FOR ANY DIRECT, INDIREC
      +                          T,
    69                           ; INCIDENTAL, SPECIAL, EXEMPLARY, OR CONSEQUENTIAL DAMAGES (INCLUDING BUT NOT LIMITED TO
    70                           ; PROCUREMENT OF SUBSTITUTE GOODS OR SERVICES; LOSS OF USE, DATA OR PROFITS; OR BUSINESS
    71                           ; INTERRUPTION) HOWSOEVER CAUSED AND ON ANY THEORY OF LIABILITY, WHETHER IN CONTRACT, ST
      +                          RICT
    72                           ; LIABILITY, OR TORT (INCLUDING NEGLIGENCE OR OTHERWISE) ARISING IN ANY WAY OUT OF THE U
      +                          SE OF
    73                           ; THIS SOFTWARE, EVEN IF ADVISED OF THE POSSIBILITY OF SUCH DAMAGE.
    74                           ; 
    75                           ; 
    76                           ; Code-generator required, PIC18F57Q43 Definitions
    77                           ; 
    78                           ; SFR Addresses
    79   000000                     
    80 ;; Function _UART1_DefaultFramingErrorHandler is unused but had its address taken
    81   000000                     
    82 ;; Function _UART1_DefaultOverrunErrorHandler is unused but had its address taken
    83   000000                     
    84 ;; Function _UART1_DefaultErrorHandler is unused but had its address taken
    85   000000                     
    86                           	psect	smallconst
    87   002600                     __psmallconst:
    88                           	callstack 0
    89   002600  00                 	db	0
    90   002601                     _spi1_configuration:
    91                           	callstack 0
    92   002601  02                 	db	2
    93   002602  40                 	db	64
    94   002603  00                 	db	0
    95   002604  32                 	db	50
    96   002605  00                 	db	0
    97   002606                     __end_of_spi1_configuration:
    98                           	callstack 0
    99   000000                     _ADERRL	set	989
   100   000000                     _ADERRH	set	990
   101   000000                     _ADPREVL	set	1000
   102   000000                     _ADPREVH	set	1001
   103   000000                     _ADFLTRL	set	993
   104   000000                     _ADFLTRH	set	994
   105   000000                     _ADACCL	set	995
   106   000000                     _ADACCH	set	996
   107   000000                     _ADCNT	set	998
   108   000000                     _ADRESL	set	1002
   109   000000                     _ADRESH	set	1003
   110   000000                     _ADCON0	set	1011
   111   000000                     _ADCON1	set	1012
   112   000000                     _ADPREH	set	1010
   113   000000                     _ADPREL	set	1009
   114   000000                     _ADCAP	set	1008
   115   000000                     _ADACQH	set	1007
   116   000000                     _ADPCH	set	1004
   117   000000                     _ADRPT	set	999
   118   000000                     _ADACCU	set	997
   119   000000                     _ADSTPTH	set	992
   120   000000                     _ADSTPTL	set	991
   121   000000                     _ADUTHH	set	988
   122   000000                     _ADUTHL	set	987
   123   000000                     _ADLTHH	set	986
   124   000000                     _TRISD	set	1225
   125   000000                     _TRISC	set	1224
   126   000000                     _TRISB	set	1223
   127   000000                     _LATC	set	1216
   128   000000                     _LATB	set	1215
   129   000000                     _OSCTUNE	set	176
   130   000000                     _OSCFRQ	set	177
   131   000000                     _OSCEN	set	179
   132   002606  00                 	db	0	; dummy byte at the end
   133   000000                     
   134                           	psect	nvCOMRAM
   135   00053E                     __pnvCOMRAM:
   136                           	callstack 0
   137   00053E                     _UART1_ErrorHandler:
   138                           	callstack 0
   139   00053E                     	ds	3
   140   000541                     _UART1_OverrunErrorHandler:
   141                           	callstack 0
   142   000541                     	ds	3
   143   000544                     _UART1_FramingErrorHandler:
   144                           	callstack 0
   145   000544                     	ds	3
   146   000000                     _SPI1CON0bits	set	132
   147   000000                     _U1ERRIRbits	set	690
   148   000000                     _U1CON0bits	set	683
   149   000000                     _ADCON1bits	set	1012
   150   000000                     _ADSTATbits	set	1015
   151   000000                     _ADCON2bits	set	1013
   152   000000                     _ADCON3bits	set	1014
   153   000000                     _ADCON0bits	set	1011
   154   000000                     _LATBbits	set	1215
   155   000000                     _LATDbits	set	1217
   156   000000                     _LATEbits	set	1218
   157   000000                     _LATCbits	set	1216
   158   000000                     _LATAbits	set	1214
   159   000000                     _TRISCbits	set	1224
   160   000000                     _PMD0	set	96
   161   000000                     _ACTCON	set	172
   162   000000                     _OSCCON1	set	173
   163   000000                     _OSCCON3	set	175
   164   000000                     _RC3PPS	set	532
   165   000000                     _SPI1SCKPPS	set	618
   166   000000                     _RC4I2C	set	646
   167   000000                     _RC3I2C	set	647
   168   000000                     _RB2I2C	set	648
   169   000000                     _RB1I2C	set	649
   170   000000                     _ANSELA	set	1024
   171   000000                     _ANSELB	set	1032
   172   000000                     _ANSELC	set	1040
   173   000000                     _ANSELD	set	1048
   174   000000                     _LATA	set	1214
   175   000000                     _LATD	set	1217
   176   000000                     _LATE	set	1218
   177   000000                     _PMD3	set	99
   178   000000                     _PMD1	set	97
   179   000000                     _SPI1RXB	set	128
   180   000000                     _SPI1TXB	set	129
   181   000000                     _SPI1TCNTL	set	130
   182   000000                     _SPI1CON0	set	132
   183   000000                     _PMD8	set	104
   184   000000                     _PMD7	set	103
   185   000000                     _PMD6	set	102
   186   000000                     _PMD5	set	101
   187   000000                     _PMD4	set	100
   188   000000                     _TRISA	set	1222
   189   000000                     _TRISE	set	1226
   190   000000                     _LATF	set	1219
   191   000000                     _PORTFbits	set	1235
   192   000000                     _TRISF	set	1227
   193   000000                     _INLVLD	set	1052
   194   000000                     _SLRCOND	set	1051
   195   000000                     _ODCOND	set	1050
   196   000000                     _WPUD	set	1049
   197   000000                     _ANSELE	set	1056
   198   000000                     _INLVLC	set	1044
   199   000000                     _SLRCONC	set	1043
   200   000000                     _ODCONC	set	1042
   201   000000                     _WPUC	set	1041
   202   000000                     _INLVLB	set	1036
   203   000000                     _SLRCONB	set	1035
   204   000000                     _ODCONB	set	1034
   205   000000                     _WPUB	set	1033
   206   000000                     _INLVLE	set	1060
   207   000000                     _SLRCONE	set	1059
   208   000000                     _ODCONE	set	1058
   209   000000                     _WPUE	set	1057
   210   000000                     _ANSELF	set	1064
   211   000000                     _PIR3bits	set	1201
   212   000000                     _PIR4bits	set	1202
   213   000000                     _INLVLF	set	1068
   214   000000                     _SLRCONF	set	1067
   215   000000                     _ODCONF	set	1066
   216   000000                     _WPUF	set	1065
   217   000000                     _INLVLA	set	1028
   218   000000                     _SLRCONA	set	1027
   219   000000                     _ODCONA	set	1026
   220   000000                     _WPUA	set	1025
   221   000000                     _U1RXB	set	673
   222   000000                     _U1P1L	set	677
   223   000000                     _SPI1SDIPPS	set	619
   224   000000                     _U1RXPPS	set	626
   225   000000                     _RC5PPS	set	534
   226   000000                     _RC6PPS	set	535
   227   000000                     _ADLTHL	set	985
   228   000000                     _U1ERRIE	set	691
   229   000000                     _U1ERRIR	set	690
   230   000000                     _U1UIR	set	689
   231   000000                     _U1FIFO	set	688
   232   000000                     _U1BRGH	set	687
   233   000000                     _U1BRGL	set	686
   234   000000                     _U1CON2	set	685
   235   000000                     _U1CON1	set	684
   236   000000                     _U1CON0	set	683
   237   000000                     _U1P3H	set	682
   238   000000                     _U1P3L	set	681
   239   000000                     _U1P2H	set	680
   240   000000                     _U1P2L	set	679
   241   000000                     _U1P1H	set	678
   242   000000                     _U1TXB	set	675
   243   000000                     _ADACQL	set	1006
   244   000000                     _ADCLK	set	1018
   245   000000                     _ADACT	set	1017
   246   000000                     _ADREF	set	1016
   247   000000                     _ADSTAT	set	1015
   248   000000                     _ADCON3	set	1014
   249   000000                     _ADCON2	set	1013
   250   000000                     _SPI1BAUD	set	137
   251   000000                     _SPI1CLK	set	140
   252   000000                     _SPI1CON2	set	134
   253   000000                     _SPI1CON1	set	133
   254                           
   255                           ; #config settings
   256                           
   257                           	psect	cinit
   258   0032DE                     __pcinit:
   259                           	callstack 0
   260   0032DE                     start_initialization:
   261                           	callstack 0
   262   0032DE                     __initialization:
   263                           	callstack 0
   264                           
   265                           ; Clear objects allocated to BANK5 (80 bytes)
   266   0032DE  EE01  F160         	lfsr	0,__pbssBANK5
   267   0032E2  0E50               	movlw	80
   268   0032E4                     clear_0:
   269   0032E4  6AEE               	clrf	postinc0,c
   270   0032E6  06E8               	decf	wreg,f,c
   271   0032E8  E1FD               	bnz	clear_0
   272                           
   273                           ; Clear objects allocated to COMRAM (6 bytes)
   274   0032EA  6A4C               	clrf	(__pbssCOMRAM+5)& (0+255),c
   275   0032EC  6A4B               	clrf	(__pbssCOMRAM+4)& (0+255),c
   276   0032EE  6A4A               	clrf	(__pbssCOMRAM+3)& (0+255),c
   277   0032F0  6A49               	clrf	(__pbssCOMRAM+2)& (0+255),c
   278   0032F2  6A48               	clrf	(__pbssCOMRAM+1)& (0+255),c
   279   0032F4  6A47               	clrf	__pbssCOMRAM& (0+255),c
   280   0032F6                     end_of_initialization:
   281                           	callstack 0
   282   0032F6                     __end_of__initialization:
   283                           	callstack 0
   284   0032F6  0100               	movlb	0
   285   0032F8  EF37  F014         	goto	_main	;jump to C main() function
   286                           
   287                           	psect	bssCOMRAM
   288   000547                     __pbssCOMRAM:
   289                           	callstack 0
   290   000547                     _DipSW:
   291                           	callstack 0
   292   000547                     	ds	2
   293   000549                     _RegPulseOutMode:
   294                           	callstack 0
   295   000549                     	ds	1
   296   00054A                     _RegPLSEnable:
   297                           	callstack 0
   298   00054A                     	ds	1
   299   00054B                     _RegTestLED:
   300                           	callstack 0
   301   00054B                     	ds	1
   302   00054C                     _uart1RxLastError:
   303                           	callstack 0
   304   00054C                     	ds	1
   305                           
   306                           	psect	bssBANK5
   307   000560                     __pbssBANK5:
   308                           	callstack 0
   309   000560                     _CurrentPatternData:
   310                           	callstack 0
   311   000560                     	ds	80
   312                           
   313                           	psect	cstackCOMRAM
   314   000501                     __pcstackCOMRAM:
   315                           	callstack 0
   316   000501                     ?_ADCC_GetConversionResult:
   317                           	callstack 0
   318   000501                     ?___wmul:
   319                           	callstack 0
   320   000501                     FPGA_SetData@d:
   321                           	callstack 0
   322   000501                     FPGA_SetCmd@Cmd:
   323                           	callstack 0
   324   000501                     FPGA_SetAddress@Address:
   325                           	callstack 0
   326   000501                     FPGA_CLK@d:
   327                           	callstack 0
   328   000501                     FPGA_CS@d:
   329                           	callstack 0
   330   000501                     FPGA_SetRW@d:
   331                           	callstack 0
   332   000501                     _FPGA_GetData$1031:
   333                           	callstack 0
   334   000501                     ___wmul@multiplier:
   335                           	callstack 0
   336   000501                     UART1_SetFramingErrorHandler@interruptHandler:
   337                           	callstack 0
   338   000501                     UART1_SetOverrunErrorHandler@interruptHandler:
   339                           	callstack 0
   340   000501                     UART1_SetErrorHandler@interruptHandler:
   341                           	callstack 0
   342                           
   343                           ; 3 bytes @ 0x0
   344   000501                     	ds	2
   345   000503                     ??_ADCC_GetConversionResult:
   346   000503                     _FPGA_GetData$1032:
   347                           	callstack 0
   348   000503                     FPGA_SetBuff@Cmd:
   349                           	callstack 0
   350   000503                     ___wmul@multiplicand:
   351                           	callstack 0
   352                           
   353                           ; 2 bytes @ 0x2
   354   000503                     	ds	1
   355   000504                     
   356                           ; 1 bytes @ 0x3
   357   000504                     	ds	1
   358   000505                     _FPGA_GetData$1033:
   359                           	callstack 0
   360   000505                     FPGA_SetBuff@Address:
   361                           	callstack 0
   362   000505                     GetADFromLight@Address:
   363                           	callstack 0
   364   000505                     ___wmul@product:
   365                           	callstack 0
   366                           
   367                           ; 2 bytes @ 0x4
   368   000505                     	ds	2
   369   000507                     GetADFromLight@SelEN:
   370                           	callstack 0
   371   000507                     _FPGA_GetData$1034:
   372                           	callstack 0
   373   000507                     FPGA_SetBuff@data:
   374                           	callstack 0
   375                           
   376                           ; 2 bytes @ 0x6
   377   000507                     	ds	1
   378   000508                     
   379                           ; 1 bytes @ 0x7
   380   000508                     	ds	1
   381   000509                     _FPGA_GetData$1035:
   382                           	callstack 0
   383   000509                     FPGA_SetBuff@DataLen:
   384                           	callstack 0
   385                           
   386                           ; 2 bytes @ 0x8
   387   000509                     	ds	2
   388   00050B                     ??_FPGA_SetBuff:
   389   00050B                     _FPGA_GetData$1036:
   390                           	callstack 0
   391                           
   392                           ; 2 bytes @ 0xA
   393   00050B                     	ds	1
   394   00050C                     FPGA_SetBuff@i:
   395                           	callstack 0
   396                           
   397                           ; 2 bytes @ 0xB
   398   00050C                     	ds	1
   399   00050D                     _FPGA_GetData$1037:
   400                           	callstack 0
   401                           
   402                           ; 2 bytes @ 0xC
   403   00050D                     	ds	1
   404   00050E                     FPGA_LightON@ONMode:
   405                           	callstack 0
   406   00050E                     FPGA_SetLightBaseCounter@n:
   407                           	callstack 0
   408   00050E                     FPGA_SetLightHighCounter@n:
   409                           	callstack 0
   410   00050E                     FPGA_SetLightMask@data:
   411                           	callstack 0
   412   00050E                     _FPGA_SetMode$1085:
   413                           	callstack 0
   414                           
   415                           ; 2 bytes @ 0xD
   416   00050E                     	ds	1
   417   00050F                     FPGA_GetData@d:
   418                           	callstack 0
   419   00050F                     _FPGA_LightON$1091:
   420                           	callstack 0
   421                           
   422                           ; 2 bytes @ 0xE
   423   00050F                     	ds	1
   424   000510                     ??_FPGA_SetLightBaseCounter:
   425   000510                     ??_FPGA_SetLightHighCounter:
   426   000510                     FPGA_GetBuff@Cmd:
   427                           	callstack 0
   428   000510                     _FPGA_SetLightMask$1069:
   429                           	callstack 0
   430   000510                     _FPGA_SetMode$1086:
   431                           	callstack 0
   432                           
   433                           ; 2 bytes @ 0xF
   434   000510                     	ds	1
   435   000511                     _FPGA_LightON$1092:
   436                           	callstack 0
   437                           
   438                           ; 2 bytes @ 0x10
   439   000511                     	ds	1
   440   000512                     FPGA_GetBuff@Address:
   441                           	callstack 0
   442   000512                     FPGA_SetLightBaseCounter@data:
   443                           	callstack 0
   444   000512                     FPGA_SetLightHighCounter@data:
   445                           	callstack 0
   446   000512                     _FPGA_SetLightMask$1070:
   447                           	callstack 0
   448   000512                     _FPGA_SetMode$1087:
   449                           	callstack 0
   450                           
   451                           ; 2 bytes @ 0x11
   452   000512                     	ds	1
   453   000513                     _FPGA_LightON$1093:
   454                           	callstack 0
   455                           
   456                           ; 2 bytes @ 0x12
   457   000513                     	ds	1
   458   000514                     FPGA_SetMode@data:
   459                           	callstack 0
   460   000514                     FPGA_GetBuff@data:
   461                           	callstack 0
   462   000514                     _FPGA_SetLightMask$1071:
   463                           	callstack 0
   464                           
   465                           ; 2 bytes @ 0x13
   466   000514                     	ds	1
   467   000515                     FPGA_LightON@data:
   468                           	callstack 0
   469                           
   470                           ; 1 bytes @ 0x14
   471   000515                     	ds	1
   472   000516                     FPGA_GetBuff@DataLen:
   473                           	callstack 0
   474   000516                     _FPGA_SetLightMask$1072:
   475                           	callstack 0
   476                           
   477                           ; 2 bytes @ 0x15
   478   000516                     	ds	2
   479   000518                     ??_FPGA_GetBuff:
   480   000518                     _FPGA_SetLightMask$1073:
   481                           	callstack 0
   482                           
   483                           ; 2 bytes @ 0x17
   484   000518                     	ds	1
   485   000519                     FPGA_GetBuff@i:
   486                           	callstack 0
   487                           
   488                           ; 2 bytes @ 0x18
   489   000519                     	ds	1
   490   00051A                     _FPGA_SetLightMask$1074:
   491                           	callstack 0
   492                           
   493                           ; 2 bytes @ 0x19
   494   00051A                     	ds	2
   495   00051C                     _FPGA_SetLightMask$1075:
   496                           	callstack 0
   497                           
   498                           ; 2 bytes @ 0x1B
   499   00051C                     	ds	2
   500   00051E                     _FPGA_SetLightMask$1076:
   501                           	callstack 0
   502                           
   503                           ; 2 bytes @ 0x1D
   504   00051E                     	ds	2
   505   000520                     _FPGA_SetLightMask$1077:
   506                           	callstack 0
   507                           
   508                           ; 2 bytes @ 0x1F
   509   000520                     	ds	2
   510   000522                     _FPGA_SetLightMask$1078:
   511                           	callstack 0
   512                           
   513                           ; 2 bytes @ 0x21
   514   000522                     	ds	2
   515   000524                     _FPGA_SetLightMask$1079:
   516                           	callstack 0
   517                           
   518                           ; 2 bytes @ 0x23
   519   000524                     	ds	2
   520   000526                     _FPGA_SetLightMask$1080:
   521                           	callstack 0
   522                           
   523                           ; 2 bytes @ 0x25
   524   000526                     	ds	2
   525   000528                     _FPGA_SetLightMask$1081:
   526                           	callstack 0
   527                           
   528                           ; 2 bytes @ 0x27
   529   000528                     	ds	2
   530   00052A                     _FPGA_SetLightMask$1082:
   531                           	callstack 0
   532                           
   533                           ; 2 bytes @ 0x29
   534   00052A                     	ds	2
   535   00052C                     main@Buff:
   536                           	callstack 0
   537                           
   538                           ; 16 bytes @ 0x2B
   539   00052C                     	ds	16
   540   00053C                     main@i:
   541                           	callstack 0
   542                           
   543                           ; 2 bytes @ 0x3B
   544   00053C                     	ds	2
   545                           
   546 ;;
   547 ;;Main: autosize = 0, tempsize = 0, incstack = 0, save=0
   548 ;;
   549 ;; *************** function _main *****************
   550 ;; Defined at:
   551 ;;		line 298 in file "main.c"
   552 ;; Parameters:    Size  Location     Type
   553 ;;		None
   554 ;; Auto vars:     Size  Location     Type
   555 ;;  Buff           16   43[COMRAM] unsigned char [16]
   556 ;;  i               2   59[COMRAM] int 
   557 ;;  DataLen         2    0        int 
   558 ;;  DCmd            1    0        unsigned char 
   559 ;;  Cmd             1    0        unsigned char 
   560 ;; Return value:  Size  Location     Type
   561 ;;                  1    wreg      void 
   562 ;; Registers used:
   563 ;;		wreg, fsr2l, fsr2h, status,2, status,0, prodl, prodh, cstack
   564 ;; Tracked objects:
   565 ;;		On entry : 0/0
   566 ;;		On exit  : 0/0
   567 ;;		Unchanged: 0/0
   568 ;; Data sizes:     COMRAM   BANK5   BANK6   BANK7   BANK8   BANK9  BANK10  BANK11  BANK12  BANK13  BANK14  BANK15  BANK1
      +6  BANK17  BANK18  BANK19  BANK20  BANK21  BANK22  BANK23  BANK24  BANK25  BANK26  BANK27  BANK28  BANK29  BANK30  BANK3
      +1  BANK32  BANK33  BANK34  BANK35  BANK36
   569 ;;      Params:         0       0       0       0       0       0       0       0       0       0       0       0       
      +0       0       0       0       0       0       0       0       0       0       0       0       0       0       0       
      +0       0       0       0       0       0
   570 ;;      Locals:        18       0       0       0       0       0       0       0       0       0       0       0       
      +0       0       0       0       0       0       0       0       0       0       0       0       0       0       0       
      +0       0       0       0       0       0
   571 ;;      Temps:          0       0       0       0       0       0       0       0       0       0       0       0       
      +0       0       0       0       0       0       0       0       0       0       0       0       0       0       0       
      +0       0       0       0       0       0
   572 ;;      Totals:        18       0       0       0       0       0       0       0       0       0       0       0       
      +0       0       0       0       0       0       0       0       0       0       0       0       0       0       0       
      +0       0       0       0       0       0
   573 ;;Total ram usage:       18 bytes
   574 ;; Hardware stack levels required when called: 3
   575 ;; This function calls:
   576 ;;		_FPGA_CS
   577 ;;		_FPGA_GetBuff
   578 ;;		_FPGA_LightON
   579 ;;		_FPGA_SetBuff
   580 ;;		_FPGA_SetLightBaseCounter
   581 ;;		_FPGA_SetLightHighCounter
   582 ;;		_FPGA_SetLightMask
   583 ;;		_FPGA_SetMode
   584 ;;		_FPGA_SetRW
   585 ;;		_GetADFromLight
   586 ;;		_SYSTEM_Initialize
   587 ;;		___wmul
   588 ;; This function is called by:
   589 ;;		Startup code after reset
   590 ;; This function uses a non-reentrant model
   591 ;;
   592                           
   593                           	psect	text0
   594   00286E                     __ptext0:
   595                           	callstack 0
   596   00286E                     _main:
   597                           	callstack 124
   598   00286E                     
   599                           ;main.c: 300:     unsigned char Buff[16];;main.c: 301:     int DataLen;;main.c: 302:    
      +                           int i;;main.c: 303:     unsigned char Cmd;;main.c: 304:     unsigned char DCmd;;main.c:
      +                           307:     SYSTEM_Initialize();
   600   00286E  EC8C  F019         	call	_SYSTEM_Initialize	;wreg free
   601   002872                     
   602                           ;main.c: 320:     for(i=0;i<16;i++){
   603   002872  0E00               	movlw	0
   604   002874  6E3D               	movwf	(main@i+1)^(0+1280),c
   605   002876  0E00               	movlw	0
   606   002878  6E3C               	movwf	main@i^(0+1280),c
   607   00287A                     l2477:
   608                           
   609                           ;main.c: 321:         CurrentPatternData.LineData[i].BaseCounter =0x2000;
   610   00287A  C53C  F501         	movff	main@i,___wmul@multiplier
   611   00287E  C53D  F502         	movff	main@i+1,___wmul@multiplier+1
   612   002882  0E00               	movlw	0
   613   002884  6E04               	movwf	(___wmul@multiplicand+1)^(0+1280),c
   614   002886  0E05               	movlw	5
   615   002888  6E03               	movwf	___wmul@multiplicand^(0+1280),c
   616   00288A  EC4A  F019         	call	___wmul	;wreg free
   617   00288E  0E60               	movlw	low _CurrentPatternData
   618   002890  2401               	addwf	?___wmul^(0+1280),w,c
   619   002892  6ED9               	movwf	fsr2l,c
   620   002894  0E05               	movlw	high _CurrentPatternData
   621   002896  2002               	addwfc	(?___wmul+1)^(0+1280),w,c
   622   002898  6EDA               	movwf	fsr2h,c
   623   00289A  0E00               	movlw	0
   624   00289C  6EDE               	movwf	postinc2,c
   625   00289E  0E20               	movlw	32
   626   0028A0  6EDD               	movwf	postdec2,c
   627                           
   628                           ;main.c: 322:         CurrentPatternData.LineData[i].HighCounter =0x1000;
   629   0028A2  C53C  F501         	movff	main@i,___wmul@multiplier
   630   0028A6  C53D  F502         	movff	main@i+1,___wmul@multiplier+1
   631   0028AA  0E00               	movlw	0
   632   0028AC  6E04               	movwf	(___wmul@multiplicand+1)^(0+1280),c
   633   0028AE  0E05               	movlw	5
   634   0028B0  6E03               	movwf	___wmul@multiplicand^(0+1280),c
   635   0028B2  EC4A  F019         	call	___wmul	;wreg free
   636   0028B6  0E62               	movlw	low (_CurrentPatternData+2)
   637   0028B8  2401               	addwf	?___wmul^(0+1280),w,c
   638   0028BA  6ED9               	movwf	fsr2l,c
   639   0028BC  0E05               	movlw	high (_CurrentPatternData+2)
   640   0028BE  2002               	addwfc	(?___wmul+1)^(0+1280),w,c
   641   0028C0  6EDA               	movwf	fsr2h,c
   642   0028C2  0E00               	movlw	0
   643   0028C4  6EDE               	movwf	postinc2,c
   644   0028C6  0E10               	movlw	16
   645   0028C8  6EDD               	movwf	postdec2,c
   646                           
   647                           ;main.c: 323:         CurrentPatternData.LineData[i].Mask =1;
   648   0028CA  C53C  F501         	movff	main@i,___wmul@multiplier
   649   0028CE  C53D  F502         	movff	main@i+1,___wmul@multiplier+1
   650   0028D2  0E00               	movlw	0
   651   0028D4  6E04               	movwf	(___wmul@multiplicand+1)^(0+1280),c
   652   0028D6  0E05               	movlw	5
   653   0028D8  6E03               	movwf	___wmul@multiplicand^(0+1280),c
   654   0028DA  EC4A  F019         	call	___wmul	;wreg free
   655   0028DE  0E64               	movlw	low (_CurrentPatternData+4)
   656   0028E0  2401               	addwf	?___wmul^(0+1280),w,c
   657   0028E2  6ED9               	movwf	fsr2l,c
   658   0028E4  0E05               	movlw	high (_CurrentPatternData+4)
   659   0028E6  2002               	addwfc	(?___wmul+1)^(0+1280),w,c
   660   0028E8  6EDA               	movwf	fsr2h,c
   661   0028EA  0E01               	movlw	1
   662   0028EC  6EDF               	movwf	indf2,c
   663   0028EE                     
   664                           ;main.c: 324:     }
   665   0028EE  4A3C               	infsnz	main@i^(0+1280),f,c
   666   0028F0  2A3D               	incf	(main@i+1)^(0+1280),f,c
   667   0028F2  BE3D               	btfsc	(main@i+1)^(0+1280),7,c
   668   0028F4  EF85  F014         	goto	u1401
   669   0028F8  503D               	movf	(main@i+1)^(0+1280),w,c
   670   0028FA  E109               	bnz	u1400
   671   0028FC  0E10               	movlw	16
   672   0028FE  5C3C               	subwf	main@i^(0+1280),w,c
   673   002900  A0D8               	btfss	status,0,c
   674   002902  EF85  F014         	goto	u1401
   675   002906  EF87  F014         	goto	u1400
   676   00290A                     u1401:
   677   00290A  EF3D  F014         	goto	l2477
   678   00290E                     u1400:
   679   00290E                     
   680                           ;main.c: 326:     FPGA_CS(0);
   681   00290E  0E00               	movlw	0
   682   002910  6E02               	movwf	(FPGA_CS@d+1)^(0+1280),c
   683   002912  0E00               	movlw	0
   684   002914  6E01               	movwf	FPGA_CS@d^(0+1280),c
   685   002916  ECB2  F019         	call	_FPGA_CS	;wreg free
   686                           
   687                           ;main.c: 327:     FPGA_SetRW(0);
   688   00291A  0E00               	movlw	0
   689   00291C  6E02               	movwf	(FPGA_SetRW@d+1)^(0+1280),c
   690   00291E  0E00               	movlw	0
   691   002920  6E01               	movwf	FPGA_SetRW@d^(0+1280),c
   692   002922  ECA6  F019         	call	_FPGA_SetRW	;wreg free
   693   002926                     
   694                           ;main.c: 329:     Buff[0]=0x01;
   695   002926  0E01               	movlw	1
   696   002928  6E2C               	movwf	main@Buff^(0+1280),c
   697   00292A                     
   698                           ;main.c: 330:     FPGA_SetBuff(2 ,-1 ,Buff ,1);
   699   00292A  0E00               	movlw	0
   700   00292C  6E04               	movwf	(FPGA_SetBuff@Cmd+1)^(0+1280),c
   701   00292E  0E02               	movlw	2
   702   002930  6E03               	movwf	FPGA_SetBuff@Cmd^(0+1280),c
   703   002932  0EFF               	movlw	255
   704   002934  6E06               	movwf	(FPGA_SetBuff@Address+1)^(0+1280),c
   705   002936  6805               	setf	FPGA_SetBuff@Address^(0+1280),c
   706   002938  0E2C               	movlw	low main@Buff
   707   00293A  6E07               	movwf	FPGA_SetBuff@data^(0+1280),c
   708   00293C  0E05               	movlw	high main@Buff
   709   00293E  6E08               	movwf	(FPGA_SetBuff@data+1)^(0+1280),c
   710   002940  0E00               	movlw	0
   711   002942  6E0A               	movwf	(FPGA_SetBuff@DataLen+1)^(0+1280),c
   712   002944  0E01               	movlw	1
   713   002946  6E09               	movwf	FPGA_SetBuff@DataLen^(0+1280),c
   714   002948  EC1F  F016         	call	_FPGA_SetBuff	;wreg free
   715   00294C                     
   716                           ;main.c: 332:     Buff[0]=0x00;
   717   00294C  0E00               	movlw	0
   718   00294E  6E2C               	movwf	main@Buff^(0+1280),c
   719   002950                     
   720                           ;main.c: 333:     FPGA_SetBuff(2 ,-1 ,Buff ,1);
   721   002950  0E00               	movlw	0
   722   002952  6E04               	movwf	(FPGA_SetBuff@Cmd+1)^(0+1280),c
   723   002954  0E02               	movlw	2
   724   002956  6E03               	movwf	FPGA_SetBuff@Cmd^(0+1280),c
   725   002958  0EFF               	movlw	255
   726   00295A  6E06               	movwf	(FPGA_SetBuff@Address+1)^(0+1280),c
   727   00295C  6805               	setf	FPGA_SetBuff@Address^(0+1280),c
   728   00295E  0E2C               	movlw	low main@Buff
   729   002960  6E07               	movwf	FPGA_SetBuff@data^(0+1280),c
   730   002962  0E05               	movlw	high main@Buff
   731   002964  6E08               	movwf	(FPGA_SetBuff@data+1)^(0+1280),c
   732   002966  0E00               	movlw	0
   733   002968  6E0A               	movwf	(FPGA_SetBuff@DataLen+1)^(0+1280),c
   734   00296A  0E01               	movlw	1
   735   00296C  6E09               	movwf	FPGA_SetBuff@DataLen^(0+1280),c
   736   00296E  EC1F  F016         	call	_FPGA_SetBuff	;wreg free
   737   002972                     
   738                           ;main.c: 335:     RegTestLED=1;
   739   002972  0E01               	movlw	1
   740   002974  6E4B               	movwf	_RegTestLED^(0+1280),c
   741   002976                     
   742                           ;main.c: 336:     RegPLSEnable=0;
   743   002976  0E00               	movlw	0
   744   002978  6E4A               	movwf	_RegPLSEnable^(0+1280),c
   745   00297A                     
   746                           ;main.c: 337:     RegPulseOutMode=1;
   747   00297A  0E01               	movlw	1
   748   00297C  6E49               	movwf	_RegPulseOutMode^(0+1280),c
   749   00297E                     
   750                           ;main.c: 338:     FPGA_SetMode();
   751   00297E  EC80  F017         	call	_FPGA_SetMode	;wreg free
   752   002982                     
   753                           ;main.c: 340:     FPGA_GetBuff(5 ,-1 ,Buff ,1);
   754   002982  0E00               	movlw	0
   755   002984  6E11               	movwf	(FPGA_GetBuff@Cmd+1)^(0+1280),c
   756   002986  0E05               	movlw	5
   757   002988  6E10               	movwf	FPGA_GetBuff@Cmd^(0+1280),c
   758   00298A  0EFF               	movlw	255
   759   00298C  6E13               	movwf	(FPGA_GetBuff@Address+1)^(0+1280),c
   760   00298E  6812               	setf	FPGA_GetBuff@Address^(0+1280),c
   761   002990  0E2C               	movlw	low main@Buff
   762   002992  6E14               	movwf	FPGA_GetBuff@data^(0+1280),c
   763   002994  0E05               	movlw	high main@Buff
   764   002996  6E15               	movwf	(FPGA_GetBuff@data+1)^(0+1280),c
   765   002998  0E00               	movlw	0
   766   00299A  6E17               	movwf	(FPGA_GetBuff@DataLen+1)^(0+1280),c
   767   00299C  0E01               	movlw	1
   768   00299E  6E16               	movwf	FPGA_GetBuff@DataLen^(0+1280),c
   769   0029A0  EC7C  F016         	call	_FPGA_GetBuff	;wreg free
   770   0029A4                     
   771                           ;main.c: 341:     DipSW=Buff[0];
   772   0029A4  C52C  F547         	movff	main@Buff,_DipSW
   773   0029A8  6A48               	clrf	(_DipSW+1)^(0+1280),c
   774   0029AA                     
   775                           ;main.c: 343:     for(i=0;i<16;i++){
   776   0029AA  0E00               	movlw	0
   777   0029AC  6E3D               	movwf	(main@i+1)^(0+1280),c
   778   0029AE  0E00               	movlw	0
   779   0029B0  6E3C               	movwf	main@i^(0+1280),c
   780   0029B2                     l2511:
   781                           
   782                           ;main.c: 344:         FPGA_SetLightBaseCounter(i);
   783   0029B2  C53C  F50E         	movff	main@i,FPGA_SetLightBaseCounter@n
   784   0029B6  C53D  F50F         	movff	main@i+1,FPGA_SetLightBaseCounter@n+1
   785   0029BA  EC4E  F018         	call	_FPGA_SetLightBaseCounter	;wreg free
   786                           
   787                           ;main.c: 345:         FPGA_SetLightHighCounter(i);
   788   0029BE  C53C  F50E         	movff	main@i,FPGA_SetLightHighCounter@n
   789   0029C2  C53D  F50F         	movff	main@i+1,FPGA_SetLightHighCounter@n+1
   790   0029C6  EC10  F018         	call	_FPGA_SetLightHighCounter	;wreg free
   791   0029CA                     
   792                           ;main.c: 346:     }
   793   0029CA  4A3C               	infsnz	main@i^(0+1280),f,c
   794   0029CC  2A3D               	incf	(main@i+1)^(0+1280),f,c
   795   0029CE  BE3D               	btfsc	(main@i+1)^(0+1280),7,c
   796   0029D0  EFF3  F014         	goto	u1411
   797   0029D4  503D               	movf	(main@i+1)^(0+1280),w,c
   798   0029D6  E109               	bnz	u1410
   799   0029D8  0E10               	movlw	16
   800   0029DA  5C3C               	subwf	main@i^(0+1280),w,c
   801   0029DC  A0D8               	btfss	status,0,c
   802   0029DE  EFF3  F014         	goto	u1411
   803   0029E2  EFF5  F014         	goto	u1410
   804   0029E6                     u1411:
   805   0029E6  EFD9  F014         	goto	l2511
   806   0029EA                     u1410:
   807   0029EA                     
   808                           ;main.c: 347:     FPGA_SetLightMask();
   809   0029EA  EC04  F013         	call	_FPGA_SetLightMask	;wreg free
   810                           
   811                           ;main.c: 349:     FPGA_LightON(1);
   812   0029EE  0E01               	movlw	1
   813   0029F0  EC33  F017         	call	_FPGA_LightON
   814   0029F4                     l2519:
   815                           
   816                           ;main.c: 352:     {;main.c: 353:         for(i=0;i<16;i++){
   817   0029F4  0E00               	movlw	0
   818   0029F6  6E3D               	movwf	(main@i+1)^(0+1280),c
   819   0029F8  0E00               	movlw	0
   820   0029FA  6E3C               	movwf	main@i^(0+1280),c
   821   0029FC                     l2525:
   822                           
   823                           ;main.c: 354:             GetADFromLight(i,1);
   824   0029FC  C53C  F505         	movff	main@i,GetADFromLight@Address
   825   002A00  C53D  F506         	movff	main@i+1,GetADFromLight@Address+1
   826   002A04  0E01               	movlw	1
   827   002A06  6E07               	movwf	GetADFromLight@SelEN^(0+1280),c
   828   002A08  ECCC  F017         	call	_GetADFromLight	;wreg free
   829   002A0C                     
   830                           ;main.c: 355:         }
   831   002A0C  4A3C               	infsnz	main@i^(0+1280),f,c
   832   002A0E  2A3D               	incf	(main@i+1)^(0+1280),f,c
   833   002A10  BE3D               	btfsc	(main@i+1)^(0+1280),7,c
   834   002A12  EF14  F015         	goto	u1421
   835   002A16  503D               	movf	(main@i+1)^(0+1280),w,c
   836   002A18  E109               	bnz	u1420
   837   002A1A  0E10               	movlw	16
   838   002A1C  5C3C               	subwf	main@i^(0+1280),w,c
   839   002A1E  A0D8               	btfss	status,0,c
   840   002A20  EF14  F015         	goto	u1421
   841   002A24  EF16  F015         	goto	u1420
   842   002A28                     u1421:
   843   002A28  EFFE  F014         	goto	l2525
   844   002A2C                     u1420:
   845   002A2C                     
   846                           ;main.c: 356:         for(i=0;i<16;i++){
   847   002A2C  0E00               	movlw	0
   848   002A2E  6E3D               	movwf	(main@i+1)^(0+1280),c
   849   002A30  0E00               	movlw	0
   850   002A32  6E3C               	movwf	main@i^(0+1280),c
   851   002A34                     l2537:
   852                           
   853                           ;main.c: 357:             GetADFromLight(i,0);
   854   002A34  C53C  F505         	movff	main@i,GetADFromLight@Address
   855   002A38  C53D  F506         	movff	main@i+1,GetADFromLight@Address+1
   856   002A3C  0E00               	movlw	0
   857   002A3E  6E07               	movwf	GetADFromLight@SelEN^(0+1280),c
   858   002A40  ECCC  F017         	call	_GetADFromLight	;wreg free
   859   002A44                     
   860                           ;main.c: 358:         }
   861   002A44  4A3C               	infsnz	main@i^(0+1280),f,c
   862   002A46  2A3D               	incf	(main@i+1)^(0+1280),f,c
   863   002A48  BE3D               	btfsc	(main@i+1)^(0+1280),7,c
   864   002A4A  EF30  F015         	goto	u1431
   865   002A4E  503D               	movf	(main@i+1)^(0+1280),w,c
   866   002A50  E109               	bnz	u1430
   867   002A52  0E10               	movlw	16
   868   002A54  5C3C               	subwf	main@i^(0+1280),w,c
   869   002A56  A0D8               	btfss	status,0,c
   870   002A58  EF30  F015         	goto	u1431
   871   002A5C  EF32  F015         	goto	u1430
   872   002A60                     u1431:
   873   002A60  EF1A  F015         	goto	l2537
   874   002A64                     u1430:
   875   002A64  EFFA  F014         	goto	l2519
   876   002A68  EFFE  F0FF         	goto	start
   877   002A6C                     __end_of_main:
   878                           	callstack 0
   879                           
   880 ;; *************** function _SYSTEM_Initialize *****************
   881 ;; Defined at:
   882 ;;		line 50 in file "mcc_generated_files/mcc.c"
   883 ;; Parameters:    Size  Location     Type
   884 ;;		None
   885 ;; Auto vars:     Size  Location     Type
   886 ;;		None
   887 ;; Return value:  Size  Location     Type
   888 ;;                  1    wreg      void 
   889 ;; Registers used:
   890 ;;		wreg, status,2, status,0, cstack
   891 ;; Tracked objects:
   892 ;;		On entry : 0/0
   893 ;;		On exit  : 0/0
   894 ;;		Unchanged: 0/0
   895 ;; Data sizes:     COMRAM   BANK5   BANK6   BANK7   BANK8   BANK9  BANK10  BANK11  BANK12  BANK13  BANK14  BANK15  BANK1
      +6  BANK17  BANK18  BANK19  BANK20  BANK21  BANK22  BANK23  BANK24  BANK25  BANK26  BANK27  BANK28  BANK29  BANK30  BANK3
      +1  BANK32  BANK33  BANK34  BANK35  BANK36
   896 ;;      Params:         0       0       0       0       0       0       0       0       0       0       0       0       
      +0       0       0       0       0       0       0       0       0       0       0       0       0       0       0       
      +0       0       0       0       0       0
   897 ;;      Locals:         0       0       0       0       0       0       0       0       0       0       0       0       
      +0       0       0       0       0       0       0       0       0       0       0       0       0       0       0       
      +0       0       0       0       0       0
   898 ;;      Temps:          0       0       0       0       0       0       0       0       0       0       0       0       
      +0       0       0       0       0       0       0       0       0       0       0       0       0       0       0       
      +0       0       0       0       0       0
   899 ;;      Totals:         0       0       0       0       0       0       0       0       0       0       0       0       
      +0       0       0       0       0       0       0       0       0       0       0       0       0       0       0       
      +0       0       0       0       0       0
   900 ;;Total ram usage:        0 bytes
   901 ;; Hardware stack levels used: 1
   902 ;; Hardware stack levels required when called: 2
   903 ;; This function calls:
   904 ;;		_ADCC_Initialize
   905 ;;		_OSCILLATOR_Initialize
   906 ;;		_PIN_MANAGER_Initialize
   907 ;;		_PMD_Initialize
   908 ;;		_SPI1_Initialize
   909 ;;		_UART1_Initialize
   910 ;; This function is called by:
   911 ;;		_main
   912 ;; This function uses a non-reentrant model
   913 ;;
   914                           
   915                           	psect	text1
   916   003318                     __ptext1:
   917                           	callstack 0
   918   003318                     _SYSTEM_Initialize:
   919                           	callstack 124
   920   003318                     
   921                           ;mcc_generated_files/mcc.c: 52:     PMD_Initialize();
   922   003318  EC5D  F019         	call	_PMD_Initialize	;wreg free
   923                           
   924                           ;mcc_generated_files/mcc.c: 53:     PIN_MANAGER_Initialize();
   925   00331C  ECC0  F015         	call	_PIN_MANAGER_Initialize	;wreg free
   926                           
   927                           ;mcc_generated_files/mcc.c: 54:     OSCILLATOR_Initialize();
   928   003320  EC7E  F019         	call	_OSCILLATOR_Initialize	;wreg free
   929                           
   930                           ;mcc_generated_files/mcc.c: 55:     ADCC_Initialize();
   931   003324  ECFA  F018         	call	_ADCC_Initialize	;wreg free
   932   003328                     
   933                           ;mcc_generated_files/mcc.c: 56:     UART1_Initialize();
   934   003328  EC8C  F018         	call	_UART1_Initialize	;wreg free
   935   00332C                     
   936                           ;mcc_generated_files/mcc.c: 57:     SPI1_Initialize();
   937   00332C  EC99  F019         	call	_SPI1_Initialize	;wreg free
   938   003330  0012               	return		;funcret
   939   003332                     __end_of_SYSTEM_Initialize:
   940                           	callstack 0
   941                           
   942 ;; *************** function _UART1_Initialize *****************
   943 ;; Defined at:
   944 ;;		line 66 in file "mcc_generated_files/uart1.c"
   945 ;; Parameters:    Size  Location     Type
   946 ;;		None
   947 ;; Auto vars:     Size  Location     Type
   948 ;;		None
   949 ;; Return value:  Size  Location     Type
   950 ;;                  1    wreg      void 
   951 ;; Registers used:
   952 ;;		wreg, status,2, status,0, cstack
   953 ;; Tracked objects:
   954 ;;		On entry : 0/0
   955 ;;		On exit  : 0/0
   956 ;;		Unchanged: 0/0
   957 ;; Data sizes:     COMRAM   BANK5   BANK6   BANK7   BANK8   BANK9  BANK10  BANK11  BANK12  BANK13  BANK14  BANK15  BANK1
      +6  BANK17  BANK18  BANK19  BANK20  BANK21  BANK22  BANK23  BANK24  BANK25  BANK26  BANK27  BANK28  BANK29  BANK30  BANK3
      +1  BANK32  BANK33  BANK34  BANK35  BANK36
   958 ;;      Params:         0       0       0       0       0       0       0       0       0       0       0       0       
      +0       0       0       0       0       0       0       0       0       0       0       0       0       0       0       
      +0       0       0       0       0       0
   959 ;;      Locals:         0       0       0       0       0       0       0       0       0       0       0       0       
      +0       0       0       0       0       0       0       0       0       0       0       0       0       0       0       
      +0       0       0       0       0       0
   960 ;;      Temps:          0       0       0       0       0       0       0       0       0       0       0       0       
      +0       0       0       0       0       0       0       0       0       0       0       0       0       0       0       
      +0       0       0       0       0       0
   961 ;;      Totals:         0       0       0       0       0       0       0       0       0       0       0       0       
      +0       0       0       0       0       0       0       0       0       0       0       0       0       0       0       
      +0       0       0       0       0       0
   962 ;;Total ram usage:        0 bytes
   963 ;; Hardware stack levels used: 1
   964 ;; Hardware stack levels required when called: 1
   965 ;; This function calls:
   966 ;;		_UART1_SetErrorHandler
   967 ;;		_UART1_SetFramingErrorHandler
   968 ;;		_UART1_SetOverrunErrorHandler
   969 ;; This function is called by:
   970 ;;		_SYSTEM_Initialize
   971 ;; This function uses a non-reentrant model
   972 ;;
   973                           
   974                           	psect	text2
   975   003118                     __ptext2:
   976                           	callstack 0
   977   003118                     _UART1_Initialize:
   978                           	callstack 124
   979   003118                     
   980                           ;mcc_generated_files/uart1.c: 73:     U1P1L = 0x00;
   981   003118  0E00               	movlw	0
   982   00311A  0102               	movlb	2	; () banked
   983   00311C  6FA5               	movwf	165,b	;volatile
   984                           
   985                           ;mcc_generated_files/uart1.c: 76:     U1P1H = 0x00;
   986   00311E  0E00               	movlw	0
   987   003120  6FA6               	movwf	166,b	;volatile
   988                           
   989                           ;mcc_generated_files/uart1.c: 79:     U1P2L = 0x00;
   990   003122  0E00               	movlw	0
   991   003124  6FA7               	movwf	167,b	;volatile
   992                           
   993                           ;mcc_generated_files/uart1.c: 82:     U1P2H = 0x00;
   994   003126  0E00               	movlw	0
   995   003128  6FA8               	movwf	168,b	;volatile
   996                           
   997                           ;mcc_generated_files/uart1.c: 85:     U1P3L = 0x00;
   998   00312A  0E00               	movlw	0
   999   00312C  6FA9               	movwf	169,b	;volatile
  1000                           
  1001                           ;mcc_generated_files/uart1.c: 88:     U1P3H = 0x00;
  1002   00312E  0E00               	movlw	0
  1003   003130  6FAA               	movwf	170,b	;volatile
  1004                           
  1005                           ;mcc_generated_files/uart1.c: 91:     U1CON0 = 0xB0;
  1006   003132  0EB0               	movlw	176
  1007   003134  6FAB               	movwf	171,b	;volatile
  1008                           
  1009                           ;mcc_generated_files/uart1.c: 94:     U1CON1 = 0x80;
  1010   003136  0E80               	movlw	128
  1011   003138  6FAC               	movwf	172,b	;volatile
  1012                           
  1013                           ;mcc_generated_files/uart1.c: 97:     U1CON2 = 0x00;
  1014   00313A  0E00               	movlw	0
  1015   00313C  6FAD               	movwf	173,b	;volatile
  1016                           
  1017                           ;mcc_generated_files/uart1.c: 100:     U1BRGL = 0x0C;
  1018   00313E  0E0C               	movlw	12
  1019   003140  6FAE               	movwf	174,b	;volatile
  1020                           
  1021                           ;mcc_generated_files/uart1.c: 103:     U1BRGH = 0x00;
  1022   003142  0E00               	movlw	0
  1023   003144  6FAF               	movwf	175,b	;volatile
  1024                           
  1025                           ;mcc_generated_files/uart1.c: 106:     U1FIFO = 0x00;
  1026   003146  0E00               	movlw	0
  1027   003148  6FB0               	movwf	176,b	;volatile
  1028                           
  1029                           ;mcc_generated_files/uart1.c: 109:     U1UIR = 0x00;
  1030   00314A  0E00               	movlw	0
  1031   00314C  6FB1               	movwf	177,b	;volatile
  1032                           
  1033                           ;mcc_generated_files/uart1.c: 112:     U1ERRIR = 0x00;
  1034   00314E  0E00               	movlw	0
  1035   003150  6FB2               	movwf	178,b	;volatile
  1036                           
  1037                           ;mcc_generated_files/uart1.c: 115:     U1ERRIE = 0x00;
  1038   003152  0E00               	movlw	0
  1039   003154  6FB3               	movwf	179,b	;volatile
  1040   003156                     
  1041                           ; BSR set to: 2
  1042                           ;mcc_generated_files/uart1.c: 118:     UART1_SetFramingErrorHandler(UART1_DefaultFraming
      +                          ErrorHandler);
  1043   003156  0E00               	movlw	0
  1044   003158  6E01               	movwf	UART1_SetFramingErrorHandler@interruptHandler^(0+1280),c
  1045   00315A  0E00               	movlw	0
  1046   00315C  6E02               	movwf	(UART1_SetFramingErrorHandler@interruptHandler+1)^(0+1280),c
  1047   00315E  0E00               	movlw	0
  1048   003160  6E03               	movwf	(UART1_SetFramingErrorHandler@interruptHandler+2)^(0+1280),c
  1049   003162  ECDC  F019         	call	_UART1_SetFramingErrorHandler	;wreg free
  1050   003166                     
  1051                           ;mcc_generated_files/uart1.c: 119:     UART1_SetOverrunErrorHandler(UART1_DefaultOverrun
      +                          ErrorHandler);
  1052   003166  0E00               	movlw	0
  1053   003168  6E01               	movwf	UART1_SetOverrunErrorHandler@interruptHandler^(0+1280),c
  1054   00316A  0E00               	movlw	0
  1055   00316C  6E02               	movwf	(UART1_SetOverrunErrorHandler@interruptHandler+1)^(0+1280),c
  1056   00316E  0E00               	movlw	0
  1057   003170  6E03               	movwf	(UART1_SetOverrunErrorHandler@interruptHandler+2)^(0+1280),c
  1058   003172  ECD5  F019         	call	_UART1_SetOverrunErrorHandler	;wreg free
  1059   003176                     
  1060                           ;mcc_generated_files/uart1.c: 120:     UART1_SetErrorHandler(UART1_DefaultErrorHandler);
  1061   003176  0E00               	movlw	0
  1062   003178  6E01               	movwf	UART1_SetErrorHandler@interruptHandler^(0+1280),c
  1063   00317A  0E00               	movlw	0
  1064   00317C  6E02               	movwf	(UART1_SetErrorHandler@interruptHandler+1)^(0+1280),c
  1065   00317E  0E00               	movlw	0
  1066   003180  6E03               	movwf	(UART1_SetErrorHandler@interruptHandler+2)^(0+1280),c
  1067   003182  ECE3  F019         	call	_UART1_SetErrorHandler	;wreg free
  1068   003186                     
  1069                           ;mcc_generated_files/uart1.c: 122:     uart1RxLastError.status = 0;
  1070   003186  0E00               	movlw	0
  1071   003188  6E4C               	movwf	_uart1RxLastError^(0+1280),c	;volatile
  1072   00318A  0012               	return		;funcret
  1073   00318C                     __end_of_UART1_Initialize:
  1074                           	callstack 0
  1075                           
  1076 ;; *************** function _UART1_SetOverrunErrorHandler *****************
  1077 ;; Defined at:
  1078 ;;		line 194 in file "mcc_generated_files/uart1.c"
  1079 ;; Parameters:    Size  Location     Type
  1080 ;;  interruptHan    3    0[COMRAM] PTR FTN()void 
  1081 ;;		 -> UART1_DefaultOverrunErrorHandler(1), 
  1082 ;; Auto vars:     Size  Location     Type
  1083 ;;		None
  1084 ;; Return value:  Size  Location     Type
  1085 ;;                  1    wreg      void 
  1086 ;; Registers used:
  1087 ;;		wreg, status,2, status,0
  1088 ;; Tracked objects:
  1089 ;;		On entry : 0/0
  1090 ;;		On exit  : 0/0
  1091 ;;		Unchanged: 0/0
  1092 ;; Data sizes:     COMRAM   BANK5   BANK6   BANK7   BANK8   BANK9  BANK10  BANK11  BANK12  BANK13  BANK14  BANK15  BANK1
      +6  BANK17  BANK18  BANK19  BANK20  BANK21  BANK22  BANK23  BANK24  BANK25  BANK26  BANK27  BANK28  BANK29  BANK30  BANK3
      +1  BANK32  BANK33  BANK34  BANK35  BANK36
  1093 ;;      Params:         3       0       0       0       0       0       0       0       0       0       0       0       
      +0       0       0       0       0       0       0       0       0       0       0       0       0       0       0       
      +0       0       0       0       0       0
  1094 ;;      Locals:         0       0       0       0       0       0       0       0       0       0       0       0       
      +0       0       0       0       0       0       0       0       0       0       0       0       0       0       0       
      +0       0       0       0       0       0
  1095 ;;      Temps:          0       0       0       0       0       0       0       0       0       0       0       0       
      +0       0       0       0       0       0       0       0       0       0       0       0       0       0       0       
      +0       0       0       0       0       0
  1096 ;;      Totals:         3       0       0       0       0       0       0       0       0       0       0       0       
      +0       0       0       0       0       0       0       0       0       0       0       0       0       0       0       
      +0       0       0       0       0       0
  1097 ;;Total ram usage:        3 bytes
  1098 ;; Hardware stack levels used: 1
  1099 ;; This function calls:
  1100 ;;		Nothing
  1101 ;; This function is called by:
  1102 ;;		_UART1_Initialize
  1103 ;; This function uses a non-reentrant model
  1104 ;;
  1105                           
  1106                           	psect	text3
  1107   0033AA                     __ptext3:
  1108                           	callstack 0
  1109   0033AA                     _UART1_SetOverrunErrorHandler:
  1110                           	callstack 124
  1111   0033AA                     
  1112                           ;mcc_generated_files/uart1.c: 195:     UART1_OverrunErrorHandler = interruptHandler;
  1113   0033AA  C501  F541         	movff	UART1_SetOverrunErrorHandler@interruptHandler,_UART1_OverrunErrorHandler
  1114   0033AE  C502  F542         	movff	UART1_SetOverrunErrorHandler@interruptHandler+1,_UART1_OverrunErrorHandler+1
  1115   0033B2  C503  F543         	movff	UART1_SetOverrunErrorHandler@interruptHandler+2,_UART1_OverrunErrorHandler+2
  1116   0033B6  0012               	return		;funcret
  1117   0033B8                     __end_of_UART1_SetOverrunErrorHandler:
  1118                           	callstack 0
  1119                           
  1120 ;; *************** function _UART1_SetFramingErrorHandler *****************
  1121 ;; Defined at:
  1122 ;;		line 190 in file "mcc_generated_files/uart1.c"
  1123 ;; Parameters:    Size  Location     Type
  1124 ;;  interruptHan    3    0[COMRAM] PTR FTN()void 
  1125 ;;		 -> UART1_DefaultFramingErrorHandler(1), 
  1126 ;; Auto vars:     Size  Location     Type
  1127 ;;		None
  1128 ;; Return value:  Size  Location     Type
  1129 ;;                  1    wreg      void 
  1130 ;; Registers used:
  1131 ;;		wreg, status,2, status,0
  1132 ;; Tracked objects:
  1133 ;;		On entry : 0/0
  1134 ;;		On exit  : 0/0
  1135 ;;		Unchanged: 0/0
  1136 ;; Data sizes:     COMRAM   BANK5   BANK6   BANK7   BANK8   BANK9  BANK10  BANK11  BANK12  BANK13  BANK14  BANK15  BANK1
      +6  BANK17  BANK18  BANK19  BANK20  BANK21  BANK22  BANK23  BANK24  BANK25  BANK26  BANK27  BANK28  BANK29  BANK30  BANK3
      +1  BANK32  BANK33  BANK34  BANK35  BANK36
  1137 ;;      Params:         3       0       0       0       0       0       0       0       0       0       0       0       
      +0       0       0       0       0       0       0       0       0       0       0       0       0       0       0       
      +0       0       0       0       0       0
  1138 ;;      Locals:         0       0       0       0       0       0       0       0       0       0       0       0       
      +0       0       0       0       0       0       0       0       0       0       0       0       0       0       0       
      +0       0       0       0       0       0
  1139 ;;      Temps:          0       0       0       0       0       0       0       0       0       0       0       0       
      +0       0       0       0       0       0       0       0       0       0       0       0       0       0       0       
      +0       0       0       0       0       0
  1140 ;;      Totals:         3       0       0       0       0       0       0       0       0       0       0       0       
      +0       0       0       0       0       0       0       0       0       0       0       0       0       0       0       
      +0       0       0       0       0       0
  1141 ;;Total ram usage:        3 bytes
  1142 ;; Hardware stack levels used: 1
  1143 ;; This function calls:
  1144 ;;		Nothing
  1145 ;; This function is called by:
  1146 ;;		_UART1_Initialize
  1147 ;; This function uses a non-reentrant model
  1148 ;;
  1149                           
  1150                           	psect	text4
  1151   0033B8                     __ptext4:
  1152                           	callstack 0
  1153   0033B8                     _UART1_SetFramingErrorHandler:
  1154                           	callstack 124
  1155   0033B8                     
  1156                           ;mcc_generated_files/uart1.c: 191:     UART1_FramingErrorHandler = interruptHandler;
  1157   0033B8  C501  F544         	movff	UART1_SetFramingErrorHandler@interruptHandler,_UART1_FramingErrorHandler
  1158   0033BC  C502  F545         	movff	UART1_SetFramingErrorHandler@interruptHandler+1,_UART1_FramingErrorHandler+1
  1159   0033C0  C503  F546         	movff	UART1_SetFramingErrorHandler@interruptHandler+2,_UART1_FramingErrorHandler+2
  1160   0033C4  0012               	return		;funcret
  1161   0033C6                     __end_of_UART1_SetFramingErrorHandler:
  1162                           	callstack 0
  1163                           
  1164 ;; *************** function _UART1_SetErrorHandler *****************
  1165 ;; Defined at:
  1166 ;;		line 198 in file "mcc_generated_files/uart1.c"
  1167 ;; Parameters:    Size  Location     Type
  1168 ;;  interruptHan    3    0[COMRAM] PTR FTN()void 
  1169 ;;		 -> UART1_DefaultErrorHandler(1), 
  1170 ;; Auto vars:     Size  Location     Type
  1171 ;;		None
  1172 ;; Return value:  Size  Location     Type
  1173 ;;                  1    wreg      void 
  1174 ;; Registers used:
  1175 ;;		wreg, status,2, status,0
  1176 ;; Tracked objects:
  1177 ;;		On entry : 0/0
  1178 ;;		On exit  : 0/0
  1179 ;;		Unchanged: 0/0
  1180 ;; Data sizes:     COMRAM   BANK5   BANK6   BANK7   BANK8   BANK9  BANK10  BANK11  BANK12  BANK13  BANK14  BANK15  BANK1
      +6  BANK17  BANK18  BANK19  BANK20  BANK21  BANK22  BANK23  BANK24  BANK25  BANK26  BANK27  BANK28  BANK29  BANK30  BANK3
      +1  BANK32  BANK33  BANK34  BANK35  BANK36
  1181 ;;      Params:         3       0       0       0       0       0       0       0       0       0       0       0       
      +0       0       0       0       0       0       0       0       0       0       0       0       0       0       0       
      +0       0       0       0       0       0
  1182 ;;      Locals:         0       0       0       0       0       0       0       0       0       0       0       0       
      +0       0       0       0       0       0       0       0       0       0       0       0       0       0       0       
      +0       0       0       0       0       0
  1183 ;;      Temps:          0       0       0       0       0       0       0       0       0       0       0       0       
      +0       0       0       0       0       0       0       0       0       0       0       0       0       0       0       
      +0       0       0       0       0       0
  1184 ;;      Totals:         3       0       0       0       0       0       0       0       0       0       0       0       
      +0       0       0       0       0       0       0       0       0       0       0       0       0       0       0       
      +0       0       0       0       0       0
  1185 ;;Total ram usage:        3 bytes
  1186 ;; Hardware stack levels used: 1
  1187 ;; This function calls:
  1188 ;;		Nothing
  1189 ;; This function is called by:
  1190 ;;		_UART1_Initialize
  1191 ;; This function uses a non-reentrant model
  1192 ;;
  1193                           
  1194                           	psect	text5
  1195   0033C6                     __ptext5:
  1196                           	callstack 0
  1197   0033C6                     _UART1_SetErrorHandler:
  1198                           	callstack 124
  1199   0033C6                     
  1200                           ;mcc_generated_files/uart1.c: 199:     UART1_ErrorHandler = interruptHandler;
  1201   0033C6  C501  F53E         	movff	UART1_SetErrorHandler@interruptHandler,_UART1_ErrorHandler
  1202   0033CA  C502  F53F         	movff	UART1_SetErrorHandler@interruptHandler+1,_UART1_ErrorHandler+1
  1203   0033CE  C503  F540         	movff	UART1_SetErrorHandler@interruptHandler+2,_UART1_ErrorHandler+2
  1204   0033D2  0012               	return		;funcret
  1205   0033D4                     __end_of_UART1_SetErrorHandler:
  1206                           	callstack 0
  1207                           
  1208 ;; *************** function _SPI1_Initialize *****************
  1209 ;; Defined at:
  1210 ;;		line 64 in file "mcc_generated_files/spi1.c"
  1211 ;; Parameters:    Size  Location     Type
  1212 ;;		None
  1213 ;; Auto vars:     Size  Location     Type
  1214 ;;		None
  1215 ;; Return value:  Size  Location     Type
  1216 ;;                  1    wreg      void 
  1217 ;; Registers used:
  1218 ;;		wreg, status,2
  1219 ;; Tracked objects:
  1220 ;;		On entry : 0/0
  1221 ;;		On exit  : 0/0
  1222 ;;		Unchanged: 0/0
  1223 ;; Data sizes:     COMRAM   BANK5   BANK6   BANK7   BANK8   BANK9  BANK10  BANK11  BANK12  BANK13  BANK14  BANK15  BANK1
      +6  BANK17  BANK18  BANK19  BANK20  BANK21  BANK22  BANK23  BANK24  BANK25  BANK26  BANK27  BANK28  BANK29  BANK30  BANK3
      +1  BANK32  BANK33  BANK34  BANK35  BANK36
  1224 ;;      Params:         0       0       0       0       0       0       0       0       0       0       0       0       
      +0       0       0       0       0       0       0       0       0       0       0       0       0       0       0       
      +0       0       0       0       0       0
  1225 ;;      Locals:         0       0       0       0       0       0       0       0       0       0       0       0       
      +0       0       0       0       0       0       0       0       0       0       0       0       0       0       0       
      +0       0       0       0       0       0
  1226 ;;      Temps:          0       0       0       0       0       0       0       0       0       0       0       0       
      +0       0       0       0       0       0       0       0       0       0       0       0       0       0       0       
      +0       0       0       0       0       0
  1227 ;;      Totals:         0       0       0       0       0       0       0       0       0       0       0       0       
      +0       0       0       0       0       0       0       0       0       0       0       0       0       0       0       
      +0       0       0       0       0       0
  1228 ;;Total ram usage:        0 bytes
  1229 ;; Hardware stack levels used: 1
  1230 ;; This function calls:
  1231 ;;		Nothing
  1232 ;; This function is called by:
  1233 ;;		_SYSTEM_Initialize
  1234 ;; This function uses a non-reentrant model
  1235 ;;
  1236                           
  1237                           	psect	text6
  1238   003332                     __ptext6:
  1239                           	callstack 0
  1240   003332                     _SPI1_Initialize:
  1241                           	callstack 125
  1242   003332                     
  1243                           ;mcc_generated_files/spi1.c: 67:     SPI1CON0 = 0x02;
  1244   003332  0E02               	movlw	2
  1245   003334  0100               	movlb	0	; () banked
  1246   003336  6F84               	movwf	132,b	;volatile
  1247                           
  1248                           ;mcc_generated_files/spi1.c: 69:     SPI1CON1 = 0x40;
  1249   003338  0E40               	movlw	64
  1250   00333A  6F85               	movwf	133,b	;volatile
  1251                           
  1252                           ;mcc_generated_files/spi1.c: 71:     SPI1CON2 = 0x00;
  1253   00333C  0E00               	movlw	0
  1254   00333E  6F86               	movwf	134,b	;volatile
  1255                           
  1256                           ;mcc_generated_files/spi1.c: 73:     SPI1CLK = 0x00;
  1257   003340  0E00               	movlw	0
  1258   003342  6F8C               	movwf	140,b	;volatile
  1259                           
  1260                           ;mcc_generated_files/spi1.c: 75:     SPI1BAUD = 0x32;
  1261   003344  0E32               	movlw	50
  1262   003346  6F89               	movwf	137,b	;volatile
  1263   003348                     
  1264                           ; BSR set to: 0
  1265                           ;mcc_generated_files/spi1.c: 76:     TRISCbits.TRISC3 = 0;
  1266   003348  96C8               	bcf	200,3,c	;volatile
  1267   00334A                     
  1268                           ; BSR set to: 0
  1269   00334A  0012               	return		;funcret
  1270   00334C                     __end_of_SPI1_Initialize:
  1271                           	callstack 0
  1272                           
  1273 ;; *************** function _PMD_Initialize *****************
  1274 ;; Defined at:
  1275 ;;		line 76 in file "mcc_generated_files/mcc.c"
  1276 ;; Parameters:    Size  Location     Type
  1277 ;;		None
  1278 ;; Auto vars:     Size  Location     Type
  1279 ;;		None
  1280 ;; Return value:  Size  Location     Type
  1281 ;;                  1    wreg      void 
  1282 ;; Registers used:
  1283 ;;		wreg, status,2
  1284 ;; Tracked objects:
  1285 ;;		On entry : 0/0
  1286 ;;		On exit  : 0/0
  1287 ;;		Unchanged: 0/0
  1288 ;; Data sizes:     COMRAM   BANK5   BANK6   BANK7   BANK8   BANK9  BANK10  BANK11  BANK12  BANK13  BANK14  BANK15  BANK1
      +6  BANK17  BANK18  BANK19  BANK20  BANK21  BANK22  BANK23  BANK24  BANK25  BANK26  BANK27  BANK28  BANK29  BANK30  BANK3
      +1  BANK32  BANK33  BANK34  BANK35  BANK36
  1289 ;;      Params:         0       0       0       0       0       0       0       0       0       0       0       0       
      +0       0       0       0       0       0       0       0       0       0       0       0       0       0       0       
      +0       0       0       0       0       0
  1290 ;;      Locals:         0       0       0       0       0       0       0       0       0       0       0       0       
      +0       0       0       0       0       0       0       0       0       0       0       0       0       0       0       
      +0       0       0       0       0       0
  1291 ;;      Temps:          0       0       0       0       0       0       0       0       0       0       0       0       
      +0       0       0       0       0       0       0       0       0       0       0       0       0       0       0       
      +0       0       0       0       0       0
  1292 ;;      Totals:         0       0       0       0       0       0       0       0       0       0       0       0       
      +0       0       0       0       0       0       0       0       0       0       0       0       0       0       0       
      +0       0       0       0       0       0
  1293 ;;Total ram usage:        0 bytes
  1294 ;; Hardware stack levels used: 1
  1295 ;; This function calls:
  1296 ;;		Nothing
  1297 ;; This function is called by:
  1298 ;;		_SYSTEM_Initialize
  1299 ;; This function uses a non-reentrant model
  1300 ;;
  1301                           
  1302                           	psect	text7
  1303   0032BA                     __ptext7:
  1304                           	callstack 0
  1305   0032BA                     _PMD_Initialize:
  1306                           	callstack 125
  1307   0032BA                     
  1308                           ;mcc_generated_files/mcc.c: 79:     PMD0 = 0x00;
  1309   0032BA  0E00               	movlw	0
  1310   0032BC  0100               	movlb	0	; () banked
  1311   0032BE  6F60               	movwf	96,b	;volatile
  1312                           
  1313                           ;mcc_generated_files/mcc.c: 81:     PMD1 = 0x00;
  1314   0032C0  0E00               	movlw	0
  1315   0032C2  6F61               	movwf	97,b	;volatile
  1316                           
  1317                           ;mcc_generated_files/mcc.c: 83:     PMD3 = 0x00;
  1318   0032C4  0E00               	movlw	0
  1319   0032C6  6F63               	movwf	99,b	;volatile
  1320                           
  1321                           ;mcc_generated_files/mcc.c: 85:     PMD4 = 0x00;
  1322   0032C8  0E00               	movlw	0
  1323   0032CA  6F64               	movwf	100,b	;volatile
  1324                           
  1325                           ;mcc_generated_files/mcc.c: 87:     PMD5 = 0x00;
  1326   0032CC  0E00               	movlw	0
  1327   0032CE  6F65               	movwf	101,b	;volatile
  1328                           
  1329                           ;mcc_generated_files/mcc.c: 89:     PMD6 = 0x00;
  1330   0032D0  0E00               	movlw	0
  1331   0032D2  6F66               	movwf	102,b	;volatile
  1332                           
  1333                           ;mcc_generated_files/mcc.c: 91:     PMD7 = 0x00;
  1334   0032D4  0E00               	movlw	0
  1335   0032D6  6F67               	movwf	103,b	;volatile
  1336                           
  1337                           ;mcc_generated_files/mcc.c: 93:     PMD8 = 0x00;
  1338   0032D8  0E00               	movlw	0
  1339   0032DA  6F68               	movwf	104,b	;volatile
  1340   0032DC                     
  1341                           ; BSR set to: 0
  1342   0032DC  0012               	return		;funcret
  1343   0032DE                     __end_of_PMD_Initialize:
  1344                           	callstack 0
  1345                           
  1346 ;; *************** function _PIN_MANAGER_Initialize *****************
  1347 ;; Defined at:
  1348 ;;		line 55 in file "mcc_generated_files/pin_manager.c"
  1349 ;; Parameters:    Size  Location     Type
  1350 ;;		None
  1351 ;; Auto vars:     Size  Location     Type
  1352 ;;		None
  1353 ;; Return value:  Size  Location     Type
  1354 ;;                  1    wreg      void 
  1355 ;; Registers used:
  1356 ;;		wreg, status,2
  1357 ;; Tracked objects:
  1358 ;;		On entry : 0/0
  1359 ;;		On exit  : 0/0
  1360 ;;		Unchanged: 0/0
  1361 ;; Data sizes:     COMRAM   BANK5   BANK6   BANK7   BANK8   BANK9  BANK10  BANK11  BANK12  BANK13  BANK14  BANK15  BANK1
      +6  BANK17  BANK18  BANK19  BANK20  BANK21  BANK22  BANK23  BANK24  BANK25  BANK26  BANK27  BANK28  BANK29  BANK30  BANK3
      +1  BANK32  BANK33  BANK34  BANK35  BANK36
  1362 ;;      Params:         0       0       0       0       0       0       0       0       0       0       0       0       
      +0       0       0       0       0       0       0       0       0       0       0       0       0       0       0       
      +0       0       0       0       0       0
  1363 ;;      Locals:         0       0       0       0       0       0       0       0       0       0       0       0       
      +0       0       0       0       0       0       0       0       0       0       0       0       0       0       0       
      +0       0       0       0       0       0
  1364 ;;      Temps:          0       0       0       0       0       0       0       0       0       0       0       0       
      +0       0       0       0       0       0       0       0       0       0       0       0       0       0       0       
      +0       0       0       0       0       0
  1365 ;;      Totals:         0       0       0       0       0       0       0       0       0       0       0       0       
      +0       0       0       0       0       0       0       0       0       0       0       0       0       0       0       
      +0       0       0       0       0       0
  1366 ;;Total ram usage:        0 bytes
  1367 ;; Hardware stack levels used: 1
  1368 ;; This function calls:
  1369 ;;		Nothing
  1370 ;; This function is called by:
  1371 ;;		_SYSTEM_Initialize
  1372 ;; This function uses a non-reentrant model
  1373 ;;
  1374                           
  1375                           	psect	text8
  1376   002B80                     __ptext8:
  1377                           	callstack 0
  1378   002B80                     _PIN_MANAGER_Initialize:
  1379                           	callstack 125
  1380   002B80                     
  1381                           ;mcc_generated_files/pin_manager.c: 60:     LATE = 0x00;
  1382   002B80  0E00               	movlw	0
  1383   002B82  6EC2               	movwf	194,c	;volatile
  1384                           
  1385                           ;mcc_generated_files/pin_manager.c: 61:     LATD = 0x00;
  1386   002B84  0E00               	movlw	0
  1387   002B86  6EC1               	movwf	193,c	;volatile
  1388                           
  1389                           ;mcc_generated_files/pin_manager.c: 62:     LATA = 0x00;
  1390   002B88  0E00               	movlw	0
  1391   002B8A  6EBE               	movwf	190,c	;volatile
  1392                           
  1393                           ;mcc_generated_files/pin_manager.c: 63:     LATF = 0x00;
  1394   002B8C  0E00               	movlw	0
  1395   002B8E  6EC3               	movwf	195,c	;volatile
  1396                           
  1397                           ;mcc_generated_files/pin_manager.c: 64:     LATB = 0x00;
  1398   002B90  0E00               	movlw	0
  1399   002B92  6EBF               	movwf	191,c	;volatile
  1400                           
  1401                           ;mcc_generated_files/pin_manager.c: 65:     LATC = 0x00;
  1402   002B94  0E00               	movlw	0
  1403   002B96  6EC0               	movwf	192,c	;volatile
  1404                           
  1405                           ;mcc_generated_files/pin_manager.c: 70:     TRISE = 0x00;
  1406   002B98  0E00               	movlw	0
  1407   002B9A  6ECA               	movwf	202,c	;volatile
  1408   002B9C                     
  1409                           ;mcc_generated_files/pin_manager.c: 71:     TRISF = 0xFF;
  1410   002B9C  68CB               	setf	203,c	;volatile
  1411                           
  1412                           ;mcc_generated_files/pin_manager.c: 72:     TRISA = 0x85;
  1413   002B9E  0E85               	movlw	133
  1414   002BA0  6EC6               	movwf	198,c	;volatile
  1415                           
  1416                           ;mcc_generated_files/pin_manager.c: 73:     TRISB = 0xC0;
  1417   002BA2  0EC0               	movlw	192
  1418   002BA4  6EC7               	movwf	199,c	;volatile
  1419                           
  1420                           ;mcc_generated_files/pin_manager.c: 74:     TRISC = 0x90;
  1421   002BA6  0E90               	movlw	144
  1422   002BA8  6EC8               	movwf	200,c	;volatile
  1423                           
  1424                           ;mcc_generated_files/pin_manager.c: 75:     TRISD = 0x00;
  1425   002BAA  0E00               	movlw	0
  1426   002BAC  6EC9               	movwf	201,c	;volatile
  1427   002BAE                     
  1428                           ;mcc_generated_files/pin_manager.c: 80:     ANSELD = 0xFF;
  1429   002BAE  0104               	movlb	4	; () banked
  1430   002BB0  6918               	setf	24,b	;volatile
  1431                           
  1432                           ;mcc_generated_files/pin_manager.c: 81:     ANSELC = 0x67;
  1433   002BB2  0E67               	movlw	103
  1434   002BB4  6F10               	movwf	16,b	;volatile
  1435   002BB6                     
  1436                           ; BSR set to: 4
  1437                           ;mcc_generated_files/pin_manager.c: 82:     ANSELB = 0xFF;
  1438   002BB6  6908               	setf	8,b	;volatile
  1439                           
  1440                           ;mcc_generated_files/pin_manager.c: 83:     ANSELE = 0x07;
  1441   002BB8  0E07               	movlw	7
  1442   002BBA  6F20               	movwf	32,b	;volatile
  1443                           
  1444                           ;mcc_generated_files/pin_manager.c: 84:     ANSELF = 0x00;
  1445   002BBC  0E00               	movlw	0
  1446   002BBE  6F28               	movwf	40,b	;volatile
  1447   002BC0                     
  1448                           ; BSR set to: 4
  1449                           ;mcc_generated_files/pin_manager.c: 85:     ANSELA = 0xFF;
  1450   002BC0  6900               	setf	0,b	;volatile
  1451                           
  1452                           ;mcc_generated_files/pin_manager.c: 90:     WPUD = 0x00;
  1453   002BC2  0E00               	movlw	0
  1454   002BC4  6F19               	movwf	25,b	;volatile
  1455                           
  1456                           ;mcc_generated_files/pin_manager.c: 91:     WPUF = 0x00;
  1457   002BC6  0E00               	movlw	0
  1458   002BC8  6F29               	movwf	41,b	;volatile
  1459                           
  1460                           ;mcc_generated_files/pin_manager.c: 92:     WPUE = 0x00;
  1461   002BCA  0E00               	movlw	0
  1462   002BCC  6F21               	movwf	33,b	;volatile
  1463                           
  1464                           ;mcc_generated_files/pin_manager.c: 93:     WPUB = 0x00;
  1465   002BCE  0E00               	movlw	0
  1466   002BD0  6F09               	movwf	9,b	;volatile
  1467                           
  1468                           ;mcc_generated_files/pin_manager.c: 94:     WPUA = 0x00;
  1469   002BD2  0E00               	movlw	0
  1470   002BD4  6F01               	movwf	1,b	;volatile
  1471                           
  1472                           ;mcc_generated_files/pin_manager.c: 95:     WPUC = 0x00;
  1473   002BD6  0E00               	movlw	0
  1474   002BD8  6F11               	movwf	17,b	;volatile
  1475                           
  1476                           ;mcc_generated_files/pin_manager.c: 100:     RB1I2C = 0x00;
  1477   002BDA  0E00               	movlw	0
  1478   002BDC  0102               	movlb	2	; () banked
  1479   002BDE  6F89               	movwf	137,b	;volatile
  1480                           
  1481                           ;mcc_generated_files/pin_manager.c: 101:     RB2I2C = 0x00;
  1482   002BE0  0E00               	movlw	0
  1483   002BE2  6F88               	movwf	136,b	;volatile
  1484                           
  1485                           ;mcc_generated_files/pin_manager.c: 102:     RC3I2C = 0x00;
  1486   002BE4  0E00               	movlw	0
  1487   002BE6  6F87               	movwf	135,b	;volatile
  1488                           
  1489                           ;mcc_generated_files/pin_manager.c: 103:     RC4I2C = 0x00;
  1490   002BE8  0E00               	movlw	0
  1491   002BEA  6F86               	movwf	134,b	;volatile
  1492                           
  1493                           ;mcc_generated_files/pin_manager.c: 108:     ODCONE = 0x00;
  1494   002BEC  0E00               	movlw	0
  1495   002BEE  0104               	movlb	4	; () banked
  1496   002BF0  6F22               	movwf	34,b	;volatile
  1497                           
  1498                           ;mcc_generated_files/pin_manager.c: 109:     ODCONF = 0x00;
  1499   002BF2  0E00               	movlw	0
  1500   002BF4  6F2A               	movwf	42,b	;volatile
  1501                           
  1502                           ;mcc_generated_files/pin_manager.c: 110:     ODCONA = 0x00;
  1503   002BF6  0E00               	movlw	0
  1504   002BF8  6F02               	movwf	2,b	;volatile
  1505                           
  1506                           ;mcc_generated_files/pin_manager.c: 111:     ODCONB = 0x00;
  1507   002BFA  0E00               	movlw	0
  1508   002BFC  6F0A               	movwf	10,b	;volatile
  1509                           
  1510                           ;mcc_generated_files/pin_manager.c: 112:     ODCONC = 0x00;
  1511   002BFE  0E00               	movlw	0
  1512   002C00  6F12               	movwf	18,b	;volatile
  1513                           
  1514                           ;mcc_generated_files/pin_manager.c: 113:     ODCOND = 0x00;
  1515   002C02  0E00               	movlw	0
  1516   002C04  6F1A               	movwf	26,b	;volatile
  1517   002C06                     
  1518                           ; BSR set to: 4
  1519                           ;mcc_generated_files/pin_manager.c: 118:     SLRCONA = 0xFF;
  1520   002C06  6903               	setf	3,b	;volatile
  1521   002C08                     
  1522                           ; BSR set to: 4
  1523                           ;mcc_generated_files/pin_manager.c: 119:     SLRCONB = 0xFF;
  1524   002C08  690B               	setf	11,b	;volatile
  1525   002C0A                     
  1526                           ; BSR set to: 4
  1527                           ;mcc_generated_files/pin_manager.c: 120:     SLRCONC = 0xFF;
  1528   002C0A  6913               	setf	19,b	;volatile
  1529   002C0C                     
  1530                           ; BSR set to: 4
  1531                           ;mcc_generated_files/pin_manager.c: 121:     SLRCOND = 0xFF;
  1532   002C0C  691B               	setf	27,b	;volatile
  1533                           
  1534                           ;mcc_generated_files/pin_manager.c: 122:     SLRCONE = 0x07;
  1535   002C0E  0E07               	movlw	7
  1536   002C10  6F23               	movwf	35,b	;volatile
  1537   002C12                     
  1538                           ; BSR set to: 4
  1539                           ;mcc_generated_files/pin_manager.c: 123:     SLRCONF = 0xFF;
  1540   002C12  692B               	setf	43,b	;volatile
  1541   002C14                     
  1542                           ; BSR set to: 4
  1543                           ;mcc_generated_files/pin_manager.c: 128:     INLVLA = 0xFF;
  1544   002C14  6904               	setf	4,b	;volatile
  1545   002C16                     
  1546                           ; BSR set to: 4
  1547                           ;mcc_generated_files/pin_manager.c: 129:     INLVLB = 0xFF;
  1548   002C16  690C               	setf	12,b	;volatile
  1549   002C18                     
  1550                           ; BSR set to: 4
  1551                           ;mcc_generated_files/pin_manager.c: 130:     INLVLC = 0xFF;
  1552   002C18  6914               	setf	20,b	;volatile
  1553   002C1A                     
  1554                           ; BSR set to: 4
  1555                           ;mcc_generated_files/pin_manager.c: 131:     INLVLD = 0xFF;
  1556   002C1A  691C               	setf	28,b	;volatile
  1557                           
  1558                           ;mcc_generated_files/pin_manager.c: 132:     INLVLE = 0x0F;
  1559   002C1C  0E0F               	movlw	15
  1560   002C1E  6F24               	movwf	36,b	;volatile
  1561   002C20                     
  1562                           ; BSR set to: 4
  1563                           ;mcc_generated_files/pin_manager.c: 133:     INLVLF = 0xFF;
  1564   002C20  692C               	setf	44,b	;volatile
  1565                           
  1566                           ;mcc_generated_files/pin_manager.c: 142:     SPI1SCKPPS = 0x13;
  1567   002C22  0E13               	movlw	19
  1568   002C24  0102               	movlb	2	; () banked
  1569   002C26  6F6A               	movwf	106,b	;volatile
  1570                           
  1571                           ;mcc_generated_files/pin_manager.c: 143:     RC3PPS = 0x31;
  1572   002C28  0E31               	movlw	49
  1573   002C2A  6F14               	movwf	20,b	;volatile
  1574                           
  1575                           ;mcc_generated_files/pin_manager.c: 144:     RC5PPS = 0x32;
  1576   002C2C  0E32               	movlw	50
  1577   002C2E  6F16               	movwf	22,b	;volatile
  1578                           
  1579                           ;mcc_generated_files/pin_manager.c: 145:     RC6PPS = 0x20;
  1580   002C30  0E20               	movlw	32
  1581   002C32  6F17               	movwf	23,b	;volatile
  1582                           
  1583                           ;mcc_generated_files/pin_manager.c: 146:     U1RXPPS = 0x17;
  1584   002C34  0E17               	movlw	23
  1585   002C36  6F72               	movwf	114,b	;volatile
  1586                           
  1587                           ;mcc_generated_files/pin_manager.c: 147:     SPI1SDIPPS = 0x14;
  1588   002C38  0E14               	movlw	20
  1589   002C3A  6F6B               	movwf	107,b	;volatile
  1590   002C3C                     
  1591                           ; BSR set to: 2
  1592   002C3C  0012               	return		;funcret
  1593   002C3E                     __end_of_PIN_MANAGER_Initialize:
  1594                           	callstack 0
  1595                           
  1596 ;; *************** function _OSCILLATOR_Initialize *****************
  1597 ;; Defined at:
  1598 ;;		line 60 in file "mcc_generated_files/mcc.c"
  1599 ;; Parameters:    Size  Location     Type
  1600 ;;		None
  1601 ;; Auto vars:     Size  Location     Type
  1602 ;;		None
  1603 ;; Return value:  Size  Location     Type
  1604 ;;                  1    wreg      void 
  1605 ;; Registers used:
  1606 ;;		wreg, status,2
  1607 ;; Tracked objects:
  1608 ;;		On entry : 0/0
  1609 ;;		On exit  : 0/0
  1610 ;;		Unchanged: 0/0
  1611 ;; Data sizes:     COMRAM   BANK5   BANK6   BANK7   BANK8   BANK9  BANK10  BANK11  BANK12  BANK13  BANK14  BANK15  BANK1
      +6  BANK17  BANK18  BANK19  BANK20  BANK21  BANK22  BANK23  BANK24  BANK25  BANK26  BANK27  BANK28  BANK29  BANK30  BANK3
      +1  BANK32  BANK33  BANK34  BANK35  BANK36
  1612 ;;      Params:         0       0       0       0       0       0       0       0       0       0       0       0       
      +0       0       0       0       0       0       0       0       0       0       0       0       0       0       0       
      +0       0       0       0       0       0
  1613 ;;      Locals:         0       0       0       0       0       0       0       0       0       0       0       0       
      +0       0       0       0       0       0       0       0       0       0       0       0       0       0       0       
      +0       0       0       0       0       0
  1614 ;;      Temps:          0       0       0       0       0       0       0       0       0       0       0       0       
      +0       0       0       0       0       0       0       0       0       0       0       0       0       0       0       
      +0       0       0       0       0       0
  1615 ;;      Totals:         0       0       0       0       0       0       0       0       0       0       0       0       
      +0       0       0       0       0       0       0       0       0       0       0       0       0       0       0       
      +0       0       0       0       0       0
  1616 ;;Total ram usage:        0 bytes
  1617 ;; Hardware stack levels used: 1
  1618 ;; This function calls:
  1619 ;;		Nothing
  1620 ;; This function is called by:
  1621 ;;		_SYSTEM_Initialize
  1622 ;; This function uses a non-reentrant model
  1623 ;;
  1624                           
  1625                           	psect	text9
  1626   0032FC                     __ptext9:
  1627                           	callstack 0
  1628   0032FC                     _OSCILLATOR_Initialize:
  1629                           	callstack 125
  1630   0032FC                     
  1631                           ;mcc_generated_files/mcc.c: 63:     OSCCON1 = 0x70;
  1632   0032FC  0E70               	movlw	112
  1633   0032FE  0100               	movlb	0	; () banked
  1634   003300  6FAD               	movwf	173,b	;volatile
  1635                           
  1636                           ;mcc_generated_files/mcc.c: 65:     OSCCON3 = 0x00;
  1637   003302  0E00               	movlw	0
  1638   003304  6FAF               	movwf	175,b	;volatile
  1639                           
  1640                           ;mcc_generated_files/mcc.c: 67:     OSCEN = 0x00;
  1641   003306  0E00               	movlw	0
  1642   003308  6FB3               	movwf	179,b	;volatile
  1643                           
  1644                           ;mcc_generated_files/mcc.c: 69:     OSCFRQ = 0x02;
  1645   00330A  0E02               	movlw	2
  1646   00330C  6FB1               	movwf	177,b	;volatile
  1647                           
  1648                           ;mcc_generated_files/mcc.c: 71:     OSCTUNE = 0x00;
  1649   00330E  0E00               	movlw	0
  1650   003310  6FB0               	movwf	176,b	;volatile
  1651                           
  1652                           ;mcc_generated_files/mcc.c: 73:     ACTCON = 0x00;
  1653   003312  0E00               	movlw	0
  1654   003314  6FAC               	movwf	172,b	;volatile
  1655   003316                     
  1656                           ; BSR set to: 0
  1657   003316  0012               	return		;funcret
  1658   003318                     __end_of_OSCILLATOR_Initialize:
  1659                           	callstack 0
  1660                           
  1661 ;; *************** function _ADCC_Initialize *****************
  1662 ;; Defined at:
  1663 ;;		line 62 in file "mcc_generated_files/adcc.c"
  1664 ;; Parameters:    Size  Location     Type
  1665 ;;		None
  1666 ;; Auto vars:     Size  Location     Type
  1667 ;;		None
  1668 ;; Return value:  Size  Location     Type
  1669 ;;                  1    wreg      void 
  1670 ;; Registers used:
  1671 ;;		wreg, status,2
  1672 ;; Tracked objects:
  1673 ;;		On entry : 0/0
  1674 ;;		On exit  : 0/0
  1675 ;;		Unchanged: 0/0
  1676 ;; Data sizes:     COMRAM   BANK5   BANK6   BANK7   BANK8   BANK9  BANK10  BANK11  BANK12  BANK13  BANK14  BANK15  BANK1
      +6  BANK17  BANK18  BANK19  BANK20  BANK21  BANK22  BANK23  BANK24  BANK25  BANK26  BANK27  BANK28  BANK29  BANK30  BANK3
      +1  BANK32  BANK33  BANK34  BANK35  BANK36
  1677 ;;      Params:         0       0       0       0       0       0       0       0       0       0       0       0       
      +0       0       0       0       0       0       0       0       0       0       0       0       0       0       0       
      +0       0       0       0       0       0
  1678 ;;      Locals:         0       0       0       0       0       0       0       0       0       0       0       0       
      +0       0       0       0       0       0       0       0       0       0       0       0       0       0       0       
      +0       0       0       0       0       0
  1679 ;;      Temps:          0       0       0       0       0       0       0       0       0       0       0       0       
      +0       0       0       0       0       0       0       0       0       0       0       0       0       0       0       
      +0       0       0       0       0       0
  1680 ;;      Totals:         0       0       0       0       0       0       0       0       0       0       0       0       
      +0       0       0       0       0       0       0       0       0       0       0       0       0       0       0       
      +0       0       0       0       0       0
  1681 ;;Total ram usage:        0 bytes
  1682 ;; Hardware stack levels used: 1
  1683 ;; This function calls:
  1684 ;;		Nothing
  1685 ;; This function is called by:
  1686 ;;		_SYSTEM_Initialize
  1687 ;; This function uses a non-reentrant model
  1688 ;;
  1689                           
  1690                           	psect	text10
  1691   0031F4                     __ptext10:
  1692                           	callstack 0
  1693   0031F4                     _ADCC_Initialize:
  1694                           	callstack 125
  1695   0031F4                     
  1696                           ;mcc_generated_files/adcc.c: 66:     ADLTHL = 0x00;
  1697   0031F4  0E00               	movlw	0
  1698   0031F6  0103               	movlb	3	; () banked
  1699   0031F8  6FD9               	movwf	217,b	;volatile
  1700                           
  1701                           ;mcc_generated_files/adcc.c: 68:     ADLTHH = 0x00;
  1702   0031FA  0E00               	movlw	0
  1703   0031FC  6FDA               	movwf	218,b	;volatile
  1704                           
  1705                           ;mcc_generated_files/adcc.c: 70:     ADUTHL = 0x00;
  1706   0031FE  0E00               	movlw	0
  1707   003200  6FDB               	movwf	219,b	;volatile
  1708                           
  1709                           ;mcc_generated_files/adcc.c: 72:     ADUTHH = 0x00;
  1710   003202  0E00               	movlw	0
  1711   003204  6FDC               	movwf	220,b	;volatile
  1712                           
  1713                           ;mcc_generated_files/adcc.c: 74:     ADSTPTL = 0x00;
  1714   003206  0E00               	movlw	0
  1715   003208  6FDF               	movwf	223,b	;volatile
  1716                           
  1717                           ;mcc_generated_files/adcc.c: 76:     ADSTPTH = 0x00;
  1718   00320A  0E00               	movlw	0
  1719   00320C  6FE0               	movwf	224,b	;volatile
  1720                           
  1721                           ;mcc_generated_files/adcc.c: 78:     ADACCU = 0x00;
  1722   00320E  0E00               	movlw	0
  1723   003210  6FE5               	movwf	229,b	;volatile
  1724                           
  1725                           ;mcc_generated_files/adcc.c: 80:     ADRPT = 0x00;
  1726   003212  0E00               	movlw	0
  1727   003214  6FE7               	movwf	231,b	;volatile
  1728                           
  1729                           ;mcc_generated_files/adcc.c: 82:     ADPCH = 0x00;
  1730   003216  0E00               	movlw	0
  1731   003218  6FEC               	movwf	236,b	;volatile
  1732                           
  1733                           ;mcc_generated_files/adcc.c: 84:     ADACQL = 0x00;
  1734   00321A  0E00               	movlw	0
  1735   00321C  6FEE               	movwf	238,b	;volatile
  1736                           
  1737                           ;mcc_generated_files/adcc.c: 86:     ADACQH = 0x00;
  1738   00321E  0E00               	movlw	0
  1739   003220  6FEF               	movwf	239,b	;volatile
  1740                           
  1741                           ;mcc_generated_files/adcc.c: 88:     ADCAP = 0x00;
  1742   003222  0E00               	movlw	0
  1743   003224  6FF0               	movwf	240,b	;volatile
  1744                           
  1745                           ;mcc_generated_files/adcc.c: 90:     ADPREL = 0x00;
  1746   003226  0E00               	movlw	0
  1747   003228  6FF1               	movwf	241,b	;volatile
  1748                           
  1749                           ;mcc_generated_files/adcc.c: 92:     ADPREH = 0x00;
  1750   00322A  0E00               	movlw	0
  1751   00322C  6FF2               	movwf	242,b	;volatile
  1752                           
  1753                           ;mcc_generated_files/adcc.c: 94:     ADCON1 = 0x00;
  1754   00322E  0E00               	movlw	0
  1755   003230  6FF4               	movwf	244,b	;volatile
  1756                           
  1757                           ;mcc_generated_files/adcc.c: 96:     ADCON2 = 0x10;
  1758   003232  0E10               	movlw	16
  1759   003234  6FF5               	movwf	245,b	;volatile
  1760                           
  1761                           ;mcc_generated_files/adcc.c: 98:     ADCON3 = 0x00;
  1762   003236  0E00               	movlw	0
  1763   003238  6FF6               	movwf	246,b	;volatile
  1764                           
  1765                           ;mcc_generated_files/adcc.c: 100:     ADSTAT = 0x00;
  1766   00323A  0E00               	movlw	0
  1767   00323C  6FF7               	movwf	247,b	;volatile
  1768                           
  1769                           ;mcc_generated_files/adcc.c: 102:     ADREF = 0x10;
  1770   00323E  0E10               	movlw	16
  1771   003240  6FF8               	movwf	248,b	;volatile
  1772                           
  1773                           ;mcc_generated_files/adcc.c: 104:     ADACT = 0x00;
  1774   003242  0E00               	movlw	0
  1775   003244  6FF9               	movwf	249,b	;volatile
  1776                           
  1777                           ;mcc_generated_files/adcc.c: 106:     ADCLK = 0x00;
  1778   003246  0E00               	movlw	0
  1779   003248  6FFA               	movwf	250,b	;volatile
  1780                           
  1781                           ;mcc_generated_files/adcc.c: 108:     ADCON0 = 0x84;
  1782   00324A  0E84               	movlw	132
  1783   00324C  6FF3               	movwf	243,b	;volatile
  1784   00324E                     
  1785                           ; BSR set to: 3
  1786   00324E  0012               	return		;funcret
  1787   003250                     __end_of_ADCC_Initialize:
  1788                           	callstack 0
  1789                           
  1790 ;; *************** function _GetADFromLight *****************
  1791 ;; Defined at:
  1792 ;;		line 266 in file "main.c"
  1793 ;; Parameters:    Size  Location     Type
  1794 ;;  Address         2    4[COMRAM] int 
  1795 ;;  SelEN           1    6[COMRAM] _Bool 
  1796 ;; Auto vars:     Size  Location     Type
  1797 ;;  D               2    0        unsigned short 
  1798 ;; Return value:  Size  Location     Type
  1799 ;;                  2    4[COMRAM] unsigned short 
  1800 ;; Registers used:
  1801 ;;		wreg, status,2, status,0, cstack
  1802 ;; Tracked objects:
  1803 ;;		On entry : 0/0
  1804 ;;		On exit  : 0/0
  1805 ;;		Unchanged: 0/0
  1806 ;; Data sizes:     COMRAM   BANK5   BANK6   BANK7   BANK8   BANK9  BANK10  BANK11  BANK12  BANK13  BANK14  BANK15  BANK1
      +6  BANK17  BANK18  BANK19  BANK20  BANK21  BANK22  BANK23  BANK24  BANK25  BANK26  BANK27  BANK28  BANK29  BANK30  BANK3
      +1  BANK32  BANK33  BANK34  BANK35  BANK36
  1807 ;;      Params:         3       0       0       0       0       0       0       0       0       0       0       0       
      +0       0       0       0       0       0       0       0       0       0       0       0       0       0       0       
      +0       0       0       0       0       0
  1808 ;;      Locals:         0       0       0       0       0       0       0       0       0       0       0       0       
      +0       0       0       0       0       0       0       0       0       0       0       0       0       0       0       
      +0       0       0       0       0       0
  1809 ;;      Temps:          0       0       0       0       0       0       0       0       0       0       0       0       
      +0       0       0       0       0       0       0       0       0       0       0       0       0       0       0       
      +0       0       0       0       0       0
  1810 ;;      Totals:         3       0       0       0       0       0       0       0       0       0       0       0       
      +0       0       0       0       0       0       0       0       0       0       0       0       0       0       0       
      +0       0       0       0       0       0
  1811 ;;Total ram usage:        3 bytes
  1812 ;; Hardware stack levels used: 1
  1813 ;; Hardware stack levels required when called: 1
  1814 ;; This function calls:
  1815 ;;		_ADCC_GetConversionResult
  1816 ;; This function is called by:
  1817 ;;		_main
  1818 ;; This function uses a non-reentrant model
  1819 ;;
  1820                           
  1821                           	psect	text11
  1822   002F98                     __ptext11:
  1823                           	callstack 0
  1824   002F98                     _GetADFromLight:
  1825                           	callstack 125
  1826   002F98                     
  1827                           ;main.c: 266: adc_result_t GetADFromLight(int Address,_Bool SelEN);main.c: 267: {;main.c
      +                          : 268:     if(Address>=0){
  1828   002F98  BE06               	btfsc	(GetADFromLight@Address+1)^(0+1280),7,c
  1829   002F9A  EFD1  F017         	goto	u1341
  1830   002F9E  EFD3  F017         	goto	u1340
  1831   002FA2                     u1341:
  1832   002FA2  EFFF  F017         	goto	l815
  1833   002FA6                     u1340:
  1834   002FA6                     
  1835                           ;main.c: 269:         if((Address&0x01)!=0)
  1836   002FA6  A005               	btfss	GetADFromLight@Address^(0+1280),0,c
  1837   002FA8  EFD8  F017         	goto	u1351
  1838   002FAC  EFDA  F017         	goto	u1350
  1839   002FB0                     u1351:
  1840   002FB0  EFDD  F017         	goto	l795
  1841   002FB4                     u1350:
  1842   002FB4  80BF               	bsf	191,0,c	;volatile
  1843   002FB6  EFDE  F017         	goto	l794
  1844   002FBA                     l795:
  1845   002FBA  90BF               	bcf	191,0,c	;volatile
  1846   002FBC                     l794:
  1847                           
  1848                           ;main.c: 273:         if((Address&0x02)!=0)
  1849   002FBC  A205               	btfss	GetADFromLight@Address^(0+1280),1,c
  1850   002FBE  EFE3  F017         	goto	u1361
  1851   002FC2  EFE5  F017         	goto	u1360
  1852   002FC6                     u1361:
  1853   002FC6  EFE8  F017         	goto	l801
  1854   002FCA                     u1360:
  1855   002FCA  82BF               	bsf	191,1,c	;volatile
  1856   002FCC  EFE9  F017         	goto	l800
  1857   002FD0                     l801:
  1858   002FD0  92BF               	bcf	191,1,c	;volatile
  1859   002FD2                     l800:
  1860                           
  1861                           ;main.c: 277:         if((Address&0x04)!=0)
  1862   002FD2  A405               	btfss	GetADFromLight@Address^(0+1280),2,c
  1863   002FD4  EFEE  F017         	goto	u1371
  1864   002FD8  EFF0  F017         	goto	u1370
  1865   002FDC                     u1371:
  1866   002FDC  EFF3  F017         	goto	l807
  1867   002FE0                     u1370:
  1868   002FE0  84BF               	bsf	191,2,c	;volatile
  1869   002FE2  EFF4  F017         	goto	l806
  1870   002FE6                     l807:
  1871   002FE6  94BF               	bcf	191,2,c	;volatile
  1872   002FE8                     l806:
  1873                           
  1874                           ;main.c: 281:         if((Address&0x08)!=0)
  1875   002FE8  A605               	btfss	GetADFromLight@Address^(0+1280),3,c
  1876   002FEA  EFF9  F017         	goto	u1381
  1877   002FEE  EFFB  F017         	goto	u1380
  1878   002FF2                     u1381:
  1879   002FF2  EFFE  F017         	goto	l813
  1880   002FF6                     u1380:
  1881   002FF6  86BF               	bsf	191,3,c	;volatile
  1882   002FF8  EFFF  F017         	goto	l815
  1883   002FFC                     l813:
  1884   002FFC  96BF               	bcf	191,3,c	;volatile
  1885   002FFE                     l815:
  1886   002FFE  98BF               	bcf	191,4,c	;volatile
  1887   003000  9ABF               	bcf	191,5,c	;volatile
  1888   003002                     
  1889                           ;main.c: 288:     if(SelEN==0)
  1890   003002  5007               	movf	GetADFromLight@SelEN^(0+1280),w,c
  1891   003004  A4D8               	btfss	status,2,c
  1892   003006  EF07  F018         	goto	u1391
  1893   00300A  EF09  F018         	goto	u1390
  1894   00300E                     u1391:
  1895   00300E  EF0C  F018         	goto	l823
  1896   003012                     u1390:
  1897   003012  88BF               	bsf	191,4,c	;volatile
  1898   003014  EF0D  F018         	goto	l2465
  1899   003018                     l823:
  1900   003018  8ABF               	bsf	191,5,c	;volatile
  1901   00301A                     l2465:
  1902   00301A  ECCA  F019         	call	_ADCC_GetConversionResult	;wreg free
  1903   00301E  0012               	return		;funcret
  1904   003020                     __end_of_GetADFromLight:
  1905                           	callstack 0
  1906                           
  1907 ;; *************** function _ADCC_GetConversionResult *****************
  1908 ;; Defined at:
  1909 ;;		line 131 in file "mcc_generated_files/adcc.c"
  1910 ;; Parameters:    Size  Location     Type
  1911 ;;		None
  1912 ;; Auto vars:     Size  Location     Type
  1913 ;;		None
  1914 ;; Return value:  Size  Location     Type
  1915 ;;                  2    0[COMRAM] unsigned short 
  1916 ;; Registers used:
  1917 ;;		wreg, status,2, status,0
  1918 ;; Tracked objects:
  1919 ;;		On entry : 0/0
  1920 ;;		On exit  : 0/0
  1921 ;;		Unchanged: 0/0
  1922 ;; Data sizes:     COMRAM   BANK5   BANK6   BANK7   BANK8   BANK9  BANK10  BANK11  BANK12  BANK13  BANK14  BANK15  BANK1
      +6  BANK17  BANK18  BANK19  BANK20  BANK21  BANK22  BANK23  BANK24  BANK25  BANK26  BANK27  BANK28  BANK29  BANK30  BANK3
      +1  BANK32  BANK33  BANK34  BANK35  BANK36
  1923 ;;      Params:         2       0       0       0       0       0       0       0       0       0       0       0       
      +0       0       0       0       0       0       0       0       0       0       0       0       0       0       0       
      +0       0       0       0       0       0
  1924 ;;      Locals:         0       0       0       0       0       0       0       0       0       0       0       0       
      +0       0       0       0       0       0       0       0       0       0       0       0       0       0       0       
      +0       0       0       0       0       0
  1925 ;;      Temps:          2       0       0       0       0       0       0       0       0       0       0       0       
      +0       0       0       0       0       0       0       0       0       0       0       0       0       0       0       
      +0       0       0       0       0       0
  1926 ;;      Totals:         4       0       0       0       0       0       0       0       0       0       0       0       
      +0       0       0       0       0       0       0       0       0       0       0       0       0       0       0       
      +0       0       0       0       0       0
  1927 ;;Total ram usage:        4 bytes
  1928 ;; Hardware stack levels used: 1
  1929 ;; This function calls:
  1930 ;;		Nothing
  1931 ;; This function is called by:
  1932 ;;		_GetADFromLight
  1933 ;; This function uses a non-reentrant model
  1934 ;;
  1935                           
  1936                           	psect	text12
  1937   003394                     __ptext12:
  1938                           	callstack 0
  1939   003394                     _ADCC_GetConversionResult:
  1940                           	callstack 125
  1941   003394                     
  1942                           ;mcc_generated_files/adcc.c: 134:     return ((adc_result_t)((ADRESH << 8) + ADRESL));
  1943   003394  0103               	movlb	3	; () banked
  1944   003396  51EB               	movf	235,w,b	;volatile
  1945   003398  6E04               	movwf	(??_ADCC_GetConversionResult+1)^(0+1280),c
  1946   00339A  6A03               	clrf	??_ADCC_GetConversionResult^(0+1280),c
  1947   00339C  51EA               	movf	234,w,b	;volatile
  1948   00339E  2403               	addwf	??_ADCC_GetConversionResult^(0+1280),w,c
  1949   0033A0  6E01               	movwf	?_ADCC_GetConversionResult^(0+1280),c
  1950   0033A2  0E00               	movlw	0
  1951   0033A4  2004               	addwfc	(??_ADCC_GetConversionResult+1)^(0+1280),w,c
  1952   0033A6  6E02               	movwf	(?_ADCC_GetConversionResult+1)^(0+1280),c
  1953   0033A8                     
  1954                           ; BSR set to: 3
  1955   0033A8  0012               	return		;funcret
  1956   0033AA                     __end_of_ADCC_GetConversionResult:
  1957                           	callstack 0
  1958                           
  1959 ;; *************** function _FPGA_SetMode *****************
  1960 ;; Defined at:
  1961 ;;		line 246 in file "main.c"
  1962 ;; Parameters:    Size  Location     Type
  1963 ;;		None
  1964 ;; Auto vars:     Size  Location     Type
  1965 ;;  data            1   19[COMRAM] unsigned char 
  1966 ;; Return value:  Size  Location     Type
  1967 ;;                  1    wreg      void 
  1968 ;; Registers used:
  1969 ;;		wreg, fsr2l, fsr2h, status,2, status,0, cstack
  1970 ;; Tracked objects:
  1971 ;;		On entry : 0/0
  1972 ;;		On exit  : 0/0
  1973 ;;		Unchanged: 0/0
  1974 ;; Data sizes:     COMRAM   BANK5   BANK6   BANK7   BANK8   BANK9  BANK10  BANK11  BANK12  BANK13  BANK14  BANK15  BANK1
      +6  BANK17  BANK18  BANK19  BANK20  BANK21  BANK22  BANK23  BANK24  BANK25  BANK26  BANK27  BANK28  BANK29  BANK30  BANK3
      +1  BANK32  BANK33  BANK34  BANK35  BANK36
  1975 ;;      Params:         0       0       0       0       0       0       0       0       0       0       0       0       
      +0       0       0       0       0       0       0       0       0       0       0       0       0       0       0       
      +0       0       0       0       0       0
  1976 ;;      Locals:         7       0       0       0       0       0       0       0       0       0       0       0       
      +0       0       0       0       0       0       0       0       0       0       0       0       0       0       0       
      +0       0       0       0       0       0
  1977 ;;      Temps:          0       0       0       0       0       0       0       0       0       0       0       0       
      +0       0       0       0       0       0       0       0       0       0       0       0       0       0       0       
      +0       0       0       0       0       0
  1978 ;;      Totals:         7       0       0       0       0       0       0       0       0       0       0       0       
      +0       0       0       0       0       0       0       0       0       0       0       0       0       0       0       
      +0       0       0       0       0       0
  1979 ;;Total ram usage:        7 bytes
  1980 ;; Hardware stack levels used: 1
  1981 ;; Hardware stack levels required when called: 2
  1982 ;; This function calls:
  1983 ;;		_FPGA_SetBuff
  1984 ;; This function is called by:
  1985 ;;		_main
  1986 ;; This function uses a non-reentrant model
  1987 ;;
  1988                           
  1989                           	psect	text13
  1990   002F00                     __ptext13:
  1991                           	callstack 0
  1992   002F00                     _FPGA_SetMode:
  1993                           	callstack 124
  1994   002F00                     
  1995                           ;main.c: 248:     unsigned char data;;main.c: 250:     data =((RegTestLED==1)?0x08:0)
  1996   002F00  0449               	decf	_RegPulseOutMode^(0+1280),w,c
  1997   002F02  B4D8               	btfsc	status,2,c
  1998   002F04  EF86  F017         	goto	u1281
  1999   002F08  EF88  F017         	goto	u1280
  2000   002F0C                     u1281:
  2001   002F0C  EF8E  F017         	goto	l2419
  2002   002F10                     u1280:
  2003   002F10  0E00               	movlw	0
  2004   002F12  6E0F               	movwf	(_FPGA_SetMode$1085+1)^(0+1280),c
  2005   002F14  0E00               	movlw	0
  2006   002F16  6E0E               	movwf	_FPGA_SetMode$1085^(0+1280),c
  2007   002F18  EF92  F017         	goto	l2421
  2008   002F1C                     l2419:
  2009   002F1C  0E00               	movlw	0
  2010   002F1E  6E0F               	movwf	(_FPGA_SetMode$1085+1)^(0+1280),c
  2011   002F20  0E02               	movlw	2
  2012   002F22  6E0E               	movwf	_FPGA_SetMode$1085^(0+1280),c
  2013   002F24                     l2421:
  2014   002F24  044A               	decf	_RegPLSEnable^(0+1280),w,c
  2015   002F26  B4D8               	btfsc	status,2,c
  2016   002F28  EF98  F017         	goto	u1291
  2017   002F2C  EF9A  F017         	goto	u1290
  2018   002F30                     u1291:
  2019   002F30  EFA0  F017         	goto	l2425
  2020   002F34                     u1290:
  2021   002F34  0E00               	movlw	0
  2022   002F36  6E11               	movwf	(_FPGA_SetMode$1086+1)^(0+1280),c
  2023   002F38  0E00               	movlw	0
  2024   002F3A  6E10               	movwf	_FPGA_SetMode$1086^(0+1280),c
  2025   002F3C  EFA4  F017         	goto	l2427
  2026   002F40                     l2425:
  2027   002F40  0E00               	movlw	0
  2028   002F42  6E11               	movwf	(_FPGA_SetMode$1086+1)^(0+1280),c
  2029   002F44  0E04               	movlw	4
  2030   002F46  6E10               	movwf	_FPGA_SetMode$1086^(0+1280),c
  2031   002F48                     l2427:
  2032   002F48  044B               	decf	_RegTestLED^(0+1280),w,c
  2033   002F4A  B4D8               	btfsc	status,2,c
  2034   002F4C  EFAA  F017         	goto	u1301
  2035   002F50  EFAC  F017         	goto	u1300
  2036   002F54                     u1301:
  2037   002F54  EFB2  F017         	goto	l2431
  2038   002F58                     u1300:
  2039   002F58  0E00               	movlw	0
  2040   002F5A  6E13               	movwf	(_FPGA_SetMode$1087+1)^(0+1280),c
  2041   002F5C  0E00               	movlw	0
  2042   002F5E  6E12               	movwf	_FPGA_SetMode$1087^(0+1280),c
  2043   002F60  EFB6  F017         	goto	l2433
  2044   002F64                     l2431:
  2045   002F64  0E00               	movlw	0
  2046   002F66  6E13               	movwf	(_FPGA_SetMode$1087+1)^(0+1280),c
  2047   002F68  0E08               	movlw	8
  2048   002F6A  6E12               	movwf	_FPGA_SetMode$1087^(0+1280),c
  2049   002F6C                     l2433:
  2050   002F6C  5012               	movf	_FPGA_SetMode$1087^(0+1280),w,c
  2051   002F6E  2410               	addwf	_FPGA_SetMode$1086^(0+1280),w,c
  2052   002F70  240E               	addwf	_FPGA_SetMode$1085^(0+1280),w,c
  2053   002F72  6E14               	movwf	FPGA_SetMode@data^(0+1280),c
  2054   002F74                     
  2055                           ;main.c: 253:     FPGA_SetBuff(2,-1,&data ,1);
  2056   002F74  0E00               	movlw	0
  2057   002F76  6E04               	movwf	(FPGA_SetBuff@Cmd+1)^(0+1280),c
  2058   002F78  0E02               	movlw	2
  2059   002F7A  6E03               	movwf	FPGA_SetBuff@Cmd^(0+1280),c
  2060   002F7C  0EFF               	movlw	255
  2061   002F7E  6E06               	movwf	(FPGA_SetBuff@Address+1)^(0+1280),c
  2062   002F80  6805               	setf	FPGA_SetBuff@Address^(0+1280),c
  2063   002F82  0E14               	movlw	low FPGA_SetMode@data
  2064   002F84  6E07               	movwf	FPGA_SetBuff@data^(0+1280),c
  2065   002F86  0E05               	movlw	high FPGA_SetMode@data
  2066   002F88  6E08               	movwf	(FPGA_SetBuff@data+1)^(0+1280),c
  2067   002F8A  0E00               	movlw	0
  2068   002F8C  6E0A               	movwf	(FPGA_SetBuff@DataLen+1)^(0+1280),c
  2069   002F8E  0E01               	movlw	1
  2070   002F90  6E09               	movwf	FPGA_SetBuff@DataLen^(0+1280),c
  2071   002F92  EC1F  F016         	call	_FPGA_SetBuff	;wreg free
  2072   002F96  0012               	return		;funcret
  2073   002F98                     __end_of_FPGA_SetMode:
  2074                           	callstack 0
  2075                           
  2076 ;; *************** function _FPGA_SetLightMask *****************
  2077 ;; Defined at:
  2078 ;;		line 222 in file "main.c"
  2079 ;; Parameters:    Size  Location     Type
  2080 ;;		None
  2081 ;; Auto vars:     Size  Location     Type
  2082 ;;  data            2   13[COMRAM] unsigned char [2]
  2083 ;; Return value:  Size  Location     Type
  2084 ;;                  1    wreg      void 
  2085 ;; Registers used:
  2086 ;;		wreg, fsr2l, fsr2h, status,2, status,0, cstack
  2087 ;; Tracked objects:
  2088 ;;		On entry : 0/0
  2089 ;;		On exit  : 0/0
  2090 ;;		Unchanged: 0/0
  2091 ;; Data sizes:     COMRAM   BANK5   BANK6   BANK7   BANK8   BANK9  BANK10  BANK11  BANK12  BANK13  BANK14  BANK15  BANK1
      +6  BANK17  BANK18  BANK19  BANK20  BANK21  BANK22  BANK23  BANK24  BANK25  BANK26  BANK27  BANK28  BANK29  BANK30  BANK3
      +1  BANK32  BANK33  BANK34  BANK35  BANK36
  2092 ;;      Params:         0       0       0       0       0       0       0       0       0       0       0       0       
      +0       0       0       0       0       0       0       0       0       0       0       0       0       0       0       
      +0       0       0       0       0       0
  2093 ;;      Locals:        30       0       0       0       0       0       0       0       0       0       0       0       
      +0       0       0       0       0       0       0       0       0       0       0       0       0       0       0       
      +0       0       0       0       0       0
  2094 ;;      Temps:          0       0       0       0       0       0       0       0       0       0       0       0       
      +0       0       0       0       0       0       0       0       0       0       0       0       0       0       0       
      +0       0       0       0       0       0
  2095 ;;      Totals:        30       0       0       0       0       0       0       0       0       0       0       0       
      +0       0       0       0       0       0       0       0       0       0       0       0       0       0       0       
      +0       0       0       0       0       0
  2096 ;;Total ram usage:       30 bytes
  2097 ;; Hardware stack levels used: 1
  2098 ;; Hardware stack levels required when called: 2
  2099 ;; This function calls:
  2100 ;;		_FPGA_SetBuff
  2101 ;; This function is called by:
  2102 ;;		_main
  2103 ;; This function uses a non-reentrant model
  2104 ;;
  2105                           
  2106                           	psect	text14
  2107   002608                     __ptext14:
  2108                           	callstack 0
  2109   002608                     _FPGA_SetLightMask:
  2110                           	callstack 124
  2111   002608                     
  2112                           ;main.c: 224:     unsigned char data[2];;main.c: 226:     data[0]=((CurrentPatternData.L
      +                          ineData[0].Mask==1)?0x01:0)
  2113   002608  0105               	movlb	5	; () banked
  2114   00260A  0587               	decf	(_CurrentPatternData+39)& (0+255),w,b
  2115   00260C  B4D8               	btfsc	status,2,c
  2116   00260E  EF0B  F013         	goto	u1101
  2117   002612  EF0D  F013         	goto	u1100
  2118   002616                     u1101:
  2119   002616  EF13  F013         	goto	l2329
  2120   00261A                     u1100:
  2121   00261A                     
  2122                           ; BSR set to: 5
  2123   00261A  0E00               	movlw	0
  2124   00261C  6E11               	movwf	(_FPGA_SetLightMask$1069+1)^(0+1280),c
  2125   00261E  0E00               	movlw	0
  2126   002620  6E10               	movwf	_FPGA_SetLightMask$1069^(0+1280),c
  2127   002622  EF17  F013         	goto	l2331
  2128   002626                     l2329:
  2129                           
  2130                           ; BSR set to: 5
  2131   002626  0E00               	movlw	0
  2132   002628  6E11               	movwf	(_FPGA_SetLightMask$1069+1)^(0+1280),c
  2133   00262A  0E80               	movlw	128
  2134   00262C  6E10               	movwf	_FPGA_SetLightMask$1069^(0+1280),c
  2135   00262E                     l2331:
  2136                           
  2137                           ; BSR set to: 5
  2138   00262E  0582               	decf	(_CurrentPatternData+34)& (0+255),w,b
  2139   002630  B4D8               	btfsc	status,2,c
  2140   002632  EF1D  F013         	goto	u1111
  2141   002636  EF1F  F013         	goto	u1110
  2142   00263A                     u1111:
  2143   00263A  EF25  F013         	goto	l2335
  2144   00263E                     u1110:
  2145   00263E                     
  2146                           ; BSR set to: 5
  2147   00263E  0E00               	movlw	0
  2148   002640  6E13               	movwf	(_FPGA_SetLightMask$1070+1)^(0+1280),c
  2149   002642  0E00               	movlw	0
  2150   002644  6E12               	movwf	_FPGA_SetLightMask$1070^(0+1280),c
  2151   002646  EF29  F013         	goto	l2337
  2152   00264A                     l2335:
  2153                           
  2154                           ; BSR set to: 5
  2155   00264A  0E00               	movlw	0
  2156   00264C  6E13               	movwf	(_FPGA_SetLightMask$1070+1)^(0+1280),c
  2157   00264E  0E40               	movlw	64
  2158   002650  6E12               	movwf	_FPGA_SetLightMask$1070^(0+1280),c
  2159   002652                     l2337:
  2160                           
  2161                           ; BSR set to: 5
  2162   002652  057D               	decf	(_CurrentPatternData+29)& (0+255),w,b
  2163   002654  B4D8               	btfsc	status,2,c
  2164   002656  EF2F  F013         	goto	u1121
  2165   00265A  EF31  F013         	goto	u1120
  2166   00265E                     u1121:
  2167   00265E  EF37  F013         	goto	l2341
  2168   002662                     u1120:
  2169   002662                     
  2170                           ; BSR set to: 5
  2171   002662  0E00               	movlw	0
  2172   002664  6E15               	movwf	(_FPGA_SetLightMask$1071+1)^(0+1280),c
  2173   002666  0E00               	movlw	0
  2174   002668  6E14               	movwf	_FPGA_SetLightMask$1071^(0+1280),c
  2175   00266A  EF3B  F013         	goto	l2343
  2176   00266E                     l2341:
  2177                           
  2178                           ; BSR set to: 5
  2179   00266E  0E00               	movlw	0
  2180   002670  6E15               	movwf	(_FPGA_SetLightMask$1071+1)^(0+1280),c
  2181   002672  0E20               	movlw	32
  2182   002674  6E14               	movwf	_FPGA_SetLightMask$1071^(0+1280),c
  2183   002676                     l2343:
  2184                           
  2185                           ; BSR set to: 5
  2186   002676  0578               	decf	(_CurrentPatternData+24)& (0+255),w,b
  2187   002678  B4D8               	btfsc	status,2,c
  2188   00267A  EF41  F013         	goto	u1131
  2189   00267E  EF43  F013         	goto	u1130
  2190   002682                     u1131:
  2191   002682  EF49  F013         	goto	l2347
  2192   002686                     u1130:
  2193   002686                     
  2194                           ; BSR set to: 5
  2195   002686  0E00               	movlw	0
  2196   002688  6E17               	movwf	(_FPGA_SetLightMask$1072+1)^(0+1280),c
  2197   00268A  0E00               	movlw	0
  2198   00268C  6E16               	movwf	_FPGA_SetLightMask$1072^(0+1280),c
  2199   00268E  EF4D  F013         	goto	l2349
  2200   002692                     l2347:
  2201                           
  2202                           ; BSR set to: 5
  2203   002692  0E00               	movlw	0
  2204   002694  6E17               	movwf	(_FPGA_SetLightMask$1072+1)^(0+1280),c
  2205   002696  0E10               	movlw	16
  2206   002698  6E16               	movwf	_FPGA_SetLightMask$1072^(0+1280),c
  2207   00269A                     l2349:
  2208                           
  2209                           ; BSR set to: 5
  2210   00269A  0573               	decf	(_CurrentPatternData+19)& (0+255),w,b
  2211   00269C  B4D8               	btfsc	status,2,c
  2212   00269E  EF53  F013         	goto	u1141
  2213   0026A2  EF55  F013         	goto	u1140
  2214   0026A6                     u1141:
  2215   0026A6  EF5B  F013         	goto	l2353
  2216   0026AA                     u1140:
  2217   0026AA                     
  2218                           ; BSR set to: 5
  2219   0026AA  0E00               	movlw	0
  2220   0026AC  6E19               	movwf	(_FPGA_SetLightMask$1073+1)^(0+1280),c
  2221   0026AE  0E00               	movlw	0
  2222   0026B0  6E18               	movwf	_FPGA_SetLightMask$1073^(0+1280),c
  2223   0026B2  EF5F  F013         	goto	l2355
  2224   0026B6                     l2353:
  2225                           
  2226                           ; BSR set to: 5
  2227   0026B6  0E00               	movlw	0
  2228   0026B8  6E19               	movwf	(_FPGA_SetLightMask$1073+1)^(0+1280),c
  2229   0026BA  0E08               	movlw	8
  2230   0026BC  6E18               	movwf	_FPGA_SetLightMask$1073^(0+1280),c
  2231   0026BE                     l2355:
  2232                           
  2233                           ; BSR set to: 5
  2234   0026BE  056E               	decf	(_CurrentPatternData+14)& (0+255),w,b
  2235   0026C0  B4D8               	btfsc	status,2,c
  2236   0026C2  EF65  F013         	goto	u1151
  2237   0026C6  EF67  F013         	goto	u1150
  2238   0026CA                     u1151:
  2239   0026CA  EF6D  F013         	goto	l2359
  2240   0026CE                     u1150:
  2241   0026CE                     
  2242                           ; BSR set to: 5
  2243   0026CE  0E00               	movlw	0
  2244   0026D0  6E1B               	movwf	(_FPGA_SetLightMask$1074+1)^(0+1280),c
  2245   0026D2  0E00               	movlw	0
  2246   0026D4  6E1A               	movwf	_FPGA_SetLightMask$1074^(0+1280),c
  2247   0026D6  EF71  F013         	goto	l2361
  2248   0026DA                     l2359:
  2249                           
  2250                           ; BSR set to: 5
  2251   0026DA  0E00               	movlw	0
  2252   0026DC  6E1B               	movwf	(_FPGA_SetLightMask$1074+1)^(0+1280),c
  2253   0026DE  0E04               	movlw	4
  2254   0026E0  6E1A               	movwf	_FPGA_SetLightMask$1074^(0+1280),c
  2255   0026E2                     l2361:
  2256                           
  2257                           ; BSR set to: 5
  2258   0026E2  0569               	decf	(_CurrentPatternData+9)& (0+255),w,b
  2259   0026E4  B4D8               	btfsc	status,2,c
  2260   0026E6  EF77  F013         	goto	u1161
  2261   0026EA  EF79  F013         	goto	u1160
  2262   0026EE                     u1161:
  2263   0026EE  EF7F  F013         	goto	l2365
  2264   0026F2                     u1160:
  2265   0026F2                     
  2266                           ; BSR set to: 5
  2267   0026F2  0E00               	movlw	0
  2268   0026F4  6E1D               	movwf	(_FPGA_SetLightMask$1075+1)^(0+1280),c
  2269   0026F6  0E00               	movlw	0
  2270   0026F8  6E1C               	movwf	_FPGA_SetLightMask$1075^(0+1280),c
  2271   0026FA  EF83  F013         	goto	l2367
  2272   0026FE                     l2365:
  2273                           
  2274                           ; BSR set to: 5
  2275   0026FE  0E00               	movlw	0
  2276   002700  6E1D               	movwf	(_FPGA_SetLightMask$1075+1)^(0+1280),c
  2277   002702  0E02               	movlw	2
  2278   002704  6E1C               	movwf	_FPGA_SetLightMask$1075^(0+1280),c
  2279   002706                     l2367:
  2280                           
  2281                           ; BSR set to: 5
  2282   002706  0564               	decf	(_CurrentPatternData+4)& (0+255),w,b
  2283   002708  B4D8               	btfsc	status,2,c
  2284   00270A  EF89  F013         	goto	u1171
  2285   00270E  EF8C  F013         	goto	u1170
  2286   002712                     u1171:
  2287   002712  0E01               	movlw	1
  2288   002714  EF8D  F013         	goto	u1180
  2289   002718                     u1170:
  2290   002718  0E00               	movlw	0
  2291   00271A                     u1180:
  2292   00271A  241C               	addwf	_FPGA_SetLightMask$1075^(0+1280),w,c
  2293   00271C  241A               	addwf	_FPGA_SetLightMask$1074^(0+1280),w,c
  2294   00271E  2418               	addwf	_FPGA_SetLightMask$1073^(0+1280),w,c
  2295   002720  2416               	addwf	_FPGA_SetLightMask$1072^(0+1280),w,c
  2296   002722  2414               	addwf	_FPGA_SetLightMask$1071^(0+1280),w,c
  2297   002724  2412               	addwf	_FPGA_SetLightMask$1070^(0+1280),w,c
  2298   002726  2410               	addwf	_FPGA_SetLightMask$1069^(0+1280),w,c
  2299   002728  6E0E               	movwf	FPGA_SetLightMask@data^(0+1280),c
  2300   00272A                     
  2301                           ; BSR set to: 5
  2302                           ;main.c: 234:     data[1]=((CurrentPatternData.LineData[8].Mask==1)?0x01:0)
  2303   00272A  05AF               	decf	(_CurrentPatternData+79)& (0+255),w,b
  2304   00272C  B4D8               	btfsc	status,2,c
  2305   00272E  EF9B  F013         	goto	u1191
  2306   002732  EF9D  F013         	goto	u1190
  2307   002736                     u1191:
  2308   002736  EFA3  F013         	goto	l2373
  2309   00273A                     u1190:
  2310   00273A                     
  2311                           ; BSR set to: 5
  2312   00273A  0E00               	movlw	0
  2313   00273C  6E1F               	movwf	(_FPGA_SetLightMask$1076+1)^(0+1280),c
  2314   00273E  0E00               	movlw	0
  2315   002740  6E1E               	movwf	_FPGA_SetLightMask$1076^(0+1280),c
  2316   002742  EFA7  F013         	goto	l2375
  2317   002746                     l2373:
  2318                           
  2319                           ; BSR set to: 5
  2320   002746  0E00               	movlw	0
  2321   002748  6E1F               	movwf	(_FPGA_SetLightMask$1076+1)^(0+1280),c
  2322   00274A  0E80               	movlw	128
  2323   00274C  6E1E               	movwf	_FPGA_SetLightMask$1076^(0+1280),c
  2324   00274E                     l2375:
  2325                           
  2326                           ; BSR set to: 5
  2327   00274E  05AA               	decf	(_CurrentPatternData+74)& (0+255),w,b
  2328   002750  B4D8               	btfsc	status,2,c
  2329   002752  EFAD  F013         	goto	u1201
  2330   002756  EFAF  F013         	goto	u1200
  2331   00275A                     u1201:
  2332   00275A  EFB5  F013         	goto	l2379
  2333   00275E                     u1200:
  2334   00275E                     
  2335                           ; BSR set to: 5
  2336   00275E  0E00               	movlw	0
  2337   002760  6E21               	movwf	(_FPGA_SetLightMask$1077+1)^(0+1280),c
  2338   002762  0E00               	movlw	0
  2339   002764  6E20               	movwf	_FPGA_SetLightMask$1077^(0+1280),c
  2340   002766  EFB9  F013         	goto	l2381
  2341   00276A                     l2379:
  2342                           
  2343                           ; BSR set to: 5
  2344   00276A  0E00               	movlw	0
  2345   00276C  6E21               	movwf	(_FPGA_SetLightMask$1077+1)^(0+1280),c
  2346   00276E  0E40               	movlw	64
  2347   002770  6E20               	movwf	_FPGA_SetLightMask$1077^(0+1280),c
  2348   002772                     l2381:
  2349                           
  2350                           ; BSR set to: 5
  2351   002772  05A5               	decf	(_CurrentPatternData+69)& (0+255),w,b
  2352   002774  B4D8               	btfsc	status,2,c
  2353   002776  EFBF  F013         	goto	u1211
  2354   00277A  EFC1  F013         	goto	u1210
  2355   00277E                     u1211:
  2356   00277E  EFC7  F013         	goto	l2385
  2357   002782                     u1210:
  2358   002782                     
  2359                           ; BSR set to: 5
  2360   002782  0E00               	movlw	0
  2361   002784  6E23               	movwf	(_FPGA_SetLightMask$1078+1)^(0+1280),c
  2362   002786  0E00               	movlw	0
  2363   002788  6E22               	movwf	_FPGA_SetLightMask$1078^(0+1280),c
  2364   00278A  EFCB  F013         	goto	l2387
  2365   00278E                     l2385:
  2366                           
  2367                           ; BSR set to: 5
  2368   00278E  0E00               	movlw	0
  2369   002790  6E23               	movwf	(_FPGA_SetLightMask$1078+1)^(0+1280),c
  2370   002792  0E20               	movlw	32
  2371   002794  6E22               	movwf	_FPGA_SetLightMask$1078^(0+1280),c
  2372   002796                     l2387:
  2373                           
  2374                           ; BSR set to: 5
  2375   002796  05A0               	decf	(_CurrentPatternData+64)& (0+255),w,b
  2376   002798  B4D8               	btfsc	status,2,c
  2377   00279A  EFD1  F013         	goto	u1221
  2378   00279E  EFD3  F013         	goto	u1220
  2379   0027A2                     u1221:
  2380   0027A2  EFD9  F013         	goto	l2391
  2381   0027A6                     u1220:
  2382   0027A6                     
  2383                           ; BSR set to: 5
  2384   0027A6  0E00               	movlw	0
  2385   0027A8  6E25               	movwf	(_FPGA_SetLightMask$1079+1)^(0+1280),c
  2386   0027AA  0E00               	movlw	0
  2387   0027AC  6E24               	movwf	_FPGA_SetLightMask$1079^(0+1280),c
  2388   0027AE  EFDD  F013         	goto	l2393
  2389   0027B2                     l2391:
  2390                           
  2391                           ; BSR set to: 5
  2392   0027B2  0E00               	movlw	0
  2393   0027B4  6E25               	movwf	(_FPGA_SetLightMask$1079+1)^(0+1280),c
  2394   0027B6  0E10               	movlw	16
  2395   0027B8  6E24               	movwf	_FPGA_SetLightMask$1079^(0+1280),c
  2396   0027BA                     l2393:
  2397                           
  2398                           ; BSR set to: 5
  2399   0027BA  059B               	decf	(_CurrentPatternData+59)& (0+255),w,b
  2400   0027BC  B4D8               	btfsc	status,2,c
  2401   0027BE  EFE3  F013         	goto	u1231
  2402   0027C2  EFE5  F013         	goto	u1230
  2403   0027C6                     u1231:
  2404   0027C6  EFEB  F013         	goto	l2397
  2405   0027CA                     u1230:
  2406   0027CA                     
  2407                           ; BSR set to: 5
  2408   0027CA  0E00               	movlw	0
  2409   0027CC  6E27               	movwf	(_FPGA_SetLightMask$1080+1)^(0+1280),c
  2410   0027CE  0E00               	movlw	0
  2411   0027D0  6E26               	movwf	_FPGA_SetLightMask$1080^(0+1280),c
  2412   0027D2  EFEF  F013         	goto	l2399
  2413   0027D6                     l2397:
  2414                           
  2415                           ; BSR set to: 5
  2416   0027D6  0E00               	movlw	0
  2417   0027D8  6E27               	movwf	(_FPGA_SetLightMask$1080+1)^(0+1280),c
  2418   0027DA  0E08               	movlw	8
  2419   0027DC  6E26               	movwf	_FPGA_SetLightMask$1080^(0+1280),c
  2420   0027DE                     l2399:
  2421                           
  2422                           ; BSR set to: 5
  2423   0027DE  0596               	decf	(_CurrentPatternData+54)& (0+255),w,b
  2424   0027E0  B4D8               	btfsc	status,2,c
  2425   0027E2  EFF5  F013         	goto	u1241
  2426   0027E6  EFF7  F013         	goto	u1240
  2427   0027EA                     u1241:
  2428   0027EA  EFFD  F013         	goto	l2403
  2429   0027EE                     u1240:
  2430   0027EE                     
  2431                           ; BSR set to: 5
  2432   0027EE  0E00               	movlw	0
  2433   0027F0  6E29               	movwf	(_FPGA_SetLightMask$1081+1)^(0+1280),c
  2434   0027F2  0E00               	movlw	0
  2435   0027F4  6E28               	movwf	_FPGA_SetLightMask$1081^(0+1280),c
  2436   0027F6  EF01  F014         	goto	l2405
  2437   0027FA                     l2403:
  2438                           
  2439                           ; BSR set to: 5
  2440   0027FA  0E00               	movlw	0
  2441   0027FC  6E29               	movwf	(_FPGA_SetLightMask$1081+1)^(0+1280),c
  2442   0027FE  0E04               	movlw	4
  2443   002800  6E28               	movwf	_FPGA_SetLightMask$1081^(0+1280),c
  2444   002802                     l2405:
  2445                           
  2446                           ; BSR set to: 5
  2447   002802  0591               	decf	(_CurrentPatternData+49)& (0+255),w,b
  2448   002804  B4D8               	btfsc	status,2,c
  2449   002806  EF07  F014         	goto	u1251
  2450   00280A  EF09  F014         	goto	u1250
  2451   00280E                     u1251:
  2452   00280E  EF0F  F014         	goto	l2409
  2453   002812                     u1250:
  2454   002812                     
  2455                           ; BSR set to: 5
  2456   002812  0E00               	movlw	0
  2457   002814  6E2B               	movwf	(_FPGA_SetLightMask$1082+1)^(0+1280),c
  2458   002816  0E00               	movlw	0
  2459   002818  6E2A               	movwf	_FPGA_SetLightMask$1082^(0+1280),c
  2460   00281A  EF13  F014         	goto	l2411
  2461   00281E                     l2409:
  2462                           
  2463                           ; BSR set to: 5
  2464   00281E  0E00               	movlw	0
  2465   002820  6E2B               	movwf	(_FPGA_SetLightMask$1082+1)^(0+1280),c
  2466   002822  0E02               	movlw	2
  2467   002824  6E2A               	movwf	_FPGA_SetLightMask$1082^(0+1280),c
  2468   002826                     l2411:
  2469                           
  2470                           ; BSR set to: 5
  2471   002826  058C               	decf	(_CurrentPatternData+44)& (0+255),w,b
  2472   002828  B4D8               	btfsc	status,2,c
  2473   00282A  EF19  F014         	goto	u1261
  2474   00282E  EF1C  F014         	goto	u1260
  2475   002832                     u1261:
  2476   002832  0E01               	movlw	1
  2477   002834  EF1D  F014         	goto	u1270
  2478   002838                     u1260:
  2479   002838  0E00               	movlw	0
  2480   00283A                     u1270:
  2481   00283A  242A               	addwf	_FPGA_SetLightMask$1082^(0+1280),w,c
  2482   00283C  2428               	addwf	_FPGA_SetLightMask$1081^(0+1280),w,c
  2483   00283E  2426               	addwf	_FPGA_SetLightMask$1080^(0+1280),w,c
  2484   002840  2424               	addwf	_FPGA_SetLightMask$1079^(0+1280),w,c
  2485   002842  2422               	addwf	_FPGA_SetLightMask$1078^(0+1280),w,c
  2486   002844  2420               	addwf	_FPGA_SetLightMask$1077^(0+1280),w,c
  2487   002846  241E               	addwf	_FPGA_SetLightMask$1076^(0+1280),w,c
  2488   002848  6E0F               	movwf	(FPGA_SetLightMask@data+1)^(0+1280),c
  2489   00284A                     
  2490                           ; BSR set to: 5
  2491                           ;main.c: 243:     FPGA_SetBuff(3,-1 ,data ,2);
  2492   00284A  0E00               	movlw	0
  2493   00284C  6E04               	movwf	(FPGA_SetBuff@Cmd+1)^(0+1280),c
  2494   00284E  0E03               	movlw	3
  2495   002850  6E03               	movwf	FPGA_SetBuff@Cmd^(0+1280),c
  2496   002852  0EFF               	movlw	255
  2497   002854  6E06               	movwf	(FPGA_SetBuff@Address+1)^(0+1280),c
  2498   002856  6805               	setf	FPGA_SetBuff@Address^(0+1280),c
  2499   002858  0E0E               	movlw	low FPGA_SetLightMask@data
  2500   00285A  6E07               	movwf	FPGA_SetBuff@data^(0+1280),c
  2501   00285C  0E05               	movlw	high FPGA_SetLightMask@data
  2502   00285E  6E08               	movwf	(FPGA_SetBuff@data+1)^(0+1280),c
  2503   002860  0E00               	movlw	0
  2504   002862  6E0A               	movwf	(FPGA_SetBuff@DataLen+1)^(0+1280),c
  2505   002864  0E02               	movlw	2
  2506   002866  6E09               	movwf	FPGA_SetBuff@DataLen^(0+1280),c
  2507   002868  EC1F  F016         	call	_FPGA_SetBuff	;wreg free
  2508   00286C  0012               	return		;funcret
  2509   00286E                     __end_of_FPGA_SetLightMask:
  2510                           	callstack 0
  2511                           
  2512 ;; *************** function _FPGA_SetLightHighCounter *****************
  2513 ;; Defined at:
  2514 ;;		line 214 in file "main.c"
  2515 ;; Parameters:    Size  Location     Type
  2516 ;;  n               2   13[COMRAM] int 
  2517 ;; Auto vars:     Size  Location     Type
  2518 ;;  data            2   17[COMRAM] unsigned char [2]
  2519 ;; Return value:  Size  Location     Type
  2520 ;;                  1    wreg      void 
  2521 ;; Registers used:
  2522 ;;		wreg, fsr2l, fsr2h, status,2, status,0, prodl, prodh, cstack
  2523 ;; Tracked objects:
  2524 ;;		On entry : 0/0
  2525 ;;		On exit  : 0/0
  2526 ;;		Unchanged: 0/0
  2527 ;; Data sizes:     COMRAM   BANK5   BANK6   BANK7   BANK8   BANK9  BANK10  BANK11  BANK12  BANK13  BANK14  BANK15  BANK1
      +6  BANK17  BANK18  BANK19  BANK20  BANK21  BANK22  BANK23  BANK24  BANK25  BANK26  BANK27  BANK28  BANK29  BANK30  BANK3
      +1  BANK32  BANK33  BANK34  BANK35  BANK36
  2528 ;;      Params:         2       0       0       0       0       0       0       0       0       0       0       0       
      +0       0       0       0       0       0       0       0       0       0       0       0       0       0       0       
      +0       0       0       0       0       0
  2529 ;;      Locals:         2       0       0       0       0       0       0       0       0       0       0       0       
      +0       0       0       0       0       0       0       0       0       0       0       0       0       0       0       
      +0       0       0       0       0       0
  2530 ;;      Temps:          2       0       0       0       0       0       0       0       0       0       0       0       
      +0       0       0       0       0       0       0       0       0       0       0       0       0       0       0       
      +0       0       0       0       0       0
  2531 ;;      Totals:         6       0       0       0       0       0       0       0       0       0       0       0       
      +0       0       0       0       0       0       0       0       0       0       0       0       0       0       0       
      +0       0       0       0       0       0
  2532 ;;Total ram usage:        6 bytes
  2533 ;; Hardware stack levels used: 1
  2534 ;; Hardware stack levels required when called: 2
  2535 ;; This function calls:
  2536 ;;		_FPGA_SetBuff
  2537 ;;		___wmul
  2538 ;; This function is called by:
  2539 ;;		_main
  2540 ;; This function uses a non-reentrant model
  2541 ;;
  2542                           
  2543                           	psect	text15
  2544   003020                     __ptext15:
  2545                           	callstack 0
  2546   003020                     _FPGA_SetLightHighCounter:
  2547                           	callstack 124
  2548   003020                     
  2549                           ;main.c: 214: void FPGA_SetLightHighCounter(int n);main.c: 215: {;main.c: 216:     unsig
      +                          ned char data[2];;main.c: 217:     data[0]=CurrentPatternData.LineData[n].HighCounter&0x
      +                          FF;
  2550   003020  C50E  F501         	movff	FPGA_SetLightHighCounter@n,___wmul@multiplier
  2551   003024  C50F  F502         	movff	FPGA_SetLightHighCounter@n+1,___wmul@multiplier+1
  2552   003028  0E00               	movlw	0
  2553   00302A  6E04               	movwf	(___wmul@multiplicand+1)^(0+1280),c
  2554   00302C  0E05               	movlw	5
  2555   00302E  6E03               	movwf	___wmul@multiplicand^(0+1280),c
  2556   003030  EC4A  F019         	call	___wmul	;wreg free
  2557   003034  0E62               	movlw	low (_CurrentPatternData+2)
  2558   003036  2401               	addwf	?___wmul^(0+1280),w,c
  2559   003038  6ED9               	movwf	fsr2l,c
  2560   00303A  0E05               	movlw	high (_CurrentPatternData+2)
  2561   00303C  2002               	addwfc	(?___wmul+1)^(0+1280),w,c
  2562   00303E  6EDA               	movwf	fsr2h,c
  2563   003040  50DF               	movf	indf2,w,c
  2564   003042  6E12               	movwf	FPGA_SetLightHighCounter@data^(0+1280),c
  2565                           
  2566                           ;main.c: 218:     data[1]=(CurrentPatternData.LineData[n].HighCounter>>8)&0xFF;
  2567   003044  C50E  F501         	movff	FPGA_SetLightHighCounter@n,___wmul@multiplier
  2568   003048  C50F  F502         	movff	FPGA_SetLightHighCounter@n+1,___wmul@multiplier+1
  2569   00304C  0E00               	movlw	0
  2570   00304E  6E04               	movwf	(___wmul@multiplicand+1)^(0+1280),c
  2571   003050  0E05               	movlw	5
  2572   003052  6E03               	movwf	___wmul@multiplicand^(0+1280),c
  2573   003054  EC4A  F019         	call	___wmul	;wreg free
  2574   003058  0E62               	movlw	low (_CurrentPatternData+2)
  2575   00305A  2401               	addwf	?___wmul^(0+1280),w,c
  2576   00305C  6ED9               	movwf	fsr2l,c
  2577   00305E  0E05               	movlw	high (_CurrentPatternData+2)
  2578   003060  2002               	addwfc	(?___wmul+1)^(0+1280),w,c
  2579   003062  6EDA               	movwf	fsr2h,c
  2580   003064  C4DE F510          	movff	postinc2,??_FPGA_SetLightHighCounter
  2581   003068  C4DD F511          	movff	postdec2,??_FPGA_SetLightHighCounter+1
  2582   00306C  C511  F510         	movff	??_FPGA_SetLightHighCounter+1,??_FPGA_SetLightHighCounter
  2583   003070  6A11               	clrf	(??_FPGA_SetLightHighCounter+1)^(0+1280),c
  2584   003072  5010               	movf	??_FPGA_SetLightHighCounter^(0+1280),w,c
  2585   003074  6E13               	movwf	(FPGA_SetLightHighCounter@data+1)^(0+1280),c
  2586   003076                     
  2587                           ;main.c: 219:     FPGA_SetBuff(1,n ,data ,2);
  2588   003076  0E00               	movlw	0
  2589   003078  6E04               	movwf	(FPGA_SetBuff@Cmd+1)^(0+1280),c
  2590   00307A  0E01               	movlw	1
  2591   00307C  6E03               	movwf	FPGA_SetBuff@Cmd^(0+1280),c
  2592   00307E  C50E  F505         	movff	FPGA_SetLightHighCounter@n,FPGA_SetBuff@Address
  2593   003082  C50F  F506         	movff	FPGA_SetLightHighCounter@n+1,FPGA_SetBuff@Address+1
  2594   003086  0E12               	movlw	low FPGA_SetLightHighCounter@data
  2595   003088  6E07               	movwf	FPGA_SetBuff@data^(0+1280),c
  2596   00308A  0E05               	movlw	high FPGA_SetLightHighCounter@data
  2597   00308C  6E08               	movwf	(FPGA_SetBuff@data+1)^(0+1280),c
  2598   00308E  0E00               	movlw	0
  2599   003090  6E0A               	movwf	(FPGA_SetBuff@DataLen+1)^(0+1280),c
  2600   003092  0E02               	movlw	2
  2601   003094  6E09               	movwf	FPGA_SetBuff@DataLen^(0+1280),c
  2602   003096  EC1F  F016         	call	_FPGA_SetBuff	;wreg free
  2603   00309A  0012               	return		;funcret
  2604   00309C                     __end_of_FPGA_SetLightHighCounter:
  2605                           	callstack 0
  2606                           
  2607 ;; *************** function _FPGA_SetLightBaseCounter *****************
  2608 ;; Defined at:
  2609 ;;		line 206 in file "main.c"
  2610 ;; Parameters:    Size  Location     Type
  2611 ;;  n               2   13[COMRAM] int 
  2612 ;; Auto vars:     Size  Location     Type
  2613 ;;  data            2   17[COMRAM] unsigned char [2]
  2614 ;; Return value:  Size  Location     Type
  2615 ;;                  1    wreg      void 
  2616 ;; Registers used:
  2617 ;;		wreg, fsr2l, fsr2h, status,2, status,0, prodl, prodh, cstack
  2618 ;; Tracked objects:
  2619 ;;		On entry : 0/0
  2620 ;;		On exit  : 0/0
  2621 ;;		Unchanged: 0/0
  2622 ;; Data sizes:     COMRAM   BANK5   BANK6   BANK7   BANK8   BANK9  BANK10  BANK11  BANK12  BANK13  BANK14  BANK15  BANK1
      +6  BANK17  BANK18  BANK19  BANK20  BANK21  BANK22  BANK23  BANK24  BANK25  BANK26  BANK27  BANK28  BANK29  BANK30  BANK3
      +1  BANK32  BANK33  BANK34  BANK35  BANK36
  2623 ;;      Params:         2       0       0       0       0       0       0       0       0       0       0       0       
      +0       0       0       0       0       0       0       0       0       0       0       0       0       0       0       
      +0       0       0       0       0       0
  2624 ;;      Locals:         2       0       0       0       0       0       0       0       0       0       0       0       
      +0       0       0       0       0       0       0       0       0       0       0       0       0       0       0       
      +0       0       0       0       0       0
  2625 ;;      Temps:          2       0       0       0       0       0       0       0       0       0       0       0       
      +0       0       0       0       0       0       0       0       0       0       0       0       0       0       0       
      +0       0       0       0       0       0
  2626 ;;      Totals:         6       0       0       0       0       0       0       0       0       0       0       0       
      +0       0       0       0       0       0       0       0       0       0       0       0       0       0       0       
      +0       0       0       0       0       0
  2627 ;;Total ram usage:        6 bytes
  2628 ;; Hardware stack levels used: 1
  2629 ;; Hardware stack levels required when called: 2
  2630 ;; This function calls:
  2631 ;;		_FPGA_SetBuff
  2632 ;;		___wmul
  2633 ;; This function is called by:
  2634 ;;		_main
  2635 ;; This function uses a non-reentrant model
  2636 ;;
  2637                           
  2638                           	psect	text16
  2639   00309C                     __ptext16:
  2640                           	callstack 0
  2641   00309C                     _FPGA_SetLightBaseCounter:
  2642                           	callstack 124
  2643   00309C                     
  2644                           ;main.c: 206: void FPGA_SetLightBaseCounter(int n);main.c: 207: {;main.c: 208:     unsig
      +                          ned char data[2];;main.c: 209:     data[0]=CurrentPatternData.LineData[n].BaseCounter&0x
      +                          FF;
  2645   00309C  C50E  F501         	movff	FPGA_SetLightBaseCounter@n,___wmul@multiplier
  2646   0030A0  C50F  F502         	movff	FPGA_SetLightBaseCounter@n+1,___wmul@multiplier+1
  2647   0030A4  0E00               	movlw	0
  2648   0030A6  6E04               	movwf	(___wmul@multiplicand+1)^(0+1280),c
  2649   0030A8  0E05               	movlw	5
  2650   0030AA  6E03               	movwf	___wmul@multiplicand^(0+1280),c
  2651   0030AC  EC4A  F019         	call	___wmul	;wreg free
  2652   0030B0  0E60               	movlw	low _CurrentPatternData
  2653   0030B2  2401               	addwf	?___wmul^(0+1280),w,c
  2654   0030B4  6ED9               	movwf	fsr2l,c
  2655   0030B6  0E05               	movlw	high _CurrentPatternData
  2656   0030B8  2002               	addwfc	(?___wmul+1)^(0+1280),w,c
  2657   0030BA  6EDA               	movwf	fsr2h,c
  2658   0030BC  50DF               	movf	indf2,w,c
  2659   0030BE  6E12               	movwf	FPGA_SetLightBaseCounter@data^(0+1280),c
  2660                           
  2661                           ;main.c: 210:     data[1]=(CurrentPatternData.LineData[n].BaseCounter>>8)&0xFF;
  2662   0030C0  C50E  F501         	movff	FPGA_SetLightBaseCounter@n,___wmul@multiplier
  2663   0030C4  C50F  F502         	movff	FPGA_SetLightBaseCounter@n+1,___wmul@multiplier+1
  2664   0030C8  0E00               	movlw	0
  2665   0030CA  6E04               	movwf	(___wmul@multiplicand+1)^(0+1280),c
  2666   0030CC  0E05               	movlw	5
  2667   0030CE  6E03               	movwf	___wmul@multiplicand^(0+1280),c
  2668   0030D0  EC4A  F019         	call	___wmul	;wreg free
  2669   0030D4  0E60               	movlw	low _CurrentPatternData
  2670   0030D6  2401               	addwf	?___wmul^(0+1280),w,c
  2671   0030D8  6ED9               	movwf	fsr2l,c
  2672   0030DA  0E05               	movlw	high _CurrentPatternData
  2673   0030DC  2002               	addwfc	(?___wmul+1)^(0+1280),w,c
  2674   0030DE  6EDA               	movwf	fsr2h,c
  2675   0030E0  C4DE F510          	movff	postinc2,??_FPGA_SetLightBaseCounter
  2676   0030E4  C4DD F511          	movff	postdec2,??_FPGA_SetLightBaseCounter+1
  2677   0030E8  C511  F510         	movff	??_FPGA_SetLightBaseCounter+1,??_FPGA_SetLightBaseCounter
  2678   0030EC  6A11               	clrf	(??_FPGA_SetLightBaseCounter+1)^(0+1280),c
  2679   0030EE  5010               	movf	??_FPGA_SetLightBaseCounter^(0+1280),w,c
  2680   0030F0  6E13               	movwf	(FPGA_SetLightBaseCounter@data+1)^(0+1280),c
  2681   0030F2                     
  2682                           ;main.c: 211:     FPGA_SetBuff(0,n ,data ,2);
  2683   0030F2  0E00               	movlw	0
  2684   0030F4  6E04               	movwf	(FPGA_SetBuff@Cmd+1)^(0+1280),c
  2685   0030F6  0E00               	movlw	0
  2686   0030F8  6E03               	movwf	FPGA_SetBuff@Cmd^(0+1280),c
  2687   0030FA  C50E  F505         	movff	FPGA_SetLightBaseCounter@n,FPGA_SetBuff@Address
  2688   0030FE  C50F  F506         	movff	FPGA_SetLightBaseCounter@n+1,FPGA_SetBuff@Address+1
  2689   003102  0E12               	movlw	low FPGA_SetLightBaseCounter@data
  2690   003104  6E07               	movwf	FPGA_SetBuff@data^(0+1280),c
  2691   003106  0E05               	movlw	high FPGA_SetLightBaseCounter@data
  2692   003108  6E08               	movwf	(FPGA_SetBuff@data+1)^(0+1280),c
  2693   00310A  0E00               	movlw	0
  2694   00310C  6E0A               	movwf	(FPGA_SetBuff@DataLen+1)^(0+1280),c
  2695   00310E  0E02               	movlw	2
  2696   003110  6E09               	movwf	FPGA_SetBuff@DataLen^(0+1280),c
  2697   003112  EC1F  F016         	call	_FPGA_SetBuff	;wreg free
  2698   003116  0012               	return		;funcret
  2699   003118                     __end_of_FPGA_SetLightBaseCounter:
  2700                           	callstack 0
  2701                           
  2702 ;; *************** function ___wmul *****************
  2703 ;; Defined at:
  2704 ;;		line 15 in file "C:\Program Files\Microchip\xc8\v2.40\pic\sources\c99\common\Umul16.c"
  2705 ;; Parameters:    Size  Location     Type
  2706 ;;  multiplier      2    0[COMRAM] unsigned int 
  2707 ;;  multiplicand    2    2[COMRAM] unsigned int 
  2708 ;; Auto vars:     Size  Location     Type
  2709 ;;  product         2    4[COMRAM] unsigned int 
  2710 ;; Return value:  Size  Location     Type
  2711 ;;                  2    0[COMRAM] unsigned int 
  2712 ;; Registers used:
  2713 ;;		wreg, status,2, status,0, prodl, prodh
  2714 ;; Tracked objects:
  2715 ;;		On entry : 0/0
  2716 ;;		On exit  : 0/0
  2717 ;;		Unchanged: 0/0
  2718 ;; Data sizes:     COMRAM   BANK5   BANK6   BANK7   BANK8   BANK9  BANK10  BANK11  BANK12  BANK13  BANK14  BANK15  BANK1
      +6  BANK17  BANK18  BANK19  BANK20  BANK21  BANK22  BANK23  BANK24  BANK25  BANK26  BANK27  BANK28  BANK29  BANK30  BANK3
      +1  BANK32  BANK33  BANK34  BANK35  BANK36
  2719 ;;      Params:         4       0       0       0       0       0       0       0       0       0       0       0       
      +0       0       0       0       0       0       0       0       0       0       0       0       0       0       0       
      +0       0       0       0       0       0
  2720 ;;      Locals:         2       0       0       0       0       0       0       0       0       0       0       0       
      +0       0       0       0       0       0       0       0       0       0       0       0       0       0       0       
      +0       0       0       0       0       0
  2721 ;;      Temps:          0       0       0       0       0       0       0       0       0       0       0       0       
      +0       0       0       0       0       0       0       0       0       0       0       0       0       0       0       
      +0       0       0       0       0       0
  2722 ;;      Totals:         6       0       0       0       0       0       0       0       0       0       0       0       
      +0       0       0       0       0       0       0       0       0       0       0       0       0       0       0       
      +0       0       0       0       0       0
  2723 ;;Total ram usage:        6 bytes
  2724 ;; Hardware stack levels used: 1
  2725 ;; This function calls:
  2726 ;;		Nothing
  2727 ;; This function is called by:
  2728 ;;		_FPGA_SetLightBaseCounter
  2729 ;;		_FPGA_SetLightHighCounter
  2730 ;;		_main
  2731 ;; This function uses a non-reentrant model
  2732 ;;
  2733                           
  2734                           	psect	text17
  2735   003294                     __ptext17:
  2736                           	callstack 0
  2737   003294                     ___wmul:
  2738                           	callstack 126
  2739   003294  5001               	movf	___wmul@multiplier^(0+1280),w,c
  2740   003296  0203               	mulwf	___wmul@multiplicand^(0+1280),c
  2741   003298  C4F3 F505          	movff	prodl,___wmul@product
  2742   00329C  C4F4 F506          	movff	prodh,___wmul@product+1
  2743   0032A0  5001               	movf	___wmul@multiplier^(0+1280),w,c
  2744   0032A2  0204               	mulwf	(___wmul@multiplicand+1)^(0+1280),c
  2745   0032A4  50F3               	movf	243,w,c
  2746   0032A6  2606               	addwf	(___wmul@product+1)^(0+1280),f,c
  2747   0032A8  5002               	movf	(___wmul@multiplier+1)^(0+1280),w,c
  2748   0032AA  0203               	mulwf	___wmul@multiplicand^(0+1280),c
  2749   0032AC  50F3               	movf	243,w,c
  2750   0032AE  2606               	addwf	(___wmul@product+1)^(0+1280),f,c
  2751   0032B0  C505  F501         	movff	___wmul@product,?___wmul
  2752   0032B4  C506  F502         	movff	___wmul@product+1,?___wmul+1
  2753   0032B8  0012               	return		;funcret
  2754   0032BA                     __end_of___wmul:
  2755                           	callstack 0
  2756                           
  2757 ;; *************** function _FPGA_LightON *****************
  2758 ;; Defined at:
  2759 ;;		line 256 in file "main.c"
  2760 ;; Parameters:    Size  Location     Type
  2761 ;;  ONMode          1    wreg     _Bool 
  2762 ;; Auto vars:     Size  Location     Type
  2763 ;;  ONMode          1   13[COMRAM] _Bool 
  2764 ;;  data            1   20[COMRAM] unsigned char 
  2765 ;; Return value:  Size  Location     Type
  2766 ;;                  1    wreg      void 
  2767 ;; Registers used:
  2768 ;;		wreg, fsr2l, fsr2h, status,2, status,0, cstack
  2769 ;; Tracked objects:
  2770 ;;		On entry : 0/0
  2771 ;;		On exit  : 0/0
  2772 ;;		Unchanged: 0/0
  2773 ;; Data sizes:     COMRAM   BANK5   BANK6   BANK7   BANK8   BANK9  BANK10  BANK11  BANK12  BANK13  BANK14  BANK15  BANK1
      +6  BANK17  BANK18  BANK19  BANK20  BANK21  BANK22  BANK23  BANK24  BANK25  BANK26  BANK27  BANK28  BANK29  BANK30  BANK3
      +1  BANK32  BANK33  BANK34  BANK35  BANK36
  2774 ;;      Params:         0       0       0       0       0       0       0       0       0       0       0       0       
      +0       0       0       0       0       0       0       0       0       0       0       0       0       0       0       
      +0       0       0       0       0       0
  2775 ;;      Locals:         8       0       0       0       0       0       0       0       0       0       0       0       
      +0       0       0       0       0       0       0       0       0       0       0       0       0       0       0       
      +0       0       0       0       0       0
  2776 ;;      Temps:          0       0       0       0       0       0       0       0       0       0       0       0       
      +0       0       0       0       0       0       0       0       0       0       0       0       0       0       0       
      +0       0       0       0       0       0
  2777 ;;      Totals:         8       0       0       0       0       0       0       0       0       0       0       0       
      +0       0       0       0       0       0       0       0       0       0       0       0       0       0       0       
      +0       0       0       0       0       0
  2778 ;;Total ram usage:        8 bytes
  2779 ;; Hardware stack levels used: 1
  2780 ;; Hardware stack levels required when called: 2
  2781 ;; This function calls:
  2782 ;;		_FPGA_SetBuff
  2783 ;; This function is called by:
  2784 ;;		_main
  2785 ;; This function uses a non-reentrant model
  2786 ;;
  2787                           
  2788                           	psect	text18
  2789   002E66                     __ptext18:
  2790                           	callstack 0
  2791   002E66                     _FPGA_LightON:
  2792                           	callstack 124
  2793                           
  2794                           ;incstack = 0
  2795                           ;FPGA_LightON@ONMode stored from wreg
  2796   002E66  6E0E               	movwf	FPGA_LightON@ONMode^(0+1280),c
  2797   002E68                     
  2798                           ;main.c: 256: void FPGA_LightON(_Bool ONMode);main.c: 257: {;main.c: 258:     unsigned c
      +                          har data;;main.c: 260:     data =((RegTestLED==1)?0x08:0)
  2799   002E68  0449               	decf	_RegPulseOutMode^(0+1280),w,c
  2800   002E6A  B4D8               	btfsc	status,2,c
  2801   002E6C  EF3A  F017         	goto	u1311
  2802   002E70  EF3C  F017         	goto	u1310
  2803   002E74                     u1311:
  2804   002E74  EF42  F017         	goto	l2441
  2805   002E78                     u1310:
  2806   002E78  0E00               	movlw	0
  2807   002E7A  6E10               	movwf	(_FPGA_LightON$1091+1)^(0+1280),c
  2808   002E7C  0E00               	movlw	0
  2809   002E7E  6E0F               	movwf	_FPGA_LightON$1091^(0+1280),c
  2810   002E80  EF46  F017         	goto	l2443
  2811   002E84                     l2441:
  2812   002E84  0E00               	movlw	0
  2813   002E86  6E10               	movwf	(_FPGA_LightON$1091+1)^(0+1280),c
  2814   002E88  0E02               	movlw	2
  2815   002E8A  6E0F               	movwf	_FPGA_LightON$1091^(0+1280),c
  2816   002E8C                     l2443:
  2817   002E8C  040E               	decf	FPGA_LightON@ONMode^(0+1280),w,c
  2818   002E8E  B4D8               	btfsc	status,2,c
  2819   002E90  EF4C  F017         	goto	u1321
  2820   002E94  EF4E  F017         	goto	u1320
  2821   002E98                     u1321:
  2822   002E98  EF54  F017         	goto	l2447
  2823   002E9C                     u1320:
  2824   002E9C  0E00               	movlw	0
  2825   002E9E  6E12               	movwf	(_FPGA_LightON$1092+1)^(0+1280),c
  2826   002EA0  0E00               	movlw	0
  2827   002EA2  6E11               	movwf	_FPGA_LightON$1092^(0+1280),c
  2828   002EA4  EF58  F017         	goto	l2449
  2829   002EA8                     l2447:
  2830   002EA8  0E00               	movlw	0
  2831   002EAA  6E12               	movwf	(_FPGA_LightON$1092+1)^(0+1280),c
  2832   002EAC  0E04               	movlw	4
  2833   002EAE  6E11               	movwf	_FPGA_LightON$1092^(0+1280),c
  2834   002EB0                     l2449:
  2835   002EB0  044B               	decf	_RegTestLED^(0+1280),w,c
  2836   002EB2  B4D8               	btfsc	status,2,c
  2837   002EB4  EF5E  F017         	goto	u1331
  2838   002EB8  EF60  F017         	goto	u1330
  2839   002EBC                     u1331:
  2840   002EBC  EF66  F017         	goto	l2453
  2841   002EC0                     u1330:
  2842   002EC0  0E00               	movlw	0
  2843   002EC2  6E14               	movwf	(_FPGA_LightON$1093+1)^(0+1280),c
  2844   002EC4  0E00               	movlw	0
  2845   002EC6  6E13               	movwf	_FPGA_LightON$1093^(0+1280),c
  2846   002EC8  EF6A  F017         	goto	l2455
  2847   002ECC                     l2453:
  2848   002ECC  0E00               	movlw	0
  2849   002ECE  6E14               	movwf	(_FPGA_LightON$1093+1)^(0+1280),c
  2850   002ED0  0E08               	movlw	8
  2851   002ED2  6E13               	movwf	_FPGA_LightON$1093^(0+1280),c
  2852   002ED4                     l2455:
  2853   002ED4  5013               	movf	_FPGA_LightON$1093^(0+1280),w,c
  2854   002ED6  2411               	addwf	_FPGA_LightON$1092^(0+1280),w,c
  2855   002ED8  240F               	addwf	_FPGA_LightON$1091^(0+1280),w,c
  2856   002EDA  6E15               	movwf	FPGA_LightON@data^(0+1280),c
  2857   002EDC                     
  2858                           ;main.c: 263:     FPGA_SetBuff(2,-1,&data ,1);
  2859   002EDC  0E00               	movlw	0
  2860   002EDE  6E04               	movwf	(FPGA_SetBuff@Cmd+1)^(0+1280),c
  2861   002EE0  0E02               	movlw	2
  2862   002EE2  6E03               	movwf	FPGA_SetBuff@Cmd^(0+1280),c
  2863   002EE4  0EFF               	movlw	255
  2864   002EE6  6E06               	movwf	(FPGA_SetBuff@Address+1)^(0+1280),c
  2865   002EE8  6805               	setf	FPGA_SetBuff@Address^(0+1280),c
  2866   002EEA  0E15               	movlw	low FPGA_LightON@data
  2867   002EEC  6E07               	movwf	FPGA_SetBuff@data^(0+1280),c
  2868   002EEE  0E05               	movlw	high FPGA_LightON@data
  2869   002EF0  6E08               	movwf	(FPGA_SetBuff@data+1)^(0+1280),c
  2870   002EF2  0E00               	movlw	0
  2871   002EF4  6E0A               	movwf	(FPGA_SetBuff@DataLen+1)^(0+1280),c
  2872   002EF6  0E01               	movlw	1
  2873   002EF8  6E09               	movwf	FPGA_SetBuff@DataLen^(0+1280),c
  2874   002EFA  EC1F  F016         	call	_FPGA_SetBuff	;wreg free
  2875   002EFE  0012               	return		;funcret
  2876   002F00                     __end_of_FPGA_LightON:
  2877                           	callstack 0
  2878                           
  2879 ;; *************** function _FPGA_SetBuff *****************
  2880 ;; Defined at:
  2881 ;;		line 186 in file "main.c"
  2882 ;; Parameters:    Size  Location     Type
  2883 ;;  Cmd             2    2[COMRAM] int 
  2884 ;;  Address         2    4[COMRAM] int 
  2885 ;;  data            2    6[COMRAM] PTR unsigned char 
  2886 ;;		 -> main@Buff(16), FPGA_LightON@data(1), FPGA_SetMode@data(1), FPGA_SetLightMask@data(2), 
  2887 ;;		 -> FPGA_SetLightHighCounter@data(2), FPGA_SetLightBaseCounter@data(2), 
  2888 ;;  DataLen         2    8[COMRAM] int 
  2889 ;; Auto vars:     Size  Location     Type
  2890 ;;  i               2   11[COMRAM] int 
  2891 ;; Return value:  Size  Location     Type
  2892 ;;                  1    wreg      void 
  2893 ;; Registers used:
  2894 ;;		wreg, fsr2l, fsr2h, status,2, status,0, cstack
  2895 ;; Tracked objects:
  2896 ;;		On entry : 0/0
  2897 ;;		On exit  : 0/0
  2898 ;;		Unchanged: 0/0
  2899 ;; Data sizes:     COMRAM   BANK5   BANK6   BANK7   BANK8   BANK9  BANK10  BANK11  BANK12  BANK13  BANK14  BANK15  BANK1
      +6  BANK17  BANK18  BANK19  BANK20  BANK21  BANK22  BANK23  BANK24  BANK25  BANK26  BANK27  BANK28  BANK29  BANK30  BANK3
      +1  BANK32  BANK33  BANK34  BANK35  BANK36
  2900 ;;      Params:         8       0       0       0       0       0       0       0       0       0       0       0       
      +0       0       0       0       0       0       0       0       0       0       0       0       0       0       0       
      +0       0       0       0       0       0
  2901 ;;      Locals:         2       0       0       0       0       0       0       0       0       0       0       0       
      +0       0       0       0       0       0       0       0       0       0       0       0       0       0       0       
      +0       0       0       0       0       0
  2902 ;;      Temps:          1       0       0       0       0       0       0       0       0       0       0       0       
      +0       0       0       0       0       0       0       0       0       0       0       0       0       0       0       
      +0       0       0       0       0       0
  2903 ;;      Totals:        11       0       0       0       0       0       0       0       0       0       0       0       
      +0       0       0       0       0       0       0       0       0       0       0       0       0       0       0       
      +0       0       0       0       0       0
  2904 ;;Total ram usage:       11 bytes
  2905 ;; Hardware stack levels used: 1
  2906 ;; Hardware stack levels required when called: 1
  2907 ;; This function calls:
  2908 ;;		_FPGA_CLK
  2909 ;;		_FPGA_CS
  2910 ;;		_FPGA_SetAddress
  2911 ;;		_FPGA_SetCmd
  2912 ;;		_FPGA_SetData
  2913 ;;		_FPGA_SetRW
  2914 ;; This function is called by:
  2915 ;;		_FPGA_SetLightBaseCounter
  2916 ;;		_FPGA_SetLightHighCounter
  2917 ;;		_FPGA_SetLightMask
  2918 ;;		_FPGA_SetMode
  2919 ;;		_FPGA_LightON
  2920 ;;		_main
  2921 ;; This function uses a non-reentrant model
  2922 ;;
  2923                           
  2924                           	psect	text19
  2925   002C3E                     __ptext19:
  2926                           	callstack 0
  2927   002C3E                     _FPGA_SetBuff:
  2928                           	callstack 124
  2929   002C3E                     
  2930                           ;main.c: 186: void FPGA_SetBuff(int Cmd ,int Address ,unsigned char data[] ,int DataLen)
      +                          ;main.c: 187: {;main.c: 188:     int i;;main.c: 190:     FPGA_CS(0);
  2931   002C3E  0E00               	movlw	0
  2932   002C40  6E02               	movwf	(FPGA_CS@d+1)^(0+1280),c
  2933   002C42  0E00               	movlw	0
  2934   002C44  6E01               	movwf	FPGA_CS@d^(0+1280),c
  2935   002C46  ECB2  F019         	call	_FPGA_CS	;wreg free
  2936                           
  2937                           ;main.c: 191:     FPGA_CLK(1);
  2938   002C4A  0E00               	movlw	0
  2939   002C4C  6E02               	movwf	(FPGA_CLK@d+1)^(0+1280),c
  2940   002C4E  0E01               	movlw	1
  2941   002C50  6E01               	movwf	FPGA_CLK@d^(0+1280),c
  2942   002C52  ECBE  F019         	call	_FPGA_CLK	;wreg free
  2943                           
  2944                           ;main.c: 192:     FPGA_CLK(0);
  2945   002C56  0E00               	movlw	0
  2946   002C58  6E02               	movwf	(FPGA_CLK@d+1)^(0+1280),c
  2947   002C5A  0E00               	movlw	0
  2948   002C5C  6E01               	movwf	FPGA_CLK@d^(0+1280),c
  2949   002C5E  ECBE  F019         	call	_FPGA_CLK	;wreg free
  2950   002C62                     
  2951                           ;main.c: 194:     FPGA_SetCmd(Cmd);
  2952   002C62  C503  F501         	movff	FPGA_SetBuff@Cmd,FPGA_SetCmd@Cmd
  2953   002C66  C504  F502         	movff	FPGA_SetBuff@Cmd+1,FPGA_SetCmd@Cmd+1
  2954   002C6A  EC28  F019         	call	_FPGA_SetCmd	;wreg free
  2955   002C6E                     
  2956                           ;main.c: 195:     FPGA_SetAddress(Address);
  2957   002C6E  C505  F501         	movff	FPGA_SetBuff@Address,FPGA_SetAddress@Address
  2958   002C72  C506  F502         	movff	FPGA_SetBuff@Address+1,FPGA_SetAddress@Address+1
  2959   002C76  ECC6  F018         	call	_FPGA_SetAddress	;wreg free
  2960   002C7A                     
  2961                           ;main.c: 196:     FPGA_SetRW(0);
  2962   002C7A  0E00               	movlw	0
  2963   002C7C  6E02               	movwf	(FPGA_SetRW@d+1)^(0+1280),c
  2964   002C7E  0E00               	movlw	0
  2965   002C80  6E01               	movwf	FPGA_SetRW@d^(0+1280),c
  2966   002C82  ECA6  F019         	call	_FPGA_SetRW	;wreg free
  2967   002C86                     
  2968                           ;main.c: 197:     FPGA_CS(1);
  2969   002C86  0E00               	movlw	0
  2970   002C88  6E02               	movwf	(FPGA_CS@d+1)^(0+1280),c
  2971   002C8A  0E01               	movlw	1
  2972   002C8C  6E01               	movwf	FPGA_CS@d^(0+1280),c
  2973   002C8E  ECB2  F019         	call	_FPGA_CS	;wreg free
  2974   002C92                     
  2975                           ;main.c: 198:     for(i=0;i<DataLen;i++){
  2976   002C92  0E00               	movlw	0
  2977   002C94  6E0D               	movwf	(FPGA_SetBuff@i+1)^(0+1280),c
  2978   002C96  0E00               	movlw	0
  2979   002C98  6E0C               	movwf	FPGA_SetBuff@i^(0+1280),c
  2980   002C9A  EF66  F016         	goto	l2279
  2981   002C9E                     l2271:
  2982                           
  2983                           ;main.c: 199:         FPGA_SetData(data[i]);
  2984   002C9E  500C               	movf	FPGA_SetBuff@i^(0+1280),w,c
  2985   002CA0  2407               	addwf	FPGA_SetBuff@data^(0+1280),w,c
  2986   002CA2  6ED9               	movwf	fsr2l,c
  2987   002CA4  500D               	movf	(FPGA_SetBuff@i+1)^(0+1280),w,c
  2988   002CA6  2008               	addwfc	(FPGA_SetBuff@data+1)^(0+1280),w,c
  2989   002CA8  6EDA               	movwf	fsr2h,c
  2990   002CAA  50DF               	movf	indf2,w,c
  2991   002CAC  ECD9  F016         	call	_FPGA_SetData
  2992   002CB0                     
  2993                           ;main.c: 200:         FPGA_CLK(1);
  2994   002CB0  0E00               	movlw	0
  2995   002CB2  6E02               	movwf	(FPGA_CLK@d+1)^(0+1280),c
  2996   002CB4  0E01               	movlw	1
  2997   002CB6  6E01               	movwf	FPGA_CLK@d^(0+1280),c
  2998   002CB8  ECBE  F019         	call	_FPGA_CLK	;wreg free
  2999   002CBC                     
  3000                           ;main.c: 201:         FPGA_CLK(0);
  3001   002CBC  0E00               	movlw	0
  3002   002CBE  6E02               	movwf	(FPGA_CLK@d+1)^(0+1280),c
  3003   002CC0  0E00               	movlw	0
  3004   002CC2  6E01               	movwf	FPGA_CLK@d^(0+1280),c
  3005   002CC4  ECBE  F019         	call	_FPGA_CLK	;wreg free
  3006   002CC8                     
  3007                           ;main.c: 202:     }
  3008   002CC8  4A0C               	infsnz	FPGA_SetBuff@i^(0+1280),f,c
  3009   002CCA  2A0D               	incf	(FPGA_SetBuff@i+1)^(0+1280),f,c
  3010   002CCC                     l2279:
  3011   002CCC  5009               	movf	FPGA_SetBuff@DataLen^(0+1280),w,c
  3012   002CCE  5C0C               	subwf	FPGA_SetBuff@i^(0+1280),w,c
  3013   002CD0  500D               	movf	(FPGA_SetBuff@i+1)^(0+1280),w,c
  3014   002CD2  0A80               	xorlw	128
  3015   002CD4  6E0B               	movwf	??_FPGA_SetBuff^(0+1280),c
  3016   002CD6  500A               	movf	(FPGA_SetBuff@DataLen+1)^(0+1280),w,c
  3017   002CD8  0A80               	xorlw	128
  3018   002CDA  580B               	subwfb	??_FPGA_SetBuff^(0+1280),w,c
  3019   002CDC  A0D8               	btfss	status,0,c
  3020   002CDE  EF73  F016         	goto	u1081
  3021   002CE2  EF75  F016         	goto	u1080
  3022   002CE6                     u1081:
  3023   002CE6  EF4F  F016         	goto	l2271
  3024   002CEA                     u1080:
  3025   002CEA                     
  3026                           ;main.c: 203:     FPGA_CS(0);
  3027   002CEA  0E00               	movlw	0
  3028   002CEC  6E02               	movwf	(FPGA_CS@d+1)^(0+1280),c
  3029   002CEE  0E00               	movlw	0
  3030   002CF0  6E01               	movwf	FPGA_CS@d^(0+1280),c
  3031   002CF2  ECB2  F019         	call	_FPGA_CS	;wreg free
  3032   002CF6  0012               	return		;funcret
  3033   002CF8                     __end_of_FPGA_SetBuff:
  3034                           	callstack 0
  3035                           
  3036 ;; *************** function _FPGA_SetData *****************
  3037 ;; Defined at:
  3038 ;;		line 116 in file "main.c"
  3039 ;; Parameters:    Size  Location     Type
  3040 ;;  d               1    wreg     unsigned char 
  3041 ;; Auto vars:     Size  Location     Type
  3042 ;;  d               1    0[COMRAM] unsigned char 
  3043 ;; Return value:  Size  Location     Type
  3044 ;;                  1    wreg      void 
  3045 ;; Registers used:
  3046 ;;		wreg
  3047 ;; Tracked objects:
  3048 ;;		On entry : 0/0
  3049 ;;		On exit  : 0/0
  3050 ;;		Unchanged: 0/0
  3051 ;; Data sizes:     COMRAM   BANK5   BANK6   BANK7   BANK8   BANK9  BANK10  BANK11  BANK12  BANK13  BANK14  BANK15  BANK1
      +6  BANK17  BANK18  BANK19  BANK20  BANK21  BANK22  BANK23  BANK24  BANK25  BANK26  BANK27  BANK28  BANK29  BANK30  BANK3
      +1  BANK32  BANK33  BANK34  BANK35  BANK36
  3052 ;;      Params:         0       0       0       0       0       0       0       0       0       0       0       0       
      +0       0       0       0       0       0       0       0       0       0       0       0       0       0       0       
      +0       0       0       0       0       0
  3053 ;;      Locals:         1       0       0       0       0       0       0       0       0       0       0       0       
      +0       0       0       0       0       0       0       0       0       0       0       0       0       0       0       
      +0       0       0       0       0       0
  3054 ;;      Temps:          0       0       0       0       0       0       0       0       0       0       0       0       
      +0       0       0       0       0       0       0       0       0       0       0       0       0       0       0       
      +0       0       0       0       0       0
  3055 ;;      Totals:         1       0       0       0       0       0       0       0       0       0       0       0       
      +0       0       0       0       0       0       0       0       0       0       0       0       0       0       0       
      +0       0       0       0       0       0
  3056 ;;Total ram usage:        1 bytes
  3057 ;; Hardware stack levels used: 1
  3058 ;; This function calls:
  3059 ;;		Nothing
  3060 ;; This function is called by:
  3061 ;;		_FPGA_SetBuff
  3062 ;; This function uses a non-reentrant model
  3063 ;;
  3064                           
  3065                           	psect	text20
  3066   002DB2                     __ptext20:
  3067                           	callstack 0
  3068   002DB2                     _FPGA_SetData:
  3069                           	callstack 124
  3070                           
  3071                           ;incstack = 0
  3072                           ;FPGA_SetData@d stored from wreg
  3073   002DB2  6E01               	movwf	FPGA_SetData@d^(0+1280),c
  3074   002DB4                     
  3075                           ;main.c: 116: void FPGA_SetData(unsigned char d);main.c: 117: {;main.c: 118:     if((d&0
      +                          x01)!=0)
  3076   002DB4  A001               	btfss	FPGA_SetData@d^(0+1280),0,c
  3077   002DB6  EFDF  F016         	goto	u921
  3078   002DBA  EFE1  F016         	goto	u920
  3079   002DBE                     u921:
  3080   002DBE  EFE4  F016         	goto	l605
  3081   002DC2                     u920:
  3082   002DC2  80C1               	bsf	193,0,c	;volatile
  3083   002DC4  EFE5  F016         	goto	l2141
  3084   002DC8                     l605:
  3085   002DC8  90C1               	bcf	193,0,c	;volatile
  3086   002DCA                     l2141:
  3087                           
  3088                           ;main.c: 122:     if((d&0x02)!=0)
  3089   002DCA  A201               	btfss	FPGA_SetData@d^(0+1280),1,c
  3090   002DCC  EFEA  F016         	goto	u931
  3091   002DD0  EFEC  F016         	goto	u930
  3092   002DD4                     u931:
  3093   002DD4  EFEF  F016         	goto	l611
  3094   002DD8                     u930:
  3095   002DD8  82C1               	bsf	193,1,c	;volatile
  3096   002DDA  EFF0  F016         	goto	l2143
  3097   002DDE                     l611:
  3098   002DDE  92C1               	bcf	193,1,c	;volatile
  3099   002DE0                     l2143:
  3100                           
  3101                           ;main.c: 126:     if((d&0x04)!=0)
  3102   002DE0  A401               	btfss	FPGA_SetData@d^(0+1280),2,c
  3103   002DE2  EFF5  F016         	goto	u941
  3104   002DE6  EFF7  F016         	goto	u940
  3105   002DEA                     u941:
  3106   002DEA  EFFA  F016         	goto	l617
  3107   002DEE                     u940:
  3108   002DEE  84C1               	bsf	193,2,c	;volatile
  3109   002DF0  EFFB  F016         	goto	l2145
  3110   002DF4                     l617:
  3111   002DF4  94C1               	bcf	193,2,c	;volatile
  3112   002DF6                     l2145:
  3113                           
  3114                           ;main.c: 130:     if((d&0x08)!=0)
  3115   002DF6  A601               	btfss	FPGA_SetData@d^(0+1280),3,c
  3116   002DF8  EF00  F017         	goto	u951
  3117   002DFC  EF02  F017         	goto	u950
  3118   002E00                     u951:
  3119   002E00  EF05  F017         	goto	l623
  3120   002E04                     u950:
  3121   002E04  86C1               	bsf	193,3,c	;volatile
  3122   002E06  EF06  F017         	goto	l2147
  3123   002E0A                     l623:
  3124   002E0A  96C1               	bcf	193,3,c	;volatile
  3125   002E0C                     l2147:
  3126                           
  3127                           ;main.c: 134:     if((d&0x10)!=0)
  3128   002E0C  A801               	btfss	FPGA_SetData@d^(0+1280),4,c
  3129   002E0E  EF0B  F017         	goto	u961
  3130   002E12  EF0D  F017         	goto	u960
  3131   002E16                     u961:
  3132   002E16  EF10  F017         	goto	l629
  3133   002E1A                     u960:
  3134   002E1A  88C1               	bsf	193,4,c	;volatile
  3135   002E1C  EF11  F017         	goto	l2149
  3136   002E20                     l629:
  3137   002E20  98C1               	bcf	193,4,c	;volatile
  3138   002E22                     l2149:
  3139                           
  3140                           ;main.c: 138:     if((d&0x20)!=0)
  3141   002E22  AA01               	btfss	FPGA_SetData@d^(0+1280),5,c
  3142   002E24  EF16  F017         	goto	u971
  3143   002E28  EF18  F017         	goto	u970
  3144   002E2C                     u971:
  3145   002E2C  EF1B  F017         	goto	l635
  3146   002E30                     u970:
  3147   002E30  8AC1               	bsf	193,5,c	;volatile
  3148   002E32  EF1C  F017         	goto	l2151
  3149   002E36                     l635:
  3150   002E36  9AC1               	bcf	193,5,c	;volatile
  3151   002E38                     l2151:
  3152                           
  3153                           ;main.c: 142:     if((d&0x40)!=0)
  3154   002E38  AC01               	btfss	FPGA_SetData@d^(0+1280),6,c
  3155   002E3A  EF21  F017         	goto	u981
  3156   002E3E  EF23  F017         	goto	u980
  3157   002E42                     u981:
  3158   002E42  EF26  F017         	goto	l641
  3159   002E46                     u980:
  3160   002E46  8CC1               	bsf	193,6,c	;volatile
  3161   002E48  EF27  F017         	goto	l2153
  3162   002E4C                     l641:
  3163   002E4C  9CC1               	bcf	193,6,c	;volatile
  3164   002E4E                     l2153:
  3165                           
  3166                           ;main.c: 146:     if((d&0x80)!=0)
  3167   002E4E  AE01               	btfss	FPGA_SetData@d^(0+1280),7,c
  3168   002E50  EF2C  F017         	goto	u991
  3169   002E54  EF2E  F017         	goto	u990
  3170   002E58                     u991:
  3171   002E58  EF31  F017         	goto	l647
  3172   002E5C                     u990:
  3173   002E5C  8EC1               	bsf	193,7,c	;volatile
  3174   002E5E  EF32  F017         	goto	l649
  3175   002E62                     l647:
  3176   002E62  9EC1               	bcf	193,7,c	;volatile
  3177   002E64                     l649:
  3178   002E64  0012               	return		;funcret
  3179   002E66                     __end_of_FPGA_SetData:
  3180                           	callstack 0
  3181                           
  3182 ;; *************** function _FPGA_GetBuff *****************
  3183 ;; Defined at:
  3184 ;;		line 167 in file "main.c"
  3185 ;; Parameters:    Size  Location     Type
  3186 ;;  Cmd             2   15[COMRAM] int 
  3187 ;;  Address         2   17[COMRAM] int 
  3188 ;;  data            2   19[COMRAM] PTR unsigned char 
  3189 ;;		 -> main@Buff(16), 
  3190 ;;  DataLen         2   21[COMRAM] int 
  3191 ;; Auto vars:     Size  Location     Type
  3192 ;;  i               2   24[COMRAM] int 
  3193 ;; Return value:  Size  Location     Type
  3194 ;;                  1    wreg      void 
  3195 ;; Registers used:
  3196 ;;		wreg, fsr2l, fsr2h, status,2, status,0, cstack
  3197 ;; Tracked objects:
  3198 ;;		On entry : 0/0
  3199 ;;		On exit  : 0/0
  3200 ;;		Unchanged: 0/0
  3201 ;; Data sizes:     COMRAM   BANK5   BANK6   BANK7   BANK8   BANK9  BANK10  BANK11  BANK12  BANK13  BANK14  BANK15  BANK1
      +6  BANK17  BANK18  BANK19  BANK20  BANK21  BANK22  BANK23  BANK24  BANK25  BANK26  BANK27  BANK28  BANK29  BANK30  BANK3
      +1  BANK32  BANK33  BANK34  BANK35  BANK36
  3202 ;;      Params:         8       0       0       0       0       0       0       0       0       0       0       0       
      +0       0       0       0       0       0       0       0       0       0       0       0       0       0       0       
      +0       0       0       0       0       0
  3203 ;;      Locals:         2       0       0       0       0       0       0       0       0       0       0       0       
      +0       0       0       0       0       0       0       0       0       0       0       0       0       0       0       
      +0       0       0       0       0       0
  3204 ;;      Temps:          1       0       0       0       0       0       0       0       0       0       0       0       
      +0       0       0       0       0       0       0       0       0       0       0       0       0       0       0       
      +0       0       0       0       0       0
  3205 ;;      Totals:        11       0       0       0       0       0       0       0       0       0       0       0       
      +0       0       0       0       0       0       0       0       0       0       0       0       0       0       0       
      +0       0       0       0       0       0
  3206 ;;Total ram usage:       11 bytes
  3207 ;; Hardware stack levels used: 1
  3208 ;; Hardware stack levels required when called: 1
  3209 ;; This function calls:
  3210 ;;		_FPGA_CLK
  3211 ;;		_FPGA_CS
  3212 ;;		_FPGA_GetData
  3213 ;;		_FPGA_SetAddress
  3214 ;;		_FPGA_SetCmd
  3215 ;;		_FPGA_SetRW
  3216 ;; This function is called by:
  3217 ;;		_main
  3218 ;; This function uses a non-reentrant model
  3219 ;;
  3220                           
  3221                           	psect	text21
  3222   002CF8                     __ptext21:
  3223                           	callstack 0
  3224   002CF8                     _FPGA_GetBuff:
  3225                           	callstack 125
  3226   002CF8                     
  3227                           ;main.c: 167: void FPGA_GetBuff(int Cmd ,int Address ,unsigned char data[] ,int DataLen)
      +                          ;main.c: 168: {;main.c: 169:     int i;;main.c: 171:     FPGA_CS(0);
  3228   002CF8  0E00               	movlw	0
  3229   002CFA  6E02               	movwf	(FPGA_CS@d+1)^(0+1280),c
  3230   002CFC  0E00               	movlw	0
  3231   002CFE  6E01               	movwf	FPGA_CS@d^(0+1280),c
  3232   002D00  ECB2  F019         	call	_FPGA_CS	;wreg free
  3233                           
  3234                           ;main.c: 172:     FPGA_CLK(1);
  3235   002D04  0E00               	movlw	0
  3236   002D06  6E02               	movwf	(FPGA_CLK@d+1)^(0+1280),c
  3237   002D08  0E01               	movlw	1
  3238   002D0A  6E01               	movwf	FPGA_CLK@d^(0+1280),c
  3239   002D0C  ECBE  F019         	call	_FPGA_CLK	;wreg free
  3240                           
  3241                           ;main.c: 173:     FPGA_CLK(0);
  3242   002D10  0E00               	movlw	0
  3243   002D12  6E02               	movwf	(FPGA_CLK@d+1)^(0+1280),c
  3244   002D14  0E00               	movlw	0
  3245   002D16  6E01               	movwf	FPGA_CLK@d^(0+1280),c
  3246   002D18  ECBE  F019         	call	_FPGA_CLK	;wreg free
  3247   002D1C                     
  3248                           ;main.c: 175:     FPGA_SetCmd(Cmd);
  3249   002D1C  C510  F501         	movff	FPGA_GetBuff@Cmd,FPGA_SetCmd@Cmd
  3250   002D20  C511  F502         	movff	FPGA_GetBuff@Cmd+1,FPGA_SetCmd@Cmd+1
  3251   002D24  EC28  F019         	call	_FPGA_SetCmd	;wreg free
  3252   002D28                     
  3253                           ;main.c: 176:     FPGA_SetAddress(Address);
  3254   002D28  C512  F501         	movff	FPGA_GetBuff@Address,FPGA_SetAddress@Address
  3255   002D2C  C513  F502         	movff	FPGA_GetBuff@Address+1,FPGA_SetAddress@Address+1
  3256   002D30  ECC6  F018         	call	_FPGA_SetAddress	;wreg free
  3257   002D34                     
  3258                           ;main.c: 177:     FPGA_SetRW(1);
  3259   002D34  0E00               	movlw	0
  3260   002D36  6E02               	movwf	(FPGA_SetRW@d+1)^(0+1280),c
  3261   002D38  0E01               	movlw	1
  3262   002D3A  6E01               	movwf	FPGA_SetRW@d^(0+1280),c
  3263   002D3C  ECA6  F019         	call	_FPGA_SetRW	;wreg free
  3264   002D40                     
  3265                           ;main.c: 178:     FPGA_CS(1);
  3266   002D40  0E00               	movlw	0
  3267   002D42  6E02               	movwf	(FPGA_CS@d+1)^(0+1280),c
  3268   002D44  0E01               	movlw	1
  3269   002D46  6E01               	movwf	FPGA_CS@d^(0+1280),c
  3270   002D48  ECB2  F019         	call	_FPGA_CS	;wreg free
  3271   002D4C                     
  3272                           ;main.c: 179:     for(i=0;i<DataLen;i++){
  3273   002D4C  0E00               	movlw	0
  3274   002D4E  6E1A               	movwf	(FPGA_GetBuff@i+1)^(0+1280),c
  3275   002D50  0E00               	movlw	0
  3276   002D52  6E19               	movwf	FPGA_GetBuff@i^(0+1280),c
  3277   002D54  EFC3  F016         	goto	l2313
  3278   002D58                     l2307:
  3279                           
  3280                           ;main.c: 180:         FPGA_CLK(1);
  3281   002D58  0E00               	movlw	0
  3282   002D5A  6E02               	movwf	(FPGA_CLK@d+1)^(0+1280),c
  3283   002D5C  0E01               	movlw	1
  3284   002D5E  6E01               	movwf	FPGA_CLK@d^(0+1280),c
  3285   002D60  ECBE  F019         	call	_FPGA_CLK	;wreg free
  3286                           
  3287                           ;main.c: 181:         FPGA_CLK(0);
  3288   002D64  0E00               	movlw	0
  3289   002D66  6E02               	movwf	(FPGA_CLK@d+1)^(0+1280),c
  3290   002D68  0E00               	movlw	0
  3291   002D6A  6E01               	movwf	FPGA_CLK@d^(0+1280),c
  3292   002D6C  ECBE  F019         	call	_FPGA_CLK	;wreg free
  3293   002D70                     
  3294                           ;main.c: 182:         data[i]=FPGA_GetData();
  3295   002D70  5019               	movf	FPGA_GetBuff@i^(0+1280),w,c
  3296   002D72  2414               	addwf	FPGA_GetBuff@data^(0+1280),w,c
  3297   002D74  6ED9               	movwf	fsr2l,c
  3298   002D76  501A               	movf	(FPGA_GetBuff@i+1)^(0+1280),w,c
  3299   002D78  2015               	addwfc	(FPGA_GetBuff@data+1)^(0+1280),w,c
  3300   002D7A  6EDA               	movwf	fsr2h,c
  3301   002D7C  EC36  F015         	call	_FPGA_GetData	;wreg free
  3302   002D80  6EDF               	movwf	indf2,c
  3303   002D82                     
  3304                           ;main.c: 183:     }
  3305   002D82  4A19               	infsnz	FPGA_GetBuff@i^(0+1280),f,c
  3306   002D84  2A1A               	incf	(FPGA_GetBuff@i+1)^(0+1280),f,c
  3307   002D86                     l2313:
  3308   002D86  5016               	movf	FPGA_GetBuff@DataLen^(0+1280),w,c
  3309   002D88  5C19               	subwf	FPGA_GetBuff@i^(0+1280),w,c
  3310   002D8A  501A               	movf	(FPGA_GetBuff@i+1)^(0+1280),w,c
  3311   002D8C  0A80               	xorlw	128
  3312   002D8E  6E18               	movwf	??_FPGA_GetBuff^(0+1280),c
  3313   002D90  5017               	movf	(FPGA_GetBuff@DataLen+1)^(0+1280),w,c
  3314   002D92  0A80               	xorlw	128
  3315   002D94  5818               	subwfb	??_FPGA_GetBuff^(0+1280),w,c
  3316   002D96  A0D8               	btfss	status,0,c
  3317   002D98  EFD0  F016         	goto	u1091
  3318   002D9C  EFD2  F016         	goto	u1090
  3319   002DA0                     u1091:
  3320   002DA0  EFAC  F016         	goto	l2307
  3321   002DA4                     u1090:
  3322   002DA4                     
  3323                           ;main.c: 184:     FPGA_CS(0);
  3324   002DA4  0E00               	movlw	0
  3325   002DA6  6E02               	movwf	(FPGA_CS@d+1)^(0+1280),c
  3326   002DA8  0E00               	movlw	0
  3327   002DAA  6E01               	movwf	FPGA_CS@d^(0+1280),c
  3328   002DAC  ECB2  F019         	call	_FPGA_CS	;wreg free
  3329   002DB0  0012               	return		;funcret
  3330   002DB2                     __end_of_FPGA_GetBuff:
  3331                           	callstack 0
  3332                           
  3333 ;; *************** function _FPGA_SetRW *****************
  3334 ;; Defined at:
  3335 ;;		line 108 in file "main.c"
  3336 ;; Parameters:    Size  Location     Type
  3337 ;;  d               2    0[COMRAM] int 
  3338 ;; Auto vars:     Size  Location     Type
  3339 ;;		None
  3340 ;; Return value:  Size  Location     Type
  3341 ;;                  1    wreg      void 
  3342 ;; Registers used:
  3343 ;;		None
  3344 ;; Tracked objects:
  3345 ;;		On entry : 0/0
  3346 ;;		On exit  : 0/0
  3347 ;;		Unchanged: 0/0
  3348 ;; Data sizes:     COMRAM   BANK5   BANK6   BANK7   BANK8   BANK9  BANK10  BANK11  BANK12  BANK13  BANK14  BANK15  BANK1
      +6  BANK17  BANK18  BANK19  BANK20  BANK21  BANK22  BANK23  BANK24  BANK25  BANK26  BANK27  BANK28  BANK29  BANK30  BANK3
      +1  BANK32  BANK33  BANK34  BANK35  BANK36
  3349 ;;      Params:         2       0       0       0       0       0       0       0       0       0       0       0       
      +0       0       0       0       0       0       0       0       0       0       0       0       0       0       0       
      +0       0       0       0       0       0
  3350 ;;      Locals:         0       0       0       0       0       0       0       0       0       0       0       0       
      +0       0       0       0       0       0       0       0       0       0       0       0       0       0       0       
      +0       0       0       0       0       0
  3351 ;;      Temps:          0       0       0       0       0       0       0       0       0       0       0       0       
      +0       0       0       0       0       0       0       0       0       0       0       0       0       0       0       
      +0       0       0       0       0       0
  3352 ;;      Totals:         2       0       0       0       0       0       0       0       0       0       0       0       
      +0       0       0       0       0       0       0       0       0       0       0       0       0       0       0       
      +0       0       0       0       0       0
  3353 ;;Total ram usage:        2 bytes
  3354 ;; Hardware stack levels used: 1
  3355 ;; This function calls:
  3356 ;;		Nothing
  3357 ;; This function is called by:
  3358 ;;		_FPGA_GetBuff
  3359 ;;		_FPGA_SetBuff
  3360 ;;		_main
  3361 ;; This function uses a non-reentrant model
  3362 ;;
  3363                           
  3364                           	psect	text22
  3365   00334C                     __ptext22:
  3366                           	callstack 0
  3367   00334C                     _FPGA_SetRW:
  3368                           	callstack 126
  3369   00334C                     
  3370                           ;main.c: 108: void FPGA_SetRW(int d);main.c: 109: {;main.c: 110:     if((d&0x01)!=0)
  3371   00334C  A001               	btfss	FPGA_SetRW@d^(0+1280),0,c
  3372   00334E  EFAB  F019         	goto	u911
  3373   003352  EFAD  F019         	goto	u910
  3374   003356                     u911:
  3375   003356  EFB0  F019         	goto	l596
  3376   00335A                     u910:
  3377   00335A  84C2               	bsf	194,2,c	;volatile
  3378   00335C  EFB1  F019         	goto	l598
  3379   003360                     l596:
  3380   003360  94C2               	bcf	194,2,c	;volatile
  3381   003362                     l598:
  3382   003362  0012               	return		;funcret
  3383   003364                     __end_of_FPGA_SetRW:
  3384                           	callstack 0
  3385                           
  3386 ;; *************** function _FPGA_SetCmd *****************
  3387 ;; Defined at:
  3388 ;;		line 56 in file "main.c"
  3389 ;; Parameters:    Size  Location     Type
  3390 ;;  Cmd             2    0[COMRAM] int 
  3391 ;; Auto vars:     Size  Location     Type
  3392 ;;		None
  3393 ;; Return value:  Size  Location     Type
  3394 ;;                  1    wreg      void 
  3395 ;; Registers used:
  3396 ;;		None
  3397 ;; Tracked objects:
  3398 ;;		On entry : 0/0
  3399 ;;		On exit  : 0/0
  3400 ;;		Unchanged: 0/0
  3401 ;; Data sizes:     COMRAM   BANK5   BANK6   BANK7   BANK8   BANK9  BANK10  BANK11  BANK12  BANK13  BANK14  BANK15  BANK1
      +6  BANK17  BANK18  BANK19  BANK20  BANK21  BANK22  BANK23  BANK24  BANK25  BANK26  BANK27  BANK28  BANK29  BANK30  BANK3
      +1  BANK32  BANK33  BANK34  BANK35  BANK36
  3402 ;;      Params:         2       0       0       0       0       0       0       0       0       0       0       0       
      +0       0       0       0       0       0       0       0       0       0       0       0       0       0       0       
      +0       0       0       0       0       0
  3403 ;;      Locals:         0       0       0       0       0       0       0       0       0       0       0       0       
      +0       0       0       0       0       0       0       0       0       0       0       0       0       0       0       
      +0       0       0       0       0       0
  3404 ;;      Temps:          0       0       0       0       0       0       0       0       0       0       0       0       
      +0       0       0       0       0       0       0       0       0       0       0       0       0       0       0       
      +0       0       0       0       0       0
  3405 ;;      Totals:         2       0       0       0       0       0       0       0       0       0       0       0       
      +0       0       0       0       0       0       0       0       0       0       0       0       0       0       0       
      +0       0       0       0       0       0
  3406 ;;Total ram usage:        2 bytes
  3407 ;; Hardware stack levels used: 1
  3408 ;; This function calls:
  3409 ;;		Nothing
  3410 ;; This function is called by:
  3411 ;;		_FPGA_GetBuff
  3412 ;;		_FPGA_SetBuff
  3413 ;; This function uses a non-reentrant model
  3414 ;;
  3415                           
  3416                           	psect	text23
  3417   003250                     __ptext23:
  3418                           	callstack 0
  3419   003250                     _FPGA_SetCmd:
  3420                           	callstack 124
  3421   003250                     
  3422                           ;main.c: 56: void FPGA_SetCmd(int Cmd);main.c: 57: {;main.c: 58:     if((Cmd&0x01)!=0)
  3423   003250  A001               	btfss	FPGA_SetCmd@Cmd^(0+1280),0,c
  3424   003252  EF2D  F019         	goto	u811
  3425   003256  EF2F  F019         	goto	u810
  3426   00325A                     u811:
  3427   00325A  EF32  F019         	goto	l529
  3428   00325E                     u810:
  3429   00325E  86BE               	bsf	190,3,c	;volatile
  3430   003260  EF33  F019         	goto	l528
  3431   003264                     l529:
  3432   003264  96BE               	bcf	190,3,c	;volatile
  3433   003266                     l528:
  3434                           
  3435                           ;main.c: 62:     if((Cmd&0x02)!=0)
  3436   003266  A201               	btfss	FPGA_SetCmd@Cmd^(0+1280),1,c
  3437   003268  EF38  F019         	goto	u821
  3438   00326C  EF3A  F019         	goto	u820
  3439   003270                     u821:
  3440   003270  EF3D  F019         	goto	l535
  3441   003274                     u820:
  3442   003274  88BE               	bsf	190,4,c	;volatile
  3443   003276  EF3E  F019         	goto	l534
  3444   00327A                     l535:
  3445   00327A  98BE               	bcf	190,4,c	;volatile
  3446   00327C                     l534:
  3447                           
  3448                           ;main.c: 66:     if((Cmd&0x04)!=0)
  3449   00327C  A401               	btfss	FPGA_SetCmd@Cmd^(0+1280),2,c
  3450   00327E  EF43  F019         	goto	u831
  3451   003282  EF45  F019         	goto	u830
  3452   003286                     u831:
  3453   003286  EF48  F019         	goto	l541
  3454   00328A                     u830:
  3455   00328A  8ABE               	bsf	190,5,c	;volatile
  3456   00328C  EF49  F019         	goto	l543
  3457   003290                     l541:
  3458   003290  9ABE               	bcf	190,5,c	;volatile
  3459   003292                     l543:
  3460   003292  0012               	return		;funcret
  3461   003294                     __end_of_FPGA_SetCmd:
  3462                           	callstack 0
  3463                           
  3464 ;; *************** function _FPGA_SetAddress *****************
  3465 ;; Defined at:
  3466 ;;		line 72 in file "main.c"
  3467 ;; Parameters:    Size  Location     Type
  3468 ;;  Address         2    0[COMRAM] int 
  3469 ;; Auto vars:     Size  Location     Type
  3470 ;;		None
  3471 ;; Return value:  Size  Location     Type
  3472 ;;                  1    wreg      void 
  3473 ;; Registers used:
  3474 ;;		wreg, status,2, status,0
  3475 ;; Tracked objects:
  3476 ;;		On entry : 0/0
  3477 ;;		On exit  : 0/0
  3478 ;;		Unchanged: 0/0
  3479 ;; Data sizes:     COMRAM   BANK5   BANK6   BANK7   BANK8   BANK9  BANK10  BANK11  BANK12  BANK13  BANK14  BANK15  BANK1
      +6  BANK17  BANK18  BANK19  BANK20  BANK21  BANK22  BANK23  BANK24  BANK25  BANK26  BANK27  BANK28  BANK29  BANK30  BANK3
      +1  BANK32  BANK33  BANK34  BANK35  BANK36
  3480 ;;      Params:         2       0       0       0       0       0       0       0       0       0       0       0       
      +0       0       0       0       0       0       0       0       0       0       0       0       0       0       0       
      +0       0       0       0       0       0
  3481 ;;      Locals:         0       0       0       0       0       0       0       0       0       0       0       0       
      +0       0       0       0       0       0       0       0       0       0       0       0       0       0       0       
      +0       0       0       0       0       0
  3482 ;;      Temps:          0       0       0       0       0       0       0       0       0       0       0       0       
      +0       0       0       0       0       0       0       0       0       0       0       0       0       0       0       
      +0       0       0       0       0       0
  3483 ;;      Totals:         2       0       0       0       0       0       0       0       0       0       0       0       
      +0       0       0       0       0       0       0       0       0       0       0       0       0       0       0       
      +0       0       0       0       0       0
  3484 ;;Total ram usage:        2 bytes
  3485 ;; Hardware stack levels used: 1
  3486 ;; This function calls:
  3487 ;;		Nothing
  3488 ;; This function is called by:
  3489 ;;		_FPGA_GetBuff
  3490 ;;		_FPGA_SetBuff
  3491 ;; This function uses a non-reentrant model
  3492 ;;
  3493                           
  3494                           	psect	text24
  3495   00318C                     __ptext24:
  3496                           	callstack 0
  3497   00318C                     _FPGA_SetAddress:
  3498                           	callstack 124
  3499   00318C                     
  3500                           ;main.c: 72: void FPGA_SetAddress(int Address);main.c: 73: {;main.c: 74:     if(Address>
      +                          =0){
  3501   00318C  BE02               	btfsc	(FPGA_SetAddress@Address+1)^(0+1280),7,c
  3502   00318E  EFCB  F018         	goto	u841
  3503   003192  EFCD  F018         	goto	u840
  3504   003196                     u841:
  3505   003196  EFF9  F018         	goto	l571
  3506   00319A                     u840:
  3507   00319A                     
  3508                           ;main.c: 75:         if((Address&0x01)!=0)
  3509   00319A  A001               	btfss	FPGA_SetAddress@Address^(0+1280),0,c
  3510   00319C  EFD2  F018         	goto	u851
  3511   0031A0  EFD4  F018         	goto	u850
  3512   0031A4                     u851:
  3513   0031A4  EFD7  F018         	goto	l551
  3514   0031A8                     u850:
  3515   0031A8  82BE               	bsf	190,1,c	;volatile
  3516   0031AA  EFD8  F018         	goto	l550
  3517   0031AE                     l551:
  3518   0031AE  92BE               	bcf	190,1,c	;volatile
  3519   0031B0                     l550:
  3520                           
  3521                           ;main.c: 79:         if((Address&0x02)!=0)
  3522   0031B0  A201               	btfss	FPGA_SetAddress@Address^(0+1280),1,c
  3523   0031B2  EFDD  F018         	goto	u861
  3524   0031B6  EFDF  F018         	goto	u860
  3525   0031BA                     u861:
  3526   0031BA  EFE2  F018         	goto	l557
  3527   0031BE                     u860:
  3528   0031BE  80C0               	bsf	192,0,c	;volatile
  3529   0031C0  EFE3  F018         	goto	l556
  3530   0031C4                     l557:
  3531   0031C4  90C0               	bcf	192,0,c	;volatile
  3532   0031C6                     l556:
  3533                           
  3534                           ;main.c: 83:         if((Address&0x04)!=0)
  3535   0031C6  A401               	btfss	FPGA_SetAddress@Address^(0+1280),2,c
  3536   0031C8  EFE8  F018         	goto	u871
  3537   0031CC  EFEA  F018         	goto	u870
  3538   0031D0                     u871:
  3539   0031D0  EFED  F018         	goto	l563
  3540   0031D4                     u870:
  3541   0031D4  82C0               	bsf	192,1,c	;volatile
  3542   0031D6  EFEE  F018         	goto	l562
  3543   0031DA                     l563:
  3544   0031DA  92C0               	bcf	192,1,c	;volatile
  3545   0031DC                     l562:
  3546                           
  3547                           ;main.c: 87:         if((Address&0x08)!=0)
  3548   0031DC  A601               	btfss	FPGA_SetAddress@Address^(0+1280),3,c
  3549   0031DE  EFF3  F018         	goto	u881
  3550   0031E2  EFF5  F018         	goto	u880
  3551   0031E6                     u881:
  3552   0031E6  EFF8  F018         	goto	l569
  3553   0031EA                     u880:
  3554   0031EA  84C0               	bsf	192,2,c	;volatile
  3555   0031EC  EFF9  F018         	goto	l571
  3556   0031F0                     l569:
  3557   0031F0  94C0               	bcf	192,2,c	;volatile
  3558   0031F2                     l571:
  3559   0031F2  0012               	return		;funcret
  3560   0031F4                     __end_of_FPGA_SetAddress:
  3561                           	callstack 0
  3562                           
  3563 ;; *************** function _FPGA_GetData *****************
  3564 ;; Defined at:
  3565 ;;		line 151 in file "main.c"
  3566 ;; Parameters:    Size  Location     Type
  3567 ;;		None
  3568 ;; Auto vars:     Size  Location     Type
  3569 ;;  d               1   14[COMRAM] unsigned char 
  3570 ;; Return value:  Size  Location     Type
  3571 ;;                  1    wreg      unsigned char 
  3572 ;; Registers used:
  3573 ;;		wreg, status,2, status,0
  3574 ;; Tracked objects:
  3575 ;;		On entry : 0/0
  3576 ;;		On exit  : 0/0
  3577 ;;		Unchanged: 0/0
  3578 ;; Data sizes:     COMRAM   BANK5   BANK6   BANK7   BANK8   BANK9  BANK10  BANK11  BANK12  BANK13  BANK14  BANK15  BANK1
      +6  BANK17  BANK18  BANK19  BANK20  BANK21  BANK22  BANK23  BANK24  BANK25  BANK26  BANK27  BANK28  BANK29  BANK30  BANK3
      +1  BANK32  BANK33  BANK34  BANK35  BANK36
  3579 ;;      Params:         0       0       0       0       0       0       0       0       0       0       0       0       
      +0       0       0       0       0       0       0       0       0       0       0       0       0       0       0       
      +0       0       0       0       0       0
  3580 ;;      Locals:        15       0       0       0       0       0       0       0       0       0       0       0       
      +0       0       0       0       0       0       0       0       0       0       0       0       0       0       0       
      +0       0       0       0       0       0
  3581 ;;      Temps:          0       0       0       0       0       0       0       0       0       0       0       0       
      +0       0       0       0       0       0       0       0       0       0       0       0       0       0       0       
      +0       0       0       0       0       0
  3582 ;;      Totals:        15       0       0       0       0       0       0       0       0       0       0       0       
      +0       0       0       0       0       0       0       0       0       0       0       0       0       0       0       
      +0       0       0       0       0       0
  3583 ;;Total ram usage:       15 bytes
  3584 ;; Hardware stack levels used: 1
  3585 ;; This function calls:
  3586 ;;		Nothing
  3587 ;; This function is called by:
  3588 ;;		_FPGA_GetBuff
  3589 ;; This function uses a non-reentrant model
  3590 ;;
  3591                           
  3592                           	psect	text25
  3593   002A6C                     __ptext25:
  3594                           	callstack 0
  3595   002A6C                     _FPGA_GetData:
  3596                           	callstack 125
  3597   002A6C                     
  3598                           ;main.c: 155:     d=((PORTFbits.RF0!=0)?0x01:0)
  3599   002A6C  BED3               	btfsc	211,7,c	;volatile
  3600   002A6E  EF3B  F015         	goto	u1001
  3601   002A72  EF3D  F015         	goto	u1000
  3602   002A76                     u1001:
  3603   002A76  EF43  F015         	goto	l2215
  3604   002A7A                     u1000:
  3605   002A7A  0E00               	movlw	0
  3606   002A7C  6E02               	movwf	(_FPGA_GetData$1031+1)^(0+1280),c
  3607   002A7E  0E00               	movlw	0
  3608   002A80  6E01               	movwf	_FPGA_GetData$1031^(0+1280),c
  3609   002A82  EF47  F015         	goto	l2217
  3610   002A86                     l2215:
  3611   002A86  0E00               	movlw	0
  3612   002A88  6E02               	movwf	(_FPGA_GetData$1031+1)^(0+1280),c
  3613   002A8A  0E80               	movlw	128
  3614   002A8C  6E01               	movwf	_FPGA_GetData$1031^(0+1280),c
  3615   002A8E                     l2217:
  3616   002A8E  BCD3               	btfsc	211,6,c	;volatile
  3617   002A90  EF4C  F015         	goto	u1011
  3618   002A94  EF4E  F015         	goto	u1010
  3619   002A98                     u1011:
  3620   002A98  EF54  F015         	goto	l2221
  3621   002A9C                     u1010:
  3622   002A9C  0E00               	movlw	0
  3623   002A9E  6E04               	movwf	(_FPGA_GetData$1032+1)^(0+1280),c
  3624   002AA0  0E00               	movlw	0
  3625   002AA2  6E03               	movwf	_FPGA_GetData$1032^(0+1280),c
  3626   002AA4  EF58  F015         	goto	l2223
  3627   002AA8                     l2221:
  3628   002AA8  0E00               	movlw	0
  3629   002AAA  6E04               	movwf	(_FPGA_GetData$1032+1)^(0+1280),c
  3630   002AAC  0E40               	movlw	64
  3631   002AAE  6E03               	movwf	_FPGA_GetData$1032^(0+1280),c
  3632   002AB0                     l2223:
  3633   002AB0  BAD3               	btfsc	211,5,c	;volatile
  3634   002AB2  EF5D  F015         	goto	u1021
  3635   002AB6  EF5F  F015         	goto	u1020
  3636   002ABA                     u1021:
  3637   002ABA  EF65  F015         	goto	l2227
  3638   002ABE                     u1020:
  3639   002ABE  0E00               	movlw	0
  3640   002AC0  6E06               	movwf	(_FPGA_GetData$1033+1)^(0+1280),c
  3641   002AC2  0E00               	movlw	0
  3642   002AC4  6E05               	movwf	_FPGA_GetData$1033^(0+1280),c
  3643   002AC6  EF69  F015         	goto	l2229
  3644   002ACA                     l2227:
  3645   002ACA  0E00               	movlw	0
  3646   002ACC  6E06               	movwf	(_FPGA_GetData$1033+1)^(0+1280),c
  3647   002ACE  0E20               	movlw	32
  3648   002AD0  6E05               	movwf	_FPGA_GetData$1033^(0+1280),c
  3649   002AD2                     l2229:
  3650   002AD2  B8D3               	btfsc	211,4,c	;volatile
  3651   002AD4  EF6E  F015         	goto	u1031
  3652   002AD8  EF70  F015         	goto	u1030
  3653   002ADC                     u1031:
  3654   002ADC  EF76  F015         	goto	l2233
  3655   002AE0                     u1030:
  3656   002AE0  0E00               	movlw	0
  3657   002AE2  6E08               	movwf	(_FPGA_GetData$1034+1)^(0+1280),c
  3658   002AE4  0E00               	movlw	0
  3659   002AE6  6E07               	movwf	_FPGA_GetData$1034^(0+1280),c
  3660   002AE8  EF7A  F015         	goto	l2235
  3661   002AEC                     l2233:
  3662   002AEC  0E00               	movlw	0
  3663   002AEE  6E08               	movwf	(_FPGA_GetData$1034+1)^(0+1280),c
  3664   002AF0  0E10               	movlw	16
  3665   002AF2  6E07               	movwf	_FPGA_GetData$1034^(0+1280),c
  3666   002AF4                     l2235:
  3667   002AF4  B6D3               	btfsc	211,3,c	;volatile
  3668   002AF6  EF7F  F015         	goto	u1041
  3669   002AFA  EF81  F015         	goto	u1040
  3670   002AFE                     u1041:
  3671   002AFE  EF87  F015         	goto	l2239
  3672   002B02                     u1040:
  3673   002B02  0E00               	movlw	0
  3674   002B04  6E0A               	movwf	(_FPGA_GetData$1035+1)^(0+1280),c
  3675   002B06  0E00               	movlw	0
  3676   002B08  6E09               	movwf	_FPGA_GetData$1035^(0+1280),c
  3677   002B0A  EF8B  F015         	goto	l2241
  3678   002B0E                     l2239:
  3679   002B0E  0E00               	movlw	0
  3680   002B10  6E0A               	movwf	(_FPGA_GetData$1035+1)^(0+1280),c
  3681   002B12  0E08               	movlw	8
  3682   002B14  6E09               	movwf	_FPGA_GetData$1035^(0+1280),c
  3683   002B16                     l2241:
  3684   002B16  B4D3               	btfsc	211,2,c	;volatile
  3685   002B18  EF90  F015         	goto	u1051
  3686   002B1C  EF92  F015         	goto	u1050
  3687   002B20                     u1051:
  3688   002B20  EF98  F015         	goto	l2245
  3689   002B24                     u1050:
  3690   002B24  0E00               	movlw	0
  3691   002B26  6E0C               	movwf	(_FPGA_GetData$1036+1)^(0+1280),c
  3692   002B28  0E00               	movlw	0
  3693   002B2A  6E0B               	movwf	_FPGA_GetData$1036^(0+1280),c
  3694   002B2C  EF9C  F015         	goto	l2247
  3695   002B30                     l2245:
  3696   002B30  0E00               	movlw	0
  3697   002B32  6E0C               	movwf	(_FPGA_GetData$1036+1)^(0+1280),c
  3698   002B34  0E04               	movlw	4
  3699   002B36  6E0B               	movwf	_FPGA_GetData$1036^(0+1280),c
  3700   002B38                     l2247:
  3701   002B38  B2D3               	btfsc	211,1,c	;volatile
  3702   002B3A  EFA1  F015         	goto	u1061
  3703   002B3E  EFA3  F015         	goto	u1060
  3704   002B42                     u1061:
  3705   002B42  EFA9  F015         	goto	l2251
  3706   002B46                     u1060:
  3707   002B46  0E00               	movlw	0
  3708   002B48  6E0E               	movwf	(_FPGA_GetData$1037+1)^(0+1280),c
  3709   002B4A  0E00               	movlw	0
  3710   002B4C  6E0D               	movwf	_FPGA_GetData$1037^(0+1280),c
  3711   002B4E  EFAD  F015         	goto	l2253
  3712   002B52                     l2251:
  3713   002B52  0E00               	movlw	0
  3714   002B54  6E0E               	movwf	(_FPGA_GetData$1037+1)^(0+1280),c
  3715   002B56  0E02               	movlw	2
  3716   002B58  6E0D               	movwf	_FPGA_GetData$1037^(0+1280),c
  3717   002B5A                     l2253:
  3718   002B5A  B0D3               	btfsc	211,0,c	;volatile
  3719   002B5C  EFB2  F015         	goto	u1071
  3720   002B60  EFB5  F015         	goto	u1070
  3721   002B64                     u1071:
  3722   002B64  0E01               	movlw	1
  3723   002B66  EFB6  F015         	goto	u1076
  3724   002B6A                     u1070:
  3725   002B6A  0E00               	movlw	0
  3726   002B6C                     u1076:
  3727   002B6C  240D               	addwf	_FPGA_GetData$1037^(0+1280),w,c
  3728   002B6E  240B               	addwf	_FPGA_GetData$1036^(0+1280),w,c
  3729   002B70  2409               	addwf	_FPGA_GetData$1035^(0+1280),w,c
  3730   002B72  2407               	addwf	_FPGA_GetData$1034^(0+1280),w,c
  3731   002B74  2405               	addwf	_FPGA_GetData$1033^(0+1280),w,c
  3732   002B76  2403               	addwf	_FPGA_GetData$1032^(0+1280),w,c
  3733   002B78  2401               	addwf	_FPGA_GetData$1031^(0+1280),w,c
  3734   002B7A  6E0F               	movwf	FPGA_GetData@d^(0+1280),c
  3735   002B7C                     
  3736                           ;main.c: 164:     return d;
  3737   002B7C  500F               	movf	FPGA_GetData@d^(0+1280),w,c
  3738   002B7E  0012               	return		;funcret
  3739   002B80                     __end_of_FPGA_GetData:
  3740                           	callstack 0
  3741                           
  3742 ;; *************** function _FPGA_CS *****************
  3743 ;; Defined at:
  3744 ;;		line 101 in file "main.c"
  3745 ;; Parameters:    Size  Location     Type
  3746 ;;  d               2    0[COMRAM] int 
  3747 ;; Auto vars:     Size  Location     Type
  3748 ;;		None
  3749 ;; Return value:  Size  Location     Type
  3750 ;;                  1    wreg      void 
  3751 ;; Registers used:
  3752 ;;		None
  3753 ;; Tracked objects:
  3754 ;;		On entry : 0/0
  3755 ;;		On exit  : 0/0
  3756 ;;		Unchanged: 0/0
  3757 ;; Data sizes:     COMRAM   BANK5   BANK6   BANK7   BANK8   BANK9  BANK10  BANK11  BANK12  BANK13  BANK14  BANK15  BANK1
      +6  BANK17  BANK18  BANK19  BANK20  BANK21  BANK22  BANK23  BANK24  BANK25  BANK26  BANK27  BANK28  BANK29  BANK30  BANK3
      +1  BANK32  BANK33  BANK34  BANK35  BANK36
  3758 ;;      Params:         2       0       0       0       0       0       0       0       0       0       0       0       
      +0       0       0       0       0       0       0       0       0       0       0       0       0       0       0       
      +0       0       0       0       0       0
  3759 ;;      Locals:         0       0       0       0       0       0       0       0       0       0       0       0       
      +0       0       0       0       0       0       0       0       0       0       0       0       0       0       0       
      +0       0       0       0       0       0
  3760 ;;      Temps:          0       0       0       0       0       0       0       0       0       0       0       0       
      +0       0       0       0       0       0       0       0       0       0       0       0       0       0       0       
      +0       0       0       0       0       0
  3761 ;;      Totals:         2       0       0       0       0       0       0       0       0       0       0       0       
      +0       0       0       0       0       0       0       0       0       0       0       0       0       0       0       
      +0       0       0       0       0       0
  3762 ;;Total ram usage:        2 bytes
  3763 ;; Hardware stack levels used: 1
  3764 ;; This function calls:
  3765 ;;		Nothing
  3766 ;; This function is called by:
  3767 ;;		_FPGA_GetBuff
  3768 ;;		_FPGA_SetBuff
  3769 ;;		_main
  3770 ;; This function uses a non-reentrant model
  3771 ;;
  3772                           
  3773                           	psect	text26
  3774   003364                     __ptext26:
  3775                           	callstack 0
  3776   003364                     _FPGA_CS:
  3777                           	callstack 124
  3778   003364                     
  3779                           ;main.c: 101: void FPGA_CS(int d);main.c: 102: {;main.c: 103:     if((d&0x01)!=0)
  3780   003364  A001               	btfss	FPGA_CS@d^(0+1280),0,c
  3781   003366  EFB7  F019         	goto	u901
  3782   00336A  EFB9  F019         	goto	u900
  3783   00336E                     u901:
  3784   00336E  EFBC  F019         	goto	l587
  3785   003372                     u900:
  3786   003372  82C2               	bsf	194,1,c	;volatile
  3787   003374  EFBD  F019         	goto	l589
  3788   003378                     l587:
  3789   003378  92C2               	bcf	194,1,c	;volatile
  3790   00337A                     l589:
  3791   00337A  0012               	return		;funcret
  3792   00337C                     __end_of_FPGA_CS:
  3793                           	callstack 0
  3794                           
  3795 ;; *************** function _FPGA_CLK *****************
  3796 ;; Defined at:
  3797 ;;		line 94 in file "main.c"
  3798 ;; Parameters:    Size  Location     Type
  3799 ;;  d               2    0[COMRAM] int 
  3800 ;; Auto vars:     Size  Location     Type
  3801 ;;		None
  3802 ;; Return value:  Size  Location     Type
  3803 ;;                  1    wreg      void 
  3804 ;; Registers used:
  3805 ;;		None
  3806 ;; Tracked objects:
  3807 ;;		On entry : 0/0
  3808 ;;		On exit  : 0/0
  3809 ;;		Unchanged: 0/0
  3810 ;; Data sizes:     COMRAM   BANK5   BANK6   BANK7   BANK8   BANK9  BANK10  BANK11  BANK12  BANK13  BANK14  BANK15  BANK1
      +6  BANK17  BANK18  BANK19  BANK20  BANK21  BANK22  BANK23  BANK24  BANK25  BANK26  BANK27  BANK28  BANK29  BANK30  BANK3
      +1  BANK32  BANK33  BANK34  BANK35  BANK36
  3811 ;;      Params:         2       0       0       0       0       0       0       0       0       0       0       0       
      +0       0       0       0       0       0       0       0       0       0       0       0       0       0       0       
      +0       0       0       0       0       0
  3812 ;;      Locals:         0       0       0       0       0       0       0       0       0       0       0       0       
      +0       0       0       0       0       0       0       0       0       0       0       0       0       0       0       
      +0       0       0       0       0       0
  3813 ;;      Temps:          0       0       0       0       0       0       0       0       0       0       0       0       
      +0       0       0       0       0       0       0       0       0       0       0       0       0       0       0       
      +0       0       0       0       0       0
  3814 ;;      Totals:         2       0       0       0       0       0       0       0       0       0       0       0       
      +0       0       0       0       0       0       0       0       0       0       0       0       0       0       0       
      +0       0       0       0       0       0
  3815 ;;Total ram usage:        2 bytes
  3816 ;; Hardware stack levels used: 1
  3817 ;; This function calls:
  3818 ;;		Nothing
  3819 ;; This function is called by:
  3820 ;;		_FPGA_GetBuff
  3821 ;;		_FPGA_SetBuff
  3822 ;; This function uses a non-reentrant model
  3823 ;;
  3824                           
  3825                           	psect	text27
  3826   00337C                     __ptext27:
  3827                           	callstack 0
  3828   00337C                     _FPGA_CLK:
  3829                           	callstack 124
  3830   00337C                     
  3831                           ;main.c: 94: void FPGA_CLK(int d);main.c: 95: {;main.c: 96:     if((d&0x01)!=0)
  3832   00337C  A001               	btfss	FPGA_CLK@d^(0+1280),0,c
  3833   00337E  EFC3  F019         	goto	u891
  3834   003382  EFC5  F019         	goto	u890
  3835   003386                     u891:
  3836   003386  EFC8  F019         	goto	l578
  3837   00338A                     u890:
  3838   00338A  80C2               	bsf	194,0,c	;volatile
  3839   00338C  EFC9  F019         	goto	l580
  3840   003390                     l578:
  3841   003390  90C2               	bcf	194,0,c	;volatile
  3842   003392                     l580:
  3843   003392  0012               	return		;funcret
  3844   003394                     __end_of_FPGA_CLK:
  3845                           	callstack 0
  3846                           
  3847                           	psect	rparam
  3848   000000                     
  3849                           	psect	idloc
  3850                           
  3851                           ;Config register IDLOC0 @ 0x200000
  3852                           ;	unspecified, using default values
  3853   200000                     	org	2097152
  3854   200000  0FFF               	dw	4095
  3855                           
  3856                           ;Config register IDLOC1 @ 0x200002
  3857                           ;	unspecified, using default values
  3858   200002                     	org	2097154
  3859   200002  0FFF               	dw	4095
  3860                           
  3861                           ;Config register IDLOC2 @ 0x200004
  3862                           ;	unspecified, using default values
  3863   200004                     	org	2097156
  3864   200004  0FFF               	dw	4095
  3865                           
  3866                           ;Config register IDLOC3 @ 0x200006
  3867                           ;	unspecified, using default values
  3868   200006                     	org	2097158
  3869   200006  0FFF               	dw	4095
  3870                           
  3871                           ;Config register IDLOC4 @ 0x200008
  3872                           ;	unspecified, using default values
  3873   200008                     	org	2097160
  3874   200008  0FFF               	dw	4095
  3875                           
  3876                           ;Config register IDLOC5 @ 0x20000A
  3877                           ;	unspecified, using default values
  3878   20000A                     	org	2097162
  3879   20000A  0FFF               	dw	4095
  3880                           
  3881                           ;Config register IDLOC6 @ 0x20000C
  3882                           ;	unspecified, using default values
  3883   20000C                     	org	2097164
  3884   20000C  0FFF               	dw	4095
  3885                           
  3886                           ;Config register IDLOC7 @ 0x20000E
  3887                           ;	unspecified, using default values
  3888   20000E                     	org	2097166
  3889   20000E  0FFF               	dw	4095
  3890                           
  3891                           ;Config register IDLOC8 @ 0x200010
  3892                           ;	unspecified, using default values
  3893   200010                     	org	2097168
  3894   200010  0FFF               	dw	4095
  3895                           
  3896                           ;Config register IDLOC9 @ 0x200012
  3897                           ;	unspecified, using default values
  3898   200012                     	org	2097170
  3899   200012  0FFF               	dw	4095
  3900                           
  3901                           ;Config register IDLOC10 @ 0x200014
  3902                           ;	unspecified, using default values
  3903   200014                     	org	2097172
  3904   200014  0FFF               	dw	4095
  3905                           
  3906                           ;Config register IDLOC11 @ 0x200016
  3907                           ;	unspecified, using default values
  3908   200016                     	org	2097174
  3909   200016  0FFF               	dw	4095
  3910                           
  3911                           ;Config register IDLOC12 @ 0x200018
  3912                           ;	unspecified, using default values
  3913   200018                     	org	2097176
  3914   200018  0FFF               	dw	4095
  3915                           
  3916                           ;Config register IDLOC13 @ 0x20001A
  3917                           ;	unspecified, using default values
  3918   20001A                     	org	2097178
  3919   20001A  0FFF               	dw	4095
  3920                           
  3921                           ;Config register IDLOC14 @ 0x20001C
  3922                           ;	unspecified, using default values
  3923   20001C                     	org	2097180
  3924   20001C  0FFF               	dw	4095
  3925                           
  3926                           ;Config register IDLOC15 @ 0x20001E
  3927                           ;	unspecified, using default values
  3928   20001E                     	org	2097182
  3929   20001E  0FFF               	dw	4095
  3930                           
  3931                           ;Config register IDLOC16 @ 0x200020
  3932                           ;	unspecified, using default values
  3933   200020                     	org	2097184
  3934   200020  0FFF               	dw	4095
  3935                           
  3936                           ;Config register IDLOC17 @ 0x200022
  3937                           ;	unspecified, using default values
  3938   200022                     	org	2097186
  3939   200022  0FFF               	dw	4095
  3940                           
  3941                           ;Config register IDLOC18 @ 0x200024
  3942                           ;	unspecified, using default values
  3943   200024                     	org	2097188
  3944   200024  0FFF               	dw	4095
  3945                           
  3946                           ;Config register IDLOC19 @ 0x200026
  3947                           ;	unspecified, using default values
  3948   200026                     	org	2097190
  3949   200026  0FFF               	dw	4095
  3950                           
  3951                           ;Config register IDLOC20 @ 0x200028
  3952                           ;	unspecified, using default values
  3953   200028                     	org	2097192
  3954   200028  0FFF               	dw	4095
  3955                           
  3956                           ;Config register IDLOC21 @ 0x20002A
  3957                           ;	unspecified, using default values
  3958   20002A                     	org	2097194
  3959   20002A  0FFF               	dw	4095
  3960                           
  3961                           ;Config register IDLOC22 @ 0x20002C
  3962                           ;	unspecified, using default values
  3963   20002C                     	org	2097196
  3964   20002C  0FFF               	dw	4095
  3965                           
  3966                           ;Config register IDLOC23 @ 0x20002E
  3967                           ;	unspecified, using default values
  3968   20002E                     	org	2097198
  3969   20002E  0FFF               	dw	4095
  3970                           
  3971                           ;Config register IDLOC24 @ 0x200030
  3972                           ;	unspecified, using default values
  3973   200030                     	org	2097200
  3974   200030  0FFF               	dw	4095
  3975                           
  3976                           ;Config register IDLOC25 @ 0x200032
  3977                           ;	unspecified, using default values
  3978   200032                     	org	2097202
  3979   200032  0FFF               	dw	4095
  3980                           
  3981                           ;Config register IDLOC26 @ 0x200034
  3982                           ;	unspecified, using default values
  3983   200034                     	org	2097204
  3984   200034  0FFF               	dw	4095
  3985                           
  3986                           ;Config register IDLOC27 @ 0x200036
  3987                           ;	unspecified, using default values
  3988   200036                     	org	2097206
  3989   200036  0FFF               	dw	4095
  3990                           
  3991                           ;Config register IDLOC28 @ 0x200038
  3992                           ;	unspecified, using default values
  3993   200038                     	org	2097208
  3994   200038  0FFF               	dw	4095
  3995                           
  3996                           ;Config register IDLOC29 @ 0x20003A
  3997                           ;	unspecified, using default values
  3998   20003A                     	org	2097210
  3999   20003A  0FFF               	dw	4095
  4000                           
  4001                           ;Config register IDLOC30 @ 0x20003C
  4002                           ;	unspecified, using default values
  4003   20003C                     	org	2097212
  4004   20003C  0FFF               	dw	4095
  4005                           
  4006                           ;Config register IDLOC31 @ 0x20003E
  4007                           ;	unspecified, using default values
  4008   20003E                     	org	2097214
  4009   20003E  0FFF               	dw	4095
  4010                           
  4011                           	psect	config
  4012                           
  4013                           ;Config register CONFIG1 @ 0x300000
  4014                           ;	External Oscillator Selection
  4015                           ;	FEXTOSC = OFF, Oscillator not enabled
  4016                           ;	Reset Oscillator Selection
  4017                           ;	RSTOSC = EXTOSC, EXTOSC operating per FEXTOSC bits (device manufacturing default)
  4018   300000                     	org	3145728
  4019   300000  FC                 	db	252
  4020                           
  4021                           ;Config register CONFIG2 @ 0x300001
  4022                           ;	Clock out Enable bit
  4023                           ;	CLKOUTEN = OFF, CLKOUT function is disabled
  4024                           ;	PRLOCKED One-Way Set Enable bit
  4025                           ;	PR1WAY = ON, PRLOCKED bit can be cleared and set only once
  4026                           ;	Clock Switch Enable bit
  4027                           ;	CSWEN = ON, Writing to NOSC and NDIV is allowed
  4028                           ;	Fail-Safe Clock Monitor Enable bit
  4029                           ;	FCMEN = ON, Fail-Safe Clock Monitor enabled
  4030   300001                     	org	3145729
  4031   300001  FF                 	db	255
  4032                           
  4033                           ;Config register CONFIG3 @ 0x300002
  4034                           ;	MCLR Enable bit
  4035                           ;	MCLRE = EXTMCLR, If LVP = 0, MCLR pin is MCLR; If LVP = 1, RE3 pin function is MCLR
  4036                           ;	Power-up timer selection bits
  4037                           ;	PWRTS = PWRT_OFF, PWRT is disabled
  4038                           ;	Multi-vector enable bit
  4039                           ;	MVECEN = OFF, Interrupt contoller does not use vector table to prioritze interrupts
  4040                           ;	IVTLOCK bit One-way set enable bit
  4041                           ;	IVT1WAY = ON, IVTLOCKED bit can be cleared and set only once
  4042                           ;	Low Power BOR Enable bit
  4043                           ;	LPBOREN = OFF, Low-Power BOR disabled
  4044                           ;	Brown-out Reset Enable bits
  4045                           ;	BOREN = SBORDIS, Brown-out Reset enabled , SBOREN bit is ignored
  4046   300002                     	org	3145730
  4047   300002  F7                 	db	247
  4048                           
  4049                           ;Config register CONFIG4 @ 0x300003
  4050                           ;	Brown-out Reset Voltage Selection bits
  4051                           ;	BORV = VBOR_1P9, Brown-out Reset Voltage (VBOR) set to 1.9V
  4052                           ;	ZCD Disable bit
  4053                           ;	ZCD = OFF, ZCD module is disabled. ZCD can be enabled by setting the ZCDSEN bit of ZCD
      +                          CON
  4054                           ;	PPSLOCK bit One-Way Set Enable bit
  4055                           ;	PPS1WAY = ON, PPSLOCKED bit can be cleared and set only once; PPS registers remain loc
      +                          ked after one clear/set cycle
  4056                           ;	Stack Full/Underflow Reset Enable bit
  4057                           ;	STVREN = ON, Stack full/underflow will cause Reset
  4058                           ;	Low Voltage Programming Enable bit
  4059                           ;	LVP = ON, Low voltage programming enabled. MCLR/VPP pin function is MCLR. MCLRE config
      +                          uration bit is ignored
  4060                           ;	Extended Instruction Set Enable bit
  4061                           ;	XINST = OFF, Extended Instruction Set and Indexed Addressing Mode disabled
  4062   300003                     	org	3145731
  4063   300003  FF                 	db	255
  4064                           
  4065                           ;Config register CONFIG5 @ 0x300004
  4066                           ;	WDT Period selection bits
  4067                           ;	WDTCPS = WDTCPS_31, Divider ratio 1:65536; software control of WDTPS
  4068                           ;	WDT operating mode
  4069                           ;	WDTE = OFF, WDT Disabled; SWDTEN is ignored
  4070   300004                     	org	3145732
  4071   300004  9F                 	db	159
  4072                           
  4073                           ;Config register CONFIG6 @ 0x300005
  4074                           ;	WDT Window Select bits
  4075                           ;	WDTCWS = WDTCWS_7, window always open (100%); software control; keyed access not requi
      +                          red
  4076                           ;	WDT input clock selector
  4077                           ;	WDTCCS = SC, Software Control
  4078   300005                     	org	3145733
  4079   300005  FF                 	db	255
  4080                           
  4081                           ;Config register CONFIG7 @ 0x300006
  4082                           ;	Boot Block Size selection bits
  4083                           ;	BBSIZE = BBSIZE_512, Boot Block size is 512 words
  4084                           ;	Boot Block enable bit
  4085                           ;	BBEN = OFF, Boot block disabled
  4086                           ;	Storage Area Flash enable bit
  4087                           ;	SAFEN = OFF, SAF disabled
  4088                           ;	Background Debugger
  4089                           ;	DEBUG = OFF, Background Debugger disabled
  4090   300006                     	org	3145734
  4091   300006  FF                 	db	255
  4092                           
  4093                           ;Config register CONFIG8 @ 0x300007
  4094                           ;	Boot Block Write Protection bit
  4095                           ;	WRTB = OFF, Boot Block not Write protected
  4096                           ;	Configuration Register Write Protection bit
  4097                           ;	WRTC = OFF, Configuration registers not Write protected
  4098                           ;	Data EEPROM Write Protection bit
  4099                           ;	WRTD = OFF, Data EEPROM not Write protected
  4100                           ;	SAF Write protection bit
  4101                           ;	WRTSAF = OFF, SAF not Write Protected
  4102                           ;	Application Block write protection bit
  4103                           ;	WRTAPP = OFF, Application Block not write protected
  4104   300007                     	org	3145735
  4105   300007  FF                 	db	255
  4106                           
  4107                           ; Padding undefined space
  4108   300008                     	org	3145736
  4109   300008  FF                 	db	255
  4110                           
  4111                           ;Config register CONFIG10 @ 0x300009
  4112                           ;	PFM and Data EEPROM Code Protection bit
  4113                           ;	CP = OFF, PFM and Data EEPROM code protection disabled
  4114   300009                     	org	3145737
  4115   300009  FF                 	db	255
  4116                           tosu	equ	0x4FF
  4117                           tosh	equ	0x4FE
  4118                           tosl	equ	0x4FD
  4119                           stkptr	equ	0x4FC
  4120                           pclatu	equ	0x4FB
  4121                           pclath	equ	0x4FA
  4122                           pcl	equ	0x4F9
  4123                           tblptru	equ	0x4F8
  4124                           tblptrh	equ	0x4F7
  4125                           tblptrl	equ	0x4F6
  4126                           tablat	equ	0x4F5
  4127                           prodh	equ	0x4F4
  4128                           prodl	equ	0x4F3
  4129                           indf0	equ	0x4EF
  4130                           postinc0	equ	0x4EE
  4131                           postdec0	equ	0x4ED
  4132                           preinc0	equ	0x4EC
  4133                           plusw0	equ	0x4EB
  4134                           fsr0h	equ	0x4EA
  4135                           fsr0l	equ	0x4E9
  4136                           wreg	equ	0x4E8
  4137                           indf1	equ	0x4E7
  4138                           postinc1	equ	0x4E6
  4139                           postdec1	equ	0x4E5
  4140                           preinc1	equ	0x4E4
  4141                           plusw1	equ	0x4E3
  4142                           fsr1h	equ	0x4E2
  4143                           fsr1l	equ	0x4E1
  4144                           bsr	equ	0x4E0
  4145                           indf2	equ	0x4DF
  4146                           postinc2	equ	0x4DE
  4147                           postdec2	equ	0x4DD
  4148                           preinc2	equ	0x4DC
  4149                           plusw2	equ	0x4DB
  4150                           fsr2h	equ	0x4DA
  4151                           fsr2l	equ	0x4D9
  4152                           status	equ	0x4D8

Data Sizes:
    Strings     0
    Constant    5
    Data        0
    BSS         86
    Persistent  9
    Stack       0

Auto Spaces:
    Space          Size  Autos    Used
    COMRAM           95     61      76
    BANK5           160      0      80
    BANK6           256      0       0
    BANK7           256      0       0
    BANK8           256      0       0
    BANK9           256      0       0
    BANK10          256      0       0
    BANK11          256      0       0
    BANK12          256      0       0
    BANK13          256      0       0
    BANK14          256      0       0
    BANK15          256      0       0
    BANK16          256      0       0
    BANK17          256      0       0
    BANK18          256      0       0
    BANK19          256      0       0
    BANK20          256      0       0
    BANK21          256      0       0
    BANK22          256      0       0
    BANK23          256      0       0
    BANK24          256      0       0
    BANK25          256      0       0
    BANK26          256      0       0
    BANK27          256      0       0
    BANK28          256      0       0
    BANK29          256      0       0
    BANK30          256      0       0
    BANK31          256      0       0
    BANK32          256      0       0
    BANK33          256      0       0
    BANK34          256      0       0
    BANK35          256      0       0
    BANK36          256      0       0

Pointer List with Targets:

    FPGA_SetBuff@data	PTR unsigned char  size(2) Largest target is 16
		 -> main@Buff(COMRAM[16]), FPGA_LightON@data(COMRAM[1]), FPGA_SetMode@data(COMRAM[1]), FPGA_SetLightMask@data(COMRAM[2]), 
		 -> FPGA_SetLightHighCounter@data(COMRAM[2]), FPGA_SetLightBaseCounter@data(COMRAM[2]), 

    FPGA_GetBuff@data	PTR unsigned char  size(2) Largest target is 16
		 -> main@Buff(COMRAM[16]), 

    UART1_SetErrorHandler@interruptHandler	PTR FTN()void  size(3) Largest target is 1
		 -> UART1_DefaultErrorHandler(), 

    UART1_SetOverrunErrorHandler@interruptHandler	PTR FTN()void  size(3) Largest target is 1
		 -> UART1_DefaultOverrunErrorHandler(), 

    UART1_SetFramingErrorHandler@interruptHandler	PTR FTN()void  size(3) Largest target is 1
		 -> UART1_DefaultFramingErrorHandler(), 

    UART1_ErrorHandler	PTR FTN()void  size(3) Largest target is 1
		 -> Absolute function(), UART1_DefaultErrorHandler(), 

    UART1_OverrunErrorHandler	PTR FTN()void  size(3) Largest target is 1
		 -> Absolute function(), UART1_DefaultOverrunErrorHandler(), 

    UART1_FramingErrorHandler	PTR FTN()void  size(3) Largest target is 1
		 -> Absolute function(), UART1_DefaultFramingErrorHandler(), 


Critical Paths under _main in COMRAM

    _main->_FPGA_SetLightMask
    _UART1_Initialize->_UART1_SetErrorHandler
    _UART1_Initialize->_UART1_SetFramingErrorHandler
    _UART1_Initialize->_UART1_SetOverrunErrorHandler
    _GetADFromLight->_ADCC_GetConversionResult
    _FPGA_SetMode->_FPGA_SetBuff
    _FPGA_SetLightMask->_FPGA_SetBuff
    _FPGA_SetLightHighCounter->_FPGA_SetBuff
    _FPGA_SetLightBaseCounter->_FPGA_SetBuff
    _FPGA_LightON->_FPGA_SetBuff
    _FPGA_SetBuff->_FPGA_CLK
    _FPGA_SetBuff->_FPGA_CS
    _FPGA_SetBuff->_FPGA_SetAddress
    _FPGA_SetBuff->_FPGA_SetCmd
    _FPGA_SetBuff->_FPGA_SetRW
    _FPGA_GetBuff->_FPGA_GetData

Critical Paths under _main in BANK5

    None.

Critical Paths under _main in BANK6

    None.

Critical Paths under _main in BANK7

    None.

Critical Paths under _main in BANK8

    None.

Critical Paths under _main in BANK9

    None.

Critical Paths under _main in BANK10

    None.

Critical Paths under _main in BANK11

    None.

Critical Paths under _main in BANK12

    None.

Critical Paths under _main in BANK13

    None.

Critical Paths under _main in BANK14

    None.

Critical Paths under _main in BANK15

    None.

Critical Paths under _main in BANK16

    None.

Critical Paths under _main in BANK17

    None.

Critical Paths under _main in BANK18

    None.

Critical Paths under _main in BANK19

    None.

Critical Paths under _main in BANK20

    None.

Critical Paths under _main in BANK21

    None.

Critical Paths under _main in BANK22

    None.

Critical Paths under _main in BANK23

    None.

Critical Paths under _main in BANK24

    None.

Critical Paths under _main in BANK25

    None.

Critical Paths under _main in BANK26

    None.

Critical Paths under _main in BANK27

    None.

Critical Paths under _main in BANK28

    None.

Critical Paths under _main in BANK29

    None.

Critical Paths under _main in BANK30

    None.

Critical Paths under _main in BANK31

    None.

Critical Paths under _main in BANK32

    None.

Critical Paths under _main in BANK33

    None.

Critical Paths under _main in BANK34

    None.

Critical Paths under _main in BANK35

    None.

Critical Paths under _main in BANK36

    None.

Call Graph Tables:

 ---------------------------------------------------------------------------------
 (Depth) Function   	        Calls       Base Space   Used Autos Params    Refs
 ---------------------------------------------------------------------------------
 (0) _main                                                22    22      0   35275
                                             43 COMRAM    18    18      0
                            _FPGA_CS
                       _FPGA_GetBuff
                       _FPGA_LightON
                       _FPGA_SetBuff
           _FPGA_SetLightBaseCounter
           _FPGA_SetLightHighCounter
                  _FPGA_SetLightMask
                       _FPGA_SetMode
                         _FPGA_SetRW
                     _GetADFromLight
                  _SYSTEM_Initialize
                             ___wmul
 ---------------------------------------------------------------------------------
 (1) _SYSTEM_Initialize                                    0     0      0     294
                    _ADCC_Initialize
              _OSCILLATOR_Initialize
             _PIN_MANAGER_Initialize
                     _PMD_Initialize
                    _SPI1_Initialize
                   _UART1_Initialize
 ---------------------------------------------------------------------------------
 (2) _UART1_Initialize                                     0     0      0     294
              _UART1_SetErrorHandler
       _UART1_SetFramingErrorHandler
       _UART1_SetOverrunErrorHandler
 ---------------------------------------------------------------------------------
 (3) _UART1_SetOverrunErrorHandler                         3     0      3      98
                                              0 COMRAM     3     0      3
 ---------------------------------------------------------------------------------
 (3) _UART1_SetFramingErrorHandler                         3     0      3      98
                                              0 COMRAM     3     0      3
 ---------------------------------------------------------------------------------
 (3) _UART1_SetErrorHandler                                3     0      3      98
                                              0 COMRAM     3     0      3
 ---------------------------------------------------------------------------------
 (2) _SPI1_Initialize                                      0     0      0       0
 ---------------------------------------------------------------------------------
 (2) _PMD_Initialize                                       0     0      0       0
 ---------------------------------------------------------------------------------
 (2) _PIN_MANAGER_Initialize                               0     0      0       0
 ---------------------------------------------------------------------------------
 (2) _OSCILLATOR_Initialize                                0     0      0       0
 ---------------------------------------------------------------------------------
 (2) _ADCC_Initialize                                      0     0      0       0
 ---------------------------------------------------------------------------------
 (1) _GetADFromLight                                       5     2      3     443
                                              4 COMRAM     3     0      3
           _ADCC_GetConversionResult
 ---------------------------------------------------------------------------------
 (2) _ADCC_GetConversionResult                             4     2      2       0
                                              0 COMRAM     4     2      2
 ---------------------------------------------------------------------------------
 (1) _FPGA_SetMode                                         7     7      0    4448
                                             13 COMRAM     7     7      0
                       _FPGA_SetBuff
 ---------------------------------------------------------------------------------
 (1) _FPGA_SetLightMask                                   30    30      0    4736
                                             13 COMRAM    30    30      0
                       _FPGA_SetBuff
 ---------------------------------------------------------------------------------
 (1) _FPGA_SetLightHighCounter                             6     4      2    5765
                                             13 COMRAM     6     4      2
                       _FPGA_SetBuff
                             ___wmul
 ---------------------------------------------------------------------------------
 (1) _FPGA_SetLightBaseCounter                             6     4      2    5765
                                             13 COMRAM     6     4      2
                       _FPGA_SetBuff
                             ___wmul
 ---------------------------------------------------------------------------------
 (1) ___wmul                                               6     2      4    1223
                                              0 COMRAM     6     2      4
 ---------------------------------------------------------------------------------
 (1) _FPGA_LightON                                         8     8      0    4470
                                             13 COMRAM     8     8      0
                       _FPGA_SetBuff
 ---------------------------------------------------------------------------------
 (2) _FPGA_SetBuff                                        11     3      8    4352
                                              2 COMRAM    11     3      8
                           _FPGA_CLK
                            _FPGA_CS
                    _FPGA_SetAddress
                        _FPGA_SetCmd
                       _FPGA_SetData
                         _FPGA_SetRW
 ---------------------------------------------------------------------------------
 (3) _FPGA_SetData                                         1     1      0     176
                                              0 COMRAM     1     1      0
 ---------------------------------------------------------------------------------
 (1) _FPGA_GetBuff                                        11     3      8    2544
                                             15 COMRAM    11     3      8
                           _FPGA_CLK
                            _FPGA_CS
                       _FPGA_GetData
                    _FPGA_SetAddress
                        _FPGA_SetCmd
                         _FPGA_SetRW
 ---------------------------------------------------------------------------------
 (1) _FPGA_SetRW                                           2     0      2     250
                                              0 COMRAM     2     0      2
 ---------------------------------------------------------------------------------
 (3) _FPGA_SetCmd                                          2     0      2     218
                                              0 COMRAM     2     0      2
 ---------------------------------------------------------------------------------
 (3) _FPGA_SetAddress                                      2     0      2     262
                                              0 COMRAM     2     0      2
 ---------------------------------------------------------------------------------
 (2) _FPGA_GetData                                        15    15      0     192
                                              0 COMRAM    15    15      0
 ---------------------------------------------------------------------------------
 (3) _FPGA_CS                                              2     0      2     554
                                              0 COMRAM     2     0      2
 ---------------------------------------------------------------------------------
 (3) _FPGA_CLK                                             2     0      2     630
                                              0 COMRAM     2     0      2
 ---------------------------------------------------------------------------------
 Estimated maximum stack depth 3
 ---------------------------------------------------------------------------------

 Call Graph Graphs:

 _main (ROOT)
   _FPGA_CS
   _FPGA_GetBuff
     _FPGA_CLK
     _FPGA_CS
     _FPGA_GetData
     _FPGA_SetAddress
     _FPGA_SetCmd
     _FPGA_SetRW
   _FPGA_LightON
     _FPGA_SetBuff
       _FPGA_CLK
       _FPGA_CS
       _FPGA_SetAddress
       _FPGA_SetCmd
       _FPGA_SetData
       _FPGA_SetRW
   _FPGA_SetBuff
   _FPGA_SetLightBaseCounter
     _FPGA_SetBuff
     ___wmul
   _FPGA_SetLightHighCounter
     _FPGA_SetBuff
     ___wmul
   _FPGA_SetLightMask
     _FPGA_SetBuff
   _FPGA_SetMode
     _FPGA_SetBuff
   _FPGA_SetRW
   _GetADFromLight
     _ADCC_GetConversionResult
   _SYSTEM_Initialize
     _ADCC_Initialize
     _OSCILLATOR_Initialize
     _PIN_MANAGER_Initialize
     _PMD_Initialize
     _SPI1_Initialize
     _UART1_Initialize
       _UART1_SetErrorHandler
       _UART1_SetFramingErrorHandler
       _UART1_SetOverrunErrorHandler
   ___wmul

 Address spaces:
Name               Size   Autos  Total    Cost      Usage
BIGRAM            1FFF      0       0      69        0.0%
EEDATA             400      0       0       0        0.0%
BITBIGSFRhhhlll    160      0       0      90        0.0%
BITBIGSFRhhhlll    125      0       0      82        0.0%
BITBIGSFR_1        100      0       0      68        0.0%
BITBANK36          100      0       0      66        0.0%
BANK36             100      0       0      67        0.0%
BITBANK35          100      0       0      64        0.0%
BANK35             100      0       0      65        0.0%
BITBANK34          100      0       0      62        0.0%
BANK34             100      0       0      63        0.0%
BITBANK33          100      0       0      60        0.0%
BANK33             100      0       0      61        0.0%
BITBANK32          100      0       0      58        0.0%
BANK32             100      0       0      59        0.0%
BITBANK31          100      0       0      56        0.0%
BANK31             100      0       0      57        0.0%
BITBANK30          100      0       0      54        0.0%
BANK30             100      0       0      55        0.0%
BITBANK29          100      0       0      52        0.0%
BANK29             100      0       0      53        0.0%
BITBANK28          100      0       0      50        0.0%
BANK28             100      0       0      51        0.0%
BITBANK27          100      0       0      48        0.0%
BANK27             100      0       0      49        0.0%
BITBANK26          100      0       0      46        0.0%
BANK26             100      0       0      47        0.0%
BITBANK25          100      0       0      44        0.0%
BANK25             100      0       0      45        0.0%
BITBANK24          100      0       0      42        0.0%
BANK24             100      0       0      43        0.0%
BITBANK23          100      0       0      40        0.0%
BANK23             100      0       0      41        0.0%
BITBANK22          100      0       0      38        0.0%
BANK22             100      0       0      39        0.0%
BITBANK21          100      0       0      36        0.0%
BANK21             100      0       0      37        0.0%
BITBANK20          100      0       0      34        0.0%
BANK20             100      0       0      35        0.0%
BITBANK19          100      0       0      32        0.0%
BANK19             100      0       0      33        0.0%
BITBANK18          100      0       0      30        0.0%
BANK18             100      0       0      31        0.0%
BITBANK17          100      0       0      28        0.0%
BANK17             100      0       0      29        0.0%
BITBANK16          100      0       0      26        0.0%
BANK16             100      0       0      27        0.0%
BITBANK15          100      0       0      24        0.0%
BANK15             100      0       0      25        0.0%
BITBANK14          100      0       0      22        0.0%
BANK14             100      0       0      23        0.0%
BITBANK13          100      0       0      20        0.0%
BANK13             100      0       0      21        0.0%
BITBANK12          100      0       0      18        0.0%
BANK12             100      0       0      19        0.0%
BITBANK11          100      0       0      16        0.0%
BANK11             100      0       0      17        0.0%
BITBANK10          100      0       0      14        0.0%
BANK10             100      0       0      15        0.0%
BITBANK9           100      0       0      12        0.0%
BANK9              100      0       0      13        0.0%
BITBANK8           100      0       0      10        0.0%
BANK8              100      0       0      11        0.0%
BITBANK7           100      0       0       8        0.0%
BANK7              100      0       0       9        0.0%
BITBANK6           100      0       0       6        0.0%
BANK6              100      0       0       7        0.0%
BITBANK5            A0      0       0       4        0.0%
BANK5               A0      0      50       5       50.0%
BITBIGSFRhhhllh     84      0       0      74        0.0%
BITBIGSFRll         60      0       0      99        0.0%
BITCOMRAM           5F      0       0       0        0.0%
COMRAM              5F     3D      4C       1       80.0%
BITBIGSFRhhhlll     52      0       0      88        0.0%
BITBIGSFRhhhhhh     2C      0       0      70        0.0%
BITBIGSFRlhhhh      1F      0       0      93        0.0%
BITBIGSFRhhhlll     17      0       0      85        0.0%
BITBIGSFRlhhll      17      0       0      97        0.0%
BITBIGSFRhhhlll     13      0       0      86        0.0%
BITBIGSFRhhhllh      B      0       0      73        0.0%
BITBIGSFRhhhhhl      7      0       0      71        0.0%
BITBIGSFRhhhlll      6      0       0      87        0.0%
BITBIGSFRhhhlll      5      0       0      80        0.0%
BITBIGSFRhhhlll      3      0       0      79        0.0%
BITBIGSFRhhhllh      3      0       0      75        0.0%
BITBIGSFRhhhlll      3      0       0      78        0.0%
BITBIGSFRhhhlll      3      0       0      77        0.0%
BITBIGSFRhhhllh      3      0       0      76        0.0%
BITBIGSFRlhhhlh      2      0       0      94        0.0%
BITBIGSFRlhhhll      2      0       0      95        0.0%
BITBIGSFRhhhhll      2      0       0      72        0.0%
BITBIGSFRlhhlh       1      0       0      96        0.0%
BITBIGSFRhhhlll      1      0       0      81        0.0%
BITBIGSFRhhhlll      1      0       0      83        0.0%
BITBIGSFRhhhlll      1      0       0      84        0.0%
BITBIGSFRhhhlll      1      0       0      89        0.0%
BITBIGSFRlhl         1      0       0      98        0.0%
BITBIGSFRhhlh        1      0       0      91        0.0%
BITBIGSFRhl          1      0       0      92        0.0%
BIGSFR_1             0      0       0     200        0.0%
BIGSFR               0      0       0     200        0.0%
BITSFR_6             0      0       0     200        0.0%
SFR_6                0      0       0     200        0.0%
BITSFR_5             0      0       0     200        0.0%
SFR_5                0      0       0     200        0.0%
BITSFR_4             0      0       0     200        0.0%
SFR_4                0      0       0     200        0.0%
BITSFR_3             0      0       0     200        0.0%
SFR_3                0      0       0     200        0.0%
BITSFR_2             0      0       0     200        0.0%
SFR_2                0      0       0     200        0.0%
BITSFR_1             0      0       0     200        0.0%
SFR_1                0      0       0     200        0.0%
BITSFR               0      0       0     200        0.0%
SFR                  0      0       0     200        0.0%
STACK                0      0       0       2        0.0%
NULL                 0      0       0       0        0.0%
ABS                  0      0      9C     100        0.0%
DATA                 0      0      9C       3        0.0%
CODE                 0      0       0       0        0.0%


Microchip Technology PIC18 Macro Assembler V2.40 build 20220703182018 
Symbol Table                                                                                   Sat Feb 18 15:50:09 2023

                              ??_FPGA_GetData 0501                                ??_FPGA_GetBuff 0518  
                                          l43 3330                                            l46 3316  
                                          l49 32DC                           ___wmul@multiplicand 0503  
                              ??_FPGA_LightON 050E                                           l222 318A  
                                         l156 2C3C                                           l263 33C4  
                                         l602 2DC2                                           l266 33B6  
                                         l611 2DDE                                           l532 3274  
                                         l620 2E04                                           l348 324E  
                                         l541 3290                                           l605 2DC8  
                                         l357 33A8                                           l269 33D2  
                                         l550 31B0                                           l534 327C  
                                         l526 325E                                           l614 2DEE  
                                         l551 31AE                                           l543 3292  
                                         l535 327A                                           l623 2E0A  
                                         l560 31D4                                           l528 3266  
                                         l632 2E30                                           l608 2DD8  
                                         l800 2FD2                                           l456 334A  
                                         l529 3264                                           l641 2E4C  
                                         l617 2DF4                                           l801 2FD0  
                                         l562 31DC                                           l554 31BE  
                                         l538 328A                                           l626 2E1A  
                                         l810 2FF6                                           l563 31DA  
                                         l571 31F2                                           l635 2E36  
                                         l580 3392                                           l556 31C6  
                                         l548 31A8                                           l644 2E5C  
                                         l820 3012                                           l804 2FE0  
                                         l557 31C4                                           l629 2E20  
                                         l813 2FFC                                           l566 31EA  
                                         l638 2E46                                           l806 2FE8  
                                         l575 338A                                           l647 2E62  
                                         l823 3018                                           l807 2FE6  
                                         l815 2FFE                                           l584 3372  
                                         l680 2B7E                                           l569 31F0  
                                         l593 335A                                           l649 2E64  
                                         l825 301E                                           l817 3000  
                                         l578 3390                                           l587 3378  
                                         l596 3360                                           l692 2CF6  
                                         l844 32B8                                           l772 2F96  
                                         l589 337A                                           l757 286C  
                                         l598 3362                                           l686 2DB0  
                                         l695 3116                                           l792 2FB4  
                                         l698 309A                                           l794 2FBC  
                                         l787 2EFE                                           l795 2FBA  
                                         l798 2FCA                                ??_FPGA_SetData 0501  
                              ??_FPGA_SetBuff 050B                                           u810 325E  
                                         u811 325A                                           u900 3372  
                                         u820 3274                                           u901 336E  
                                         u821 3270                                           u830 328A  
                                         u910 335A                                           u831 3286  
                                         u911 3356                                           u840 319A  
                                         u920 2DC2                                           u841 3196  
                                         u921 2DBE                                           u850 31A8  
                                         u930 2DD8                                           u851 31A4  
                                         u931 2DD4                                           u860 31BE  
                                         u940 2DEE                                           u861 31BA  
                                         u941 2DEA                                           u870 31D4  
                                         u950 2E04                                           u871 31D0  
                                         u951 2E00                                           u880 31EA  
                                         u960 2E1A                                           u881 31E6  
                                         u961 2E16                                           u890 338A  
                                         u970 2E30                                           u891 3386  
                                         u971 2E2C                                           u980 2E46  
                                         u981 2E42                                           u990 2E5C  
                                         u991 2E58                                ??_FPGA_SetMode 050E  
                                         wreg 0004E8                               __end_of_FPGA_CS 337C  
                       GetADFromLight@Address 0505                                          l2201 3332  
                                        l2121 33B8                                          l2211 2A6C  
                                        l2131 319A                                          l2203 3348  
                                        l2123 33AA                                          l2133 337C  
                                        l2221 2AA8                                          l2213 2A7A  
                                        l2301 2D34                                          l2141 2DCA  
                                        l2205 3394                                          l2125 33C6  
                                        l2135 3364                                          l2231 2AE0  
                                        l2223 2AB0                                          l2215 2A86  
                                        l2127 3250                                          l2311 2D82  
                                        l2303 2D40                                          l2151 2E38  
                                        l2143 2DE0                                          l2241 2B16  
                                        l2233 2AEC                                          l2225 2ABE  
                                        l2217 2A8E                                          l2209 2A6C  
                                        l2129 318C                                          l2137 334C  
                                        l2313 2D86                                          l2305 2D4C  
                                        l2153 2E4E                                          l2145 2DF6  
                                        l2321 3020                                          l2401 27EE  
                                        l2161 2BAE                                          l2251 2B52  
                                        l2243 2B24                                          l2235 2AF4  
                                        l2227 2ACA                                          l2219 2A9C  
                                        l2315 2DA4                                          l2307 2D58  
                                        l2147 2E0C                                          l2139 2DB4  
                                        l2323 3076                                          l2411 2826  
                                        l2403 27FA                                          l2331 262E  
                                        l2171 2C0A                                          l2163 2BB6  
                                        l2155 32BA                                          l2253 2B5A  
                                        l2245 2B30                                          l2237 2B02  
                                        l2229 2AD2                                          l2309 2D70  
                                        l2149 2E22                                          l2261 2C62  
                                        l2317 309C                                          l2413 284A  
                                        l2405 2802                                          l2341 266E  
                                        l2333 263E                                          l2325 2608  
                                        l2421 2F24                                          l2181 2C18  
                                        l2173 2C0C                                          l2165 2BC0  
                                        l2157 2B80                                          l2501 2982  
                                        l2255 2B7C                                          l2247 2B38  
                                        l2239 2B0E                                          l2271 2C9E  
                                        l2263 2C6E                                          l2319 30F2  
                                        l2407 2812                                          l2351 26AA  
                                        l2343 2676                                          l2335 264A  
                                        l2327 261A                                          l2431 2F64  
                                        l2423 2F34                                          l2415 2F00  
                                        l2183 2C1A                                          l2175 2C12  
                                        l2167 2C06                                          l2159 2B9C  
                                        l2191 3118                                          l2511 29B2  
                                        l2503 29A4                                          l2249 2B46  
                                        l2281 2CEA                                          l2273 2CB0  
                                        l2265 2C7A                                          l2441 2E84  
                                        l2409 281E                                          l2361 26E2  
                                        l2353 26B6                                          l2345 2686  
                                        l2337 2652                                          l2329 2626  
                                        l2433 2F6C                                          l2425 2F40  
                                        l2417 2F10                                          l2185 2C20  
                                        l2177 2C14                                          l2169 2C08  
                                        l2193 3156                                          l2513 29CA  
                                        l2505 29AA                                          l2275 2CBC  
                                        l2267 2C86                                          l2259 2C3E  
                                        l2451 2EC0                                          l2443 2E8C  
                                        l2283 3294                                          l2371 273A  
                                        l2363 26F2                                          l2355 26BE  
                                        l2347 2692                                          l2339 2662  
                                        l2435 2F74                                          l2427 2F48  
                                        l2419 2F1C                                          l2187 32FC  
                                        l2179 2C16                                          l2195 3166  
                                        l2291 3328                                          l2531 2A2C  
                                        l2515 29CE                                          l2277 2CC8  
                                        l2269 2C92                                          l2453 2ECC  
                                        l2445 2E9C                                          l2437 2E68  
                                        l2285 32B0                                          l2381 2772  
                                        l2373 2746                                          l2365 26FE  
                                        l2357 26CE                                          l2349 269A  
                                        l2429 2F58                                          l2461 2FA6  
                                        l2189 31F4                                          l2197 3176  
                                        l2293 332C                                          l2541 2A48  
                                        l2525 29FC                                          l2517 29EA  
                                        l2295 2CF8                                          l2279 2CCC  
                                        l2455 2ED4                                          l2447 2EA8  
                                        l2439 2E78                                          l2391 27B2  
                                        l2383 2782                                          l2375 274E  
                                        l2367 2706                                          l2359 26DA  
                                        l2463 3002                                          l2199 3186  
                                        l2527 2A0C                                          l2519 29F4  
                                        l2471 2872                                          l2297 2D1C  
                                        l2457 2EDC                                          l2449 2EB0  
                                        l2393 27BA                                          l2385 278E  
                                        l2377 275E                                          l2369 272A  
                                        l2465 301A                                          l2289 3318  
                                        l2537 2A34                                          l2529 2A10  
                                        l2481 28F2                                          l2299 2D28  
                                        l2395 27CA                                          l2387 2796  
                                        l2379 276A                                          l2459 2F98  
                                        l2539 2A44                                          l2491 2950  
                                        l2483 290E                                          l2397 27D6  
                                        l2389 27A6                                          l2493 2972  
                                        l2485 2926                                          l2477 287A  
                                        l2469 286E                                          l2399 27DE  
                                        l2495 2976                                          l2487 292A  
                                        l2479 28EE                                          l2497 297A  
                                        l2489 294C                                          l2499 297E  
                                        u1000 2A7A                                          u1001 2A76  
                                        u1010 2A9C                                          u1011 2A98  
                                        u1020 2ABE                                          u1100 261A  
                                        u1021 2ABA                                          u1101 2616  
                                        u1030 2AE0                                          u1110 263E  
                                        u1031 2ADC                                          u1111 263A  
                                        u1040 2B02                                          u1200 275E  
                                        u1120 2662                                          u1041 2AFE  
                                        u1201 275A                                          u1121 265E  
                                        u1050 2B24                                          u1210 2782  
                                        u1130 2686                                          u1051 2B20  
                                        u1211 277E                                          u1131 2682  
                                        u1060 2B46                                          u1220 27A6  
                                        u1140 26AA                                          u1300 2F58  
                                        u1061 2B42                                          u1221 27A2  
                                        u1141 26A6                                          u1301 2F54  
                                        u1070 2B6A                                          u1310 2E78  
                                        u1230 27CA                                          u1150 26CE  
                                        u1071 2B64                                          u1311 2E74  
                                        u1231 27C6                                          u1151 26CA  
                                        u1080 2CEA                                          u1320 2E9C  
                                        u1240 27EE                                          u1160 26F2  
                                        u1400 290E                                          u1081 2CE6  
                                        u1321 2E98                                          u1241 27EA  
                                        u1161 26EE                                          u1401 290A  
                                        u1090 2DA4                                          u1330 2EC0  
                                        u1250 2812                                          u1170 2718  
                                        u1410 29EA                                          u1091 2DA0  
                                        u1331 2EBC                                          u1251 280E  
                                        u1171 2712                                          u1411 29E6  
                                        u1076 2B6C                                          u1260 2838  
                                        u1180 271A                                          u1340 2FA6  
                                        u1420 2A2C                                          u1261 2832  
                                        u1341 2FA2                                          u1421 2A28  
                                        _LATA 0004BE                                          u1270 283A  
                                        u1190 273A                                          u1350 2FB4  
                                        u1430 2A64                                          _LATB 0004BF  
                                        u1191 2736                                          u1351 2FB0  
                                        u1431 2A60                                          _LATC 0004C0  
                                        u1280 2F10                                          u1360 2FCA  
                                        _LATD 0004C1                                          u1281 2F0C  
                                        u1361 2FC6                                          _LATE 0004C2  
                                        u1290 2F34                                          u1370 2FE0  
                                        _LATF 0004C3                                          u1291 2F30  
                                        u1371 2FDC                                          u1380 2FF6  
                                        u1381 2FF2                                          u1390 3012  
                                        u1391 300E                                          _PMD0 000060  
                                        _PMD1 000061                                          _PMD3 000063  
                                        _PMD4 000064                                          _PMD5 000065  
                                        _PMD6 000066                                          _PMD7 000067  
                                        _PMD8 000068                                          _WPUA 000401  
                                        _WPUB 000409                                          _WPUC 000411  
                                        _WPUD 000419                                          _WPUE 000421  
                                        _WPUF 000429                                          _main 286E  
                                        indf2 0004DF                                          fsr2l 0004D9  
                                        prodh 0004F4                                          prodl 0004F3  
                                        start FFFC                                  ___param_bank 000000  
            __end_of_FPGA_SetLightBaseCounter 3118                              __end_of_FPGA_CLK 3394  
               __end_of_OSCILLATOR_Initialize 3318                                         _ADACT 0003F9  
                                       _ADCAP 0003F0                                         ?_main 0501  
                                       _ADCLK 0003FA                                         _ADCNT 0003E6  
                                       _ADPCH 0003EC                                         _ADREF 0003F8  
                                       _ADRPT 0003E7                                         _U1P1H 0002A6  
                                       _U1P2H 0002A8                                         _U1P3H 0002AA  
                                       _U1P1L 0002A5                                         _U1P2L 0002A7  
                                       _U1P3L 0002A9                                         _U1UIR 0002B1  
                                       _U1RXB 0002A1                                         _U1TXB 0002A3  
                                       _OSCEN 0000B3                                         _TRISA 0004C6  
                                       _TRISB 0004C7                                         _TRISC 0004C8  
                                       _TRISD 0004C9                                         _TRISE 0004CA  
                                       _TRISF 0004CB                                         _DipSW 0547  
                                       main@i 053C                                         status 0004D8  
            _UART1_DefaultFramingErrorHandler 000000                               __initialization 32DE  
                                __end_of_main 2A6C                                    _RegTestLED 054B  
                                      ??_main 052C                                     ??_FPGA_CS 0503  
                               __activetblptr 000003                              _UART1_Initialize 3118  
                                      _ADACCH 0003E4                                        _ADACCL 0003E3  
                                      _ADACCU 0003E5                                        _ADACQH 0003EF  
                                      _ADACQL 0003EE                                        _ADCON0 0003F3  
                                      _ADCON1 0003F4                                        _ADCON2 0003F5  
                                      _ADCON3 0003F6                                        _ADERRH 0003DE  
                                      _ADERRL 0003DD                                        _ACTCON 0000AC  
                                      _ADLTHH 0003DA                                        _ADLTHL 0003D9  
                                      _ADRESH 0003EB                                        _ADRESL 0003EA  
                                      _ADPREH 0003F2                                        _ADPREL 0003F1  
                                      _ADSTAT 0003F7                                        _ADUTHH 0003DC  
                                      _ADUTHL 0003DB                                        _ANSELA 000400  
                                      _ANSELB 000408                                        _ANSELC 000410  
                                      _ANSELD 000418                                        _ANSELE 000420  
                                      _ANSELF 000428                                        _RB1I2C 000289  
                           ??_FPGA_SetAddress 0503                                        _RB2I2C 000288  
                                      _U1CON0 0002AB                                        _U1CON1 0002AC  
                                      _U1CON2 0002AD                                        _RC3I2C 000287  
                                      _RC4I2C 000286                                        _U1BRGH 0002AF  
                                      _U1FIFO 0002B0                                        _U1BRGL 0002AE  
                                      _RC3PPS 000214                                        _RC5PPS 000216  
                                      _ODCONA 000402                                        _ODCONB 00040A  
                                      _RC6PPS 000217                                        _ODCONC 000412  
                                      _ODCOND 00041A                                        _ODCONE 000422  
                                      _ODCONF 00042A                          __end_of_FPGA_GetData 2B80  
                        __end_of_FPGA_GetBuff 2DB2                                        _INLVLA 000404  
                                      _INLVLB 00040C                                        _INLVLC 000414  
                                      _INLVLD 00041C                                        _INLVLE 000424  
                                      _INLVLF 00042C                                        _OSCFRQ 0000B1  
                       _UART1_SetErrorHandler 33C6                          __end_of_FPGA_LightON 2F00  
                  ??_ADCC_GetConversionResult 0503                          __end_of_FPGA_SetData 2E66  
                        __end_of_FPGA_SetBuff 2CF8                          __end_of_FPGA_SetMode 2F98  
            __end_of_FPGA_SetLightHighCounter 309C                                        ___wmul 3294  
                   FPGA_SetLightHighCounter@n 050E                                        clear_0 32E4  
                                      isa$std 000001                      _FPGA_SetLightBaseCounter 309C  
                             _ADCC_Initialize 31F4                                _PMD_Initialize 32BA  
                                __mediumconst 0000                                     FPGA_CLK@d 0501  
        __end_of_UART1_SetOverrunErrorHandler 33B8                  _UART1_SetOverrunErrorHandler 33AA  
                   _UART1_DefaultErrorHandler 000000                                     ?_FPGA_CLK 0501  
                           _SYSTEM_Initialize 3318                                    __accesstop 0560  
                     __end_of__initialization 32F6                                  ??_FPGA_SetRW 0503  
                          ?_SYSTEM_Initialize 0501                                 ___rparam_used 000001  
                           _FPGA_GetData$1031 0501                             _FPGA_GetData$1032 0503  
                           _FPGA_GetData$1033 0505                             _FPGA_GetData$1034 0507  
                           _FPGA_GetData$1035 0509                             _FPGA_GetData$1036 050B  
                           _FPGA_GetData$1037 050D                           GetADFromLight@SelEN 0507  
                              __pcstackCOMRAM 0501                           ??_SYSTEM_Initialize 0504  
                           ??_SPI1_Initialize 0501                        __end_of_PMD_Initialize 32DE  
                FPGA_SetLightHighCounter@data 0512                            _spi1_configuration 2601  
                FPGA_SetLightBaseCounter@data 0512                     _UART1_FramingErrorHandler 0544  
                          __end_of_FPGA_SetRW 3364                     __end_of_SYSTEM_Initialize 3332  
                                  ??_FPGA_CLK 0503                                    __pbssBANK5 0560  
               ?_UART1_SetOverrunErrorHandler 0501                        ?_UART1_SetErrorHandler 0501  
                                  __pnvCOMRAM 053E                                       ?___wmul 0501  
                     __end_of_ADCC_Initialize 3250                      _FPGA_SetLightHighCounter 3020  
                                     _ADFLTRH 0003E2                                       _ADFLTRL 0003E1  
                                     _ADPREVH 0003E9                                       _ADPREVL 0003E8  
                                     _ADSTPTH 0003E0                                       _ADSTPTL 0003DF  
                             ?_PMD_Initialize 0501                                       _FPGA_CS 3364  
                                     _U1ERRIE 0002B3                                       _U1ERRIR 0002B2  
                                     _U1RXPPS 000272                                       _OSCCON1 0000AD  
                                     _OSCCON3 0000AF                                       _SPI1CLK 00008C  
                                     _SPI1RXB 000080                                       _SPI1TXB 000081  
                                     _OSCTUNE 0000B0                                       _SLRCONA 000403  
                                     _SLRCONB 00040B                                       _SLRCONC 000413  
                                     _SLRCOND 00041B                                       _SLRCONE 000423  
                                     _SLRCONF 00042B                                       __Hparam 0000  
                                     __Lparam 0000                      __end_of_UART1_Initialize 318C  
                                __psmallconst 2600                            _CurrentPatternData 0560  
                                     __pcinit 32DE                                  _FPGA_GetData 2A6C  
                                _FPGA_GetBuff 2CF8                                       __ramtop 2600  
                                     __ptext0 286E                                       __ptext1 3318  
                                     __ptext2 3118                                       __ptext3 33AA  
                                     __ptext4 33B8                                       __ptext5 33C6  
                                     __ptext6 3332                                       __ptext7 32BA  
                                     __ptext8 2B80                                       __ptext9 32FC  
                             _FPGA_SetAddress 318C                                  _FPGA_LightON 2E66  
                       _OSCILLATOR_Initialize 32FC                                  _FPGA_SetData 2DB2  
                                _FPGA_SetBuff 2C3E                                  _FPGA_SetMode 2F00  
                    ??_PIN_MANAGER_Initialize 0501                          end_of_initialization 32F6  
              ??_UART1_SetOverrunErrorHandler 0504                              FPGA_GetBuff@data 0514  
                  ??_FPGA_SetLightBaseCounter 0510                                  _RegPLSEnable 054A  
                                   _SPI1TCNTL 000082                                       postdec2 0004DD  
                                     postinc0 0004EE                                       postinc2 0004DE  
                            ?_ADCC_Initialize 0501                                     _PORTFbits 0004D3  
                                   _TRISCbits 0004C8                                 ??_FPGA_SetCmd 0503  
                             _SPI1_Initialize 3332                             _FPGA_LightON$1091 050F  
                           _FPGA_LightON$1092 0511                             _FPGA_LightON$1093 0513  
                     __end_of_FPGA_SetAddress 31F4                                __end_of___wmul 32BA  
                              _GetADFromLight 2F98                        ?_OSCILLATOR_Initialize 0501  
                   ?_ADCC_GetConversionResult 0501                           start_initialization 32DE  
                     ??_UART1_SetErrorHandler 0504                        _FPGA_SetLightMask$1070 0512  
                      _FPGA_SetLightMask$1071 0514                        _FPGA_SetLightMask$1080 0526  
                      _FPGA_SetLightMask$1072 0516                        _FPGA_SetLightMask$1081 0528  
                      _FPGA_SetLightMask$1073 0518                        _FPGA_SetLightMask$1082 052A  
                      _FPGA_SetLightMask$1074 051A                        _FPGA_SetLightMask$1075 051C  
                      _FPGA_SetLightMask$1076 051E                        _FPGA_SetLightMask$1077 0520  
                      _FPGA_SetLightMask$1069 0510                        _FPGA_SetLightMask$1078 0522  
                      _FPGA_SetLightMask$1079 0524                    ??_FPGA_SetLightHighCounter 0510  
                         __end_of_FPGA_SetCmd 3294                              ??_PMD_Initialize 0501  
                      __end_of_GetADFromLight 3020                                      ??___wmul 0505  
                                    FPGA_CS@d 0501                                      ?_FPGA_CS 0501  
                                 __pbssCOMRAM 0547                            _UART1_ErrorHandler 053E  
                     __end_of_SPI1_Initialize 334C                           FPGA_GetBuff@Address 0512  
                         FPGA_GetBuff@DataLen 0516                        _PIN_MANAGER_Initialize 2B80  
                           ?_UART1_Initialize 0501          __end_of_UART1_SetFramingErrorHandler 33C6  
                _UART1_SetFramingErrorHandler 33B8                               ?_GetADFromLight 0505  
                            ?_FPGA_SetAddress 0501                            ??_UART1_Initialize 0504  
                            _uart1RxLastError 054C                                   __smallconst 2600  
            _UART1_DefaultOverrunErrorHandler 000000                                   _U1ERRIRbits 0002B2  
                            FPGA_LightON@data 0515                                      _FPGA_CLK 337C  
                   FPGA_SetLightBaseCounter@n 050E                                   _FPGA_SetCmd 3250  
                           _FPGA_SetMode$1085 050E                             _FPGA_SetMode$1086 0510  
                           _FPGA_SetMode$1087 0512                                ___wmul@product 0505  
                                    _LATAbits 0004BE         UART1_SetErrorHandler@interruptHandler 0501  
                                    _LATBbits 0004BF                                      _LATCbits 0004C0  
                                    _LATDbits 0004C1                                      _LATEbits 0004C2  
                                _SPI1CON0bits 000084                               FPGA_GetBuff@Cmd 0510  
                                    _SPI1BAUD 000089                                      _PIR3bits 0004B1  
                                    _PIR4bits 0004B2                                      _SPI1CON0 000084  
                                    _SPI1CON1 000085                                      _SPI1CON2 000086  
                           _FPGA_SetLightMask 2608                         FPGA_SetLightMask@data 050E  
               ?_UART1_SetFramingErrorHandler 0501                            ?_FPGA_SetLightMask 0501  
                                  _ADCON0bits 0003F3                                    _ADCON1bits 0003F4  
                                  _ADCON2bits 0003F5                                    _ADCON3bits 0003F6  
                           ___wmul@multiplier 0501                           ??_FPGA_SetLightMask 050E  
                            ?_SPI1_Initialize 0501                                    _ADSTATbits 0003F7  
                                    __Hrparam 0000                     __end_of_FPGA_SetLightMask 286E  
            __end_of_ADCC_GetConversionResult 33AA                                      __Lrparam 0000  
                     ??_OSCILLATOR_Initialize 0501                            FPGA_LightON@ONMode 050E  
                             _RegPulseOutMode 0549                     ?_FPGA_SetLightBaseCounter 050E  
                                    __ptext10 31F4                                      __ptext11 2F98  
                                    __ptext20 2DB2                                      __ptext12 3394  
                                    __ptext21 2CF8                                      __ptext13 2F00  
                                    __ptext22 334C                                      __ptext14 2608  
                                    __ptext23 3250                                      __ptext15 3020  
                                    __ptext24 318C                                      __ptext16 309C  
                                    __ptext25 2A6C                                      __ptext17 3294  
                                    __ptext26 3364                                      __ptext18 2E66  
                                    __ptext27 337C                                      __ptext19 2C3E  
                                  _U1CON0bits 0002AB                 __end_of_UART1_SetErrorHandler 33D4  
                                  _FPGA_SetRW 334C                     _UART1_OverrunErrorHandler 0541  
UART1_SetOverrunErrorHandler@interruptHandler 0501                              FPGA_SetBuff@data 0507  
                                    isa$xinst 000000                                      main@Buff 052C  
              ??_UART1_SetFramingErrorHandler 0504                              FPGA_SetMode@data 0514  
                         FPGA_SetBuff@Address 0505                           FPGA_SetBuff@DataLen 0509  
                     ?_PIN_MANAGER_Initialize 0501                              ??_GetADFromLight 0508  
                               FPGA_GetData@d 050F                               FPGA_SetBuff@Cmd 0503  
                               FPGA_GetBuff@i 0519                                    _SPI1SDIPPS 00026B  
                                  _SPI1SCKPPS 00026A  UART1_SetFramingErrorHandler@interruptHandler 0501  
                    _ADCC_GetConversionResult 3394                                 ?_FPGA_GetData 0501  
                               ?_FPGA_GetBuff 0510                     ?_FPGA_SetLightHighCounter 050E  
                               ?_FPGA_LightON 0501                                FPGA_SetCmd@Cmd 0501  
                               ?_FPGA_SetData 0501                                 ?_FPGA_SetBuff 0503  
                               ?_FPGA_SetMode 0501                        FPGA_SetAddress@Address 0501  
                                ?_FPGA_SetCmd 0501                __end_of_PIN_MANAGER_Initialize 2C3E  
                           ??_ADCC_Initialize 0501                                 FPGA_SetData@d 0501  
                               FPGA_SetBuff@i 050C                                   ?_FPGA_SetRW 0501  
                                 FPGA_SetRW@d 0501                    __end_of_spi1_configuration 2606  
