

Microchip MPLAB XC8 Assembler V2.40 build 20220703182018 
                                                                                               Fri Dec 30 00:25:48 2022

Microchip MPLAB XC8 C Compiler v2.40 (Free license) build 20220703182018 Og1 
     1                           	processor	18F57Q43
     2                           	fnconf	rparam,??,?,0
     3                           	pagewidth 120
     4                           	opt	flic
     5                           	psect	nvCOMRAM,global,class=COMRAM,space=1,delta=1,lowdata,noexec
     6                           	psect	cinit,global,reloc=2,class=CODE,delta=1
     7                           	psect	bssCOMRAM,global,class=COMRAM,space=1,delta=1,lowdata,noexec
     8                           	psect	cstackCOMRAM,global,class=COMRAM,space=1,delta=1,lowdata,noexec
     9                           	psect	text0,global,reloc=2,class=CODE,delta=1
    10                           	psect	text1,global,reloc=2,class=CODE,delta=1
    11                           	psect	text2,global,reloc=2,class=CODE,delta=1
    12                           	psect	text3,global,reloc=2,class=CODE,delta=1
    13                           	psect	text4,global,reloc=2,class=CODE,delta=1
    14                           	psect	text5,global,reloc=2,class=CODE,delta=1
    15                           	psect	text6,global,reloc=2,class=CODE,delta=1
    16                           	psect	text7,global,reloc=2,class=CODE,delta=1
    17                           	psect	text8,global,reloc=2,class=CODE,delta=1
    18                           	psect	text9,global,reloc=2,class=CODE,delta=1
    19                           	psect	text10,global,reloc=2,class=CODE,delta=1
    20                           	psect	text11,global,reloc=2,class=CODE,delta=1
    21                           	psect	text12,global,reloc=2,class=CODE,delta=1
    22                           	psect	text13,global,reloc=2,class=CODE,delta=1
    23                           	psect	text14,global,reloc=2,class=CODE,delta=1
    24                           	psect	text15,global,reloc=2,class=CODE,delta=1
    25                           	psect	text16,global,reloc=2,class=CODE,delta=1
    26                           	psect	text17,global,reloc=2,class=CODE,delta=1
    27                           	psect	text18,global,reloc=2,class=CODE,delta=1
    28                           	psect	text19,global,reloc=2,class=CODE,delta=1
    29                           	psect	text20,global,reloc=2,class=CODE,delta=1
    30                           	psect	text21,global,reloc=2,class=CODE,delta=1
    31                           	psect	text22,global,reloc=2,class=CODE,delta=1
    32                           	psect	text23,global,reloc=2,class=CODE,delta=1
    33                           	psect	text24,global,reloc=2,class=CODE,delta=1
    34                           	psect	text25,global,reloc=2,class=CODE,delta=1
    35                           	psect	text26,global,reloc=2,class=CODE,delta=1
    36                           	psect	text27,global,reloc=2,class=CODE,delta=1
    37                           	psect	text28,global,reloc=2,class=CODE,delta=1
    38                           	psect	text29,global,reloc=2,class=CODE,delta=1
    39                           	psect	text30,global,reloc=2,class=CODE,delta=1
    40                           	psect	text31,global,reloc=2,class=CODE,delta=1
    41                           	psect	text32,global,reloc=2,class=CODE,delta=1
    42                           	psect	text33,global,reloc=2,class=CODE,delta=1
    43                           	psect	text34,global,reloc=2,class=CODE,delta=1
    44                           	psect	text35,global,reloc=2,class=CODE,delta=1
    45                           	psect	text36,global,reloc=2,class=CODE,delta=1
    46                           	psect	text37,global,reloc=2,class=CODE,delta=1
    47                           	psect	text38,global,reloc=2,class=CODE,delta=1
    48                           	psect	text39,global,reloc=2,class=CODE,delta=1
    49                           	psect	text40,global,reloc=2,class=CODE,delta=1
    50                           	psect	text41,global,reloc=2,class=CODE,delta=1
    51                           	psect	text42,global,reloc=2,class=CODE,delta=1
    52                           	psect	text43,global,reloc=2,class=CODE,delta=1
    53                           	psect	text44,global,reloc=2,class=CODE,delta=1
    54                           	psect	text45,global,reloc=2,class=CODE,delta=1
    55                           	psect	text46,global,reloc=2,class=CODE,delta=1
    56                           	psect	text47,global,reloc=2,class=CODE,delta=1
    57                           	psect	text48,global,reloc=2,class=CODE,delta=1
    58                           	psect	text49,global,reloc=2,class=CODE,delta=1
    59                           	psect	text50,global,reloc=2,class=CODE,delta=1
    60                           	psect	text51,global,reloc=2,class=CODE,delta=1
    61                           	psect	text52,global,reloc=2,class=CODE,delta=1
    62                           	psect	text53,global,reloc=2,class=CODE,delta=1
    63                           	psect	text54,global,reloc=2,class=CODE,delta=1
    64                           	psect	text55,global,reloc=2,class=CODE,delta=1
    65                           	psect	text56,global,reloc=2,class=CODE,delta=1
    66                           	psect	text57,global,reloc=2,class=CODE,delta=1
    67                           	psect	ivt0x8,global,reloc=2,class=CODE,delta=1,noexec,keep,optim=
    68                           	psect	intsave_regs,global,class=BIGRAM,space=1,delta=1,noexec
    69                           	psect	text58,global,reloc=2,class=CODE,delta=1
    70                           	psect	rparam,global,class=COMRAM,space=1,delta=1,noexec
    71                           	psect	idloc,global,abs,ovrld,class=IDLOC,space=5,delta=1,noexec
    72                           	psect	config,global,abs,ovrld,class=CONFIG,space=4,delta=1,noexec
    73   000000                     
    74                           ; Generated 17/06/2022 GMT
    75                           ; 
    76                           ; Copyright © 2022, Microchip Technology Inc. and its subsidiaries ("Microchip")
    77                           ; All rights reserved.
    78                           ; 
    79                           ; This software is developed by Microchip Technology Inc. and its subsidiaries ("Microch
      +                          ip").
    80                           ; 
    81                           ; Redistribution and use in source and binary forms, with or without modification, are
    82                           ; permitted provided that the following conditions are met:
    83                           ; 
    84                           ;     1. Redistributions of source code must retain the above copyright notice, this lis
      +                          t of
    85                           ;        conditions and the following disclaimer.
    86                           ; 
    87                           ;     2. Redistributions in binary form must reproduce the above copyright notice, this 
      +                          list
    88                           ;        of conditions and the following disclaimer in the documentation and/or other
    89                           ;        materials provided with the distribution. Publication is not required when
    90                           ;        this file is used in an embedded application.
    91                           ; 
    92                           ;     3. Microchip's name may not be used to endorse or promote products derived from th
      +                          is
    93                           ;        software without specific prior written permission.
    94                           ; 
    95                           ; THIS SOFTWARE IS PROVIDED BY MICROCHIP "AS IS" AND ANY EXPRESS OR IMPLIED WARRANTIES,
    96                           ; INCLUDING, BUT NOT LIMITED TO, THE IMPLIED WARRANTIES OF MERCHANTABILITY AND FITNESS F
      +                          OR
    97                           ; PURPOSE ARE DISCLAIMED.  IN NO EVENT SHALL MICROCHIP BE LIABLE FOR ANY DIRECT, INDIREC
      +                          T,
    98                           ; INCIDENTAL, SPECIAL, EXEMPLARY, OR CONSEQUENTIAL DAMAGES (INCLUDING BUT NOT LIMITED TO
    99                           ; PROCUREMENT OF SUBSTITUTE GOODS OR SERVICES; LOSS OF USE, DATA OR PROFITS; OR BUSINESS
   100                           ; INTERRUPTION) HOWSOEVER CAUSED AND ON ANY THEORY OF LIABILITY, WHETHER IN CONTRACT, ST
      +                          RICT
   101                           ; LIABILITY, OR TORT (INCLUDING NEGLIGENCE OR OTHERWISE) ARISING IN ANY WAY OUT OF THE U
      +                          SE OF
   102                           ; THIS SOFTWARE, EVEN IF ADVISED OF THE POSSIBILITY OF SUCH DAMAGE.
   103                           ; 
   104                           ; 
   105                           ; Code-generator required, PIC18F57Q43 Definitions
   106                           ; 
   107                           ; SFR Addresses
   108   000000                     _T0CON0	set	794
   109   000000                     _OSCTUNE	set	176
   110   000000                     _OSCFRQ	set	177
   111   000000                     _OSCEN	set	179
   112   000000                     _ADERRL	set	989
   113   000000                     _ADERRH	set	990
   114   000000                     _ADPREVL	set	1000
   115   000000                     _ADPREVH	set	1001
   116   000000                     _ADFLTRL	set	993
   117   000000                     _ADFLTRH	set	994
   118   000000                     _ADACCL	set	995
   119   000000                     _ADACCH	set	996
   120   000000                     _ADCNT	set	998
   121   000000                     _ADRESL	set	1002
   122   000000                     _ADRESH	set	1003
   123   000000                     _ADCON0	set	1011
   124   000000                     _ADCON1	set	1012
   125   000000                     _ADPREH	set	1010
   126   000000                     _ADPREL	set	1009
   127   000000                     _ADCAP	set	1008
   128   000000                     _ADACQH	set	1007
   129   000000                     _ADPCH	set	1004
   130   000000                     _ADRPT	set	999
   131   000000                     _ADACCU	set	997
   132   000000                     _ADSTPTH	set	992
   133   000000                     _ADSTPTL	set	991
   134   000000                     _ADUTHH	set	988
   135   000000                     _ADUTHL	set	987
   136   000000                     _ADLTHH	set	986
   137   000000                     _NVMLOCK	set	66
   138   000000                     _INT1PPS	set	575
   139   000000                     _INT2PPS	set	576
   140   000000                     _TRISD	set	1225
   141   000000                     _TRISC	set	1224
   142   000000                     _TRISB	set	1223
   143   000000                     _LATC	set	1216
   144   000000                     _LATB	set	1215
   145                           
   146                           	psect	nvCOMRAM
   147   000533                     __pnvCOMRAM:
   148                           	callstack 0
   149   000533                     _UART2_ErrorHandler:
   150                           	callstack 0
   151   000533                     	ds	3
   152   000536                     _UART2_OverrunErrorHandler:
   153                           	callstack 0
   154   000536                     	ds	3
   155   000539                     _UART2_FramingErrorHandler:
   156                           	callstack 0
   157   000539                     	ds	3
   158   00053C                     _INT2_InterruptHandler:
   159                           	callstack 0
   160   00053C                     	ds	3
   161   00053F                     _INT1_InterruptHandler:
   162                           	callstack 0
   163   00053F                     	ds	3
   164   000542                     _INT0_InterruptHandler:
   165                           	callstack 0
   166   000542                     	ds	3
   167   000545                     _UART1_ErrorHandler:
   168                           	callstack 0
   169   000545                     	ds	3
   170   000548                     _UART1_OverrunErrorHandler:
   171                           	callstack 0
   172   000548                     	ds	3
   173   00054B                     _UART1_FramingErrorHandler:
   174                           	callstack 0
   175   00054B                     	ds	3
   176   000000                     _U2ERRIRbits	set	709
   177   000000                     _U2CON0bits	set	702
   178   000000                     _U1ERRIRbits	set	690
   179   000000                     _U1CON0bits	set	683
   180   000000                     _T0CON0bits	set	794
   181   000000                     _ADCON1bits	set	1012
   182   000000                     _ADSTATbits	set	1015
   183   000000                     _ADCON2bits	set	1013
   184   000000                     _ADCON3bits	set	1014
   185   000000                     _ADCON0bits	set	1011
   186   000000                     _LATAbits	set	1214
   187   000000                     _LATCbits	set	1216
   188   000000                     _LATFbits	set	1219
   189   000000                     _NVMCON0bits	set	64
   190   000000                     _NVMCON1bits	set	65
   191   000000                     _NVMADRL	set	67
   192   000000                     _NVMADRH	set	68
   193   000000                     _NVMADRU	set	69
   194   000000                     _RB4PPS	set	525
   195   000000                     _INT0PPS	set	574
   196   000000                     _U2RXPPS	set	628
   197   000000                     _RC4I2C	set	646
   198   000000                     _RC3I2C	set	647
   199   000000                     _RB2I2C	set	648
   200   000000                     _RB1I2C	set	649
   201   000000                     _U1RXB	set	673
   202   000000                     _U1P1L	set	677
   203   000000                     _PIE1bits	set	1183
   204   000000                     _INTCON0bits	set	1238
   205   000000                     _TABLAT	set	1269
   206   000000                     _TBLPTRL	set	1270
   207   000000                     _TBLPTRH	set	1271
   208   000000                     _TBLPTRU	set	1272
   209   000000                     _PIE6bits	set	1188
   210   000000                     _PIR1bits	set	1199
   211   000000                     _PIR3bits	set	1201
   212   000000                     _PIR4bits	set	1202
   213   000000                     _PIR6bits	set	1204
   214   000000                     _PIE10bits	set	1192
   215   000000                     _PIR8bits	set	1206
   216   000000                     _PIR10bits	set	1208
   217   000000                     _PIR15bits	set	1213
   218   000000                     _LATA	set	1214
   219   000000                     _LATD	set	1217
   220   000000                     _LATE	set	1218
   221   000000                     _U2TXB	set	694
   222   000000                     _U2RXB	set	692
   223   000000                     _U2P1L	set	696
   224   000000                     _ADLTHL	set	985
   225   000000                     _ANSELA	set	1024
   226   000000                     _ANSELB	set	1032
   227   000000                     _ANSELC	set	1040
   228   000000                     _ANSELD	set	1048
   229   000000                     _U1ERRIE	set	691
   230   000000                     _U1ERRIR	set	690
   231   000000                     _U1UIR	set	689
   232   000000                     _U1FIFO	set	688
   233   000000                     _U1BRGH	set	687
   234   000000                     _U1BRGL	set	686
   235   000000                     _U1CON2	set	685
   236   000000                     _U1CON1	set	684
   237   000000                     _U1CON0	set	683
   238   000000                     _U1P3H	set	682
   239   000000                     _U1P3L	set	681
   240   000000                     _U1P2H	set	680
   241   000000                     _U1P2L	set	679
   242   000000                     _U1P1H	set	678
   243   000000                     _U1TXB	set	675
   244   000000                     _TRISA	set	1222
   245   000000                     _TRISE	set	1226
   246   000000                     _LATF	set	1219
   247   000000                     _PORTDbits	set	1233
   248   000000                     _TRISF	set	1227
   249   000000                     _INLVLD	set	1052
   250   000000                     _SLRCOND	set	1051
   251   000000                     _ODCOND	set	1050
   252   000000                     _WPUD	set	1049
   253   000000                     _ANSELE	set	1056
   254   000000                     _INLVLC	set	1044
   255   000000                     _SLRCONC	set	1043
   256   000000                     _ODCONC	set	1042
   257   000000                     _WPUC	set	1041
   258   000000                     _INLVLB	set	1036
   259   000000                     _SLRCONB	set	1035
   260   000000                     _ODCONB	set	1034
   261   000000                     _WPUB	set	1033
   262   000000                     _INLVLE	set	1060
   263   000000                     _SLRCONE	set	1059
   264   000000                     _ODCONE	set	1058
   265   000000                     _WPUE	set	1057
   266   000000                     _ANSELF	set	1064
   267   000000                     _INLVLF	set	1068
   268   000000                     _SLRCONF	set	1067
   269   000000                     _ODCONF	set	1066
   270   000000                     _WPUF	set	1065
   271   000000                     _INLVLA	set	1028
   272   000000                     _SLRCONA	set	1027
   273   000000                     _ODCONA	set	1026
   274   000000                     _WPUA	set	1025
   275   000000                     _RC6PPS	set	535
   276   000000                     _U1RXPPS	set	626
   277   000000                     _PMD0	set	96
   278   000000                     _ACTCON	set	172
   279   000000                     _OSCCON1	set	173
   280   000000                     _NVMDATL	set	70
   281   000000                     _ADACQL	set	1006
   282   000000                     _ADCLK	set	1018
   283   000000                     _ADACT	set	1017
   284   000000                     _ADREF	set	1016
   285   000000                     _ADSTAT	set	1015
   286   000000                     _ADCON3	set	1014
   287   000000                     _ADCON2	set	1013
   288   000000                     _OSCCON3	set	175
   289   000000                     _PMD3	set	99
   290   000000                     _PMD1	set	97
   291   000000                     _PMD8	set	104
   292   000000                     _PMD7	set	103
   293   000000                     _PMD6	set	102
   294   000000                     _PMD5	set	101
   295   000000                     _PMD4	set	100
   296   000000                     _U2P2L	set	698
   297   000000                     _U2P3L	set	700
   298   000000                     _U2CON0	set	702
   299   000000                     _TMR0L	set	792
   300   000000                     _TMR0H	set	793
   301   000000                     _T0CON1	set	795
   302   000000                     _U2ERRIE	set	710
   303   000000                     _U2ERRIR	set	709
   304   000000                     _U2UIR	set	708
   305   000000                     _U2FIFO	set	707
   306   000000                     _U2BRGH	set	706
   307   000000                     _U2BRGL	set	705
   308   000000                     _U2CON2	set	704
   309   000000                     _U2CON1	set	703
   310                           
   311                           ; #config settings
   312                           
   313                           	psect	cinit
   314   001280                     __pcinit:
   315                           	callstack 0
   316   001280                     start_initialization:
   317                           	callstack 0
   318   001280                     __initialization:
   319                           	callstack 0
   320                           
   321                           ; Clear objects allocated to COMRAM (2 bytes)
   322   001280  6A4F               	clrf	(__pbssCOMRAM+1)& (0+255),c
   323   001282  6A4E               	clrf	__pbssCOMRAM& (0+255),c
   324                           
   325                           ;
   326                           ; Setup IVTBASE
   327                           ;
   328   001284  0104               	movlb	4
   329   001286  0E08               	movlw	(ivt0x8_base shr 0)& (0+255)
   330   001288  6F5D               	movwf	93,b
   331   00128A  0E00               	movlw	(ivt0x8_base shr (0+8))& (0+255)
   332   00128C  6F5E               	movwf	94,b
   333   00128E  0E00               	movlw	(ivt0x8_base shr (0+16))& (0+255)
   334   001290  6F5F               	movwf	95,b
   335   001292                     end_of_initialization:
   336                           	callstack 0
   337   001292                     __end_of__initialization:
   338                           	callstack 0
   339   001292  0100               	movlb	0
   340   001294  EF0F  F000         	goto	_main	;jump to C main() function
   341                           
   342                           	psect	bssCOMRAM
   343   00054E                     __pbssCOMRAM:
   344                           	callstack 0
   345   00054E                     _uart2RxLastError:
   346                           	callstack 0
   347   00054E                     	ds	1
   348   00054F                     _uart1RxLastError:
   349                           	callstack 0
   350   00054F                     	ds	1
   351                           
   352                           	psect	cstackCOMRAM
   353   000501                     __pcstackCOMRAM:
   354                           	callstack 0
   355   000501                     ??_INTERRUPT_InterruptManager:
   356   000501                     
   357                           ; 1 bytes @ 0x0
   358   000501                     	ds	2
   359   000503                     _UART1_is_tx_ready$447:
   360                           	callstack 0
   361   000503                     UART1_Write@txData:
   362                           	callstack 0
   363   000503                     _UART2_is_tx_ready$1403:
   364                           	callstack 0
   365   000503                     UART2_Write@txData:
   366                           	callstack 0
   367   000503                     FPGA_SetData@d:
   368                           	callstack 0
   369   000503                     FPGA_SetCmd@Cmd:
   370                           	callstack 0
   371   000503                     FPGA_CLK@d:
   372                           	callstack 0
   373   000503                     FPGA_CS@d:
   374                           	callstack 0
   375   000503                     FPGA_SetRW@d:
   376                           	callstack 0
   377   000503                     _FPGA_GetData$1662:
   378                           	callstack 0
   379   000503                     GetRPIPacket@Cmd:
   380                           	callstack 0
   381   000503                     GetFromOtherPacket@TargetDipSW:
   382                           	callstack 0
   383   000503                     UART1_SetFramingErrorHandler@interruptHandler:
   384                           	callstack 0
   385   000503                     UART1_SetOverrunErrorHandler@interruptHandler:
   386                           	callstack 0
   387   000503                     UART1_SetErrorHandler@interruptHandler:
   388                           	callstack 0
   389   000503                     INT0_SetInterruptHandler@InterruptHandler:
   390                           	callstack 0
   391   000503                     INT1_SetInterruptHandler@InterruptHandler:
   392                           	callstack 0
   393   000503                     INT2_SetInterruptHandler@InterruptHandler:
   394                           	callstack 0
   395   000503                     UART2_SetFramingErrorHandler@interruptHandler:
   396                           	callstack 0
   397   000503                     UART2_SetOverrunErrorHandler@interruptHandler:
   398                           	callstack 0
   399   000503                     UART2_SetErrorHandler@interruptHandler:
   400                           	callstack 0
   401                           
   402                           ; 3 bytes @ 0x2
   403   000503                     	ds	1
   404   000504                     DiliverOtherPacket@Cmd:
   405                           	callstack 0
   406   000504                     SendRPIPacket@Data:
   407                           	callstack 0
   408                           
   409                           ; 2 bytes @ 0x3
   410   000504                     	ds	1
   411   000505                     _FPGA_GetData$1663:
   412                           	callstack 0
   413   000505                     FPGA_SetBuff@Cmd:
   414                           	callstack 0
   415   000505                     GetRPIPacket@Data:
   416                           	callstack 0
   417   000505                     DiliverOtherPacket@Data:
   418                           	callstack 0
   419   000505                     GetFromOtherPacket@Cmd:
   420                           	callstack 0
   421                           
   422                           ; 2 bytes @ 0x4
   423   000505                     	ds	1
   424   000506                     SendRPIPacket@DataLen:
   425                           	callstack 0
   426                           
   427                           ; 1 bytes @ 0x5
   428   000506                     	ds	1
   429   000507                     ??_SendRPIPacket:
   430   000507                     DiliverOtherPacket@DataLen:
   431                           	callstack 0
   432   000507                     _FPGA_GetData$1664:
   433                           	callstack 0
   434   000507                     FPGA_SetBuff@data:
   435                           	callstack 0
   436   000507                     GetRPIPacket@Len:
   437                           	callstack 0
   438   000507                     GetFromOtherPacket@Data:
   439                           	callstack 0
   440                           
   441                           ; 2 bytes @ 0x6
   442   000507                     	ds	1
   443   000508                     ??_DiliverOtherPacket:
   444                           
   445                           ; 1 bytes @ 0x7
   446   000508                     	ds	1
   447   000509                     _FPGA_GetData$1665:
   448                           	callstack 0
   449   000509                     FPGA_SetBuff@DataLen:
   450                           	callstack 0
   451   000509                     GetRPIPacket@MaxBuffLen:
   452                           	callstack 0
   453   000509                     GetFromOtherPacket@Len:
   454                           	callstack 0
   455                           
   456                           ; 2 bytes @ 0x8
   457   000509                     	ds	1
   458   00050A                     SendRPIPacket@Cmd:
   459                           	callstack 0
   460                           
   461                           ; 1 bytes @ 0x9
   462   00050A                     	ds	1
   463   00050B                     ??_FPGA_SetBuff:
   464   00050B                     ??_GetRPIPacket:
   465   00050B                     SendRPIPacket@Checksum:
   466                           	callstack 0
   467   00050B                     DiliverOtherPacket@TargetDipSW:
   468                           	callstack 0
   469   00050B                     _FPGA_GetData$1666:
   470                           	callstack 0
   471   00050B                     GetFromOtherPacket@MaxBuffLen:
   472                           	callstack 0
   473                           
   474                           ; 2 bytes @ 0xA
   475   00050B                     	ds	1
   476   00050C                     FPGA_SetBuff@i:
   477                           	callstack 0
   478   00050C                     SendRPIPacket@i:
   479                           	callstack 0
   480   00050C                     DiliverOtherPacket@i:
   481                           	callstack 0
   482                           
   483                           ; 2 bytes @ 0xB
   484   00050C                     	ds	1
   485   00050D                     ??_GetFromOtherPacket:
   486   00050D                     _FPGA_GetData$1667:
   487                           	callstack 0
   488                           
   489                           ; 2 bytes @ 0xC
   490   00050D                     	ds	1
   491   00050E                     GetRPIPacket@Checksum:
   492                           	callstack 0
   493   00050E                     SendRPIPacket@d:
   494                           	callstack 0
   495   00050E                     DiliverOtherPacket@Checksum:
   496                           	callstack 0
   497                           
   498                           ; 1 bytes @ 0xD
   499   00050E                     	ds	1
   500   00050F                     DiliverOtherPacket@d:
   501                           	callstack 0
   502   00050F                     _FPGA_GetData$1668:
   503                           	callstack 0
   504   00050F                     GetRPIPacket@i:
   505                           	callstack 0
   506                           
   507                           ; 2 bytes @ 0xE
   508   00050F                     	ds	1
   509   000510                     GetFromOtherPacket@Checksum:
   510                           	callstack 0
   511                           
   512                           ; 1 bytes @ 0xF
   513   000510                     	ds	1
   514   000511                     FPGA_GetData@d:
   515                           	callstack 0
   516   000511                     GetRPIPacket@DataLen:
   517                           	callstack 0
   518   000511                     GetFromOtherPacket@i:
   519                           	callstack 0
   520                           
   521                           ; 2 bytes @ 0x10
   522   000511                     	ds	1
   523   000512                     GetRPIPacket@d:
   524                           	callstack 0
   525   000512                     FPGA_GetBuff@Cmd:
   526                           	callstack 0
   527                           
   528                           ; 2 bytes @ 0x11
   529   000512                     	ds	1
   530   000513                     GetFromOtherPacket@DataLen:
   531                           	callstack 0
   532                           
   533                           ; 1 bytes @ 0x12
   534   000513                     	ds	1
   535   000514                     GetFromOtherPacket@d:
   536                           	callstack 0
   537   000514                     FPGA_GetBuff@data:
   538                           	callstack 0
   539                           
   540                           ; 2 bytes @ 0x13
   541   000514                     	ds	2
   542   000516                     FPGA_GetBuff@DataLen:
   543                           	callstack 0
   544                           
   545                           ; 2 bytes @ 0x15
   546   000516                     	ds	2
   547   000518                     ??_FPGA_GetBuff:
   548                           
   549                           ; 1 bytes @ 0x17
   550   000518                     	ds	1
   551   000519                     FPGA_GetBuff@i:
   552                           	callstack 0
   553                           
   554                           ; 2 bytes @ 0x18
   555   000519                     	ds	2
   556   00051B                     ??_main:
   557                           
   558                           ; 1 bytes @ 0x1A
   559   00051B                     	ds	1
   560   00051C                     main@Buff:
   561                           	callstack 0
   562                           
   563                           ; 16 bytes @ 0x1B
   564   00051C                     	ds	16
   565   00052C                     main@DipSW:
   566                           	callstack 0
   567                           
   568                           ; 2 bytes @ 0x2B
   569   00052C                     	ds	2
   570   00052E                     main@DCmd:
   571                           	callstack 0
   572                           
   573                           ; 1 bytes @ 0x2D
   574   00052E                     	ds	1
   575   00052F                     main@TargetDipSW:
   576                           	callstack 0
   577                           
   578                           ; 1 bytes @ 0x2E
   579   00052F                     	ds	1
   580   000530                     main@Cmd:
   581                           	callstack 0
   582                           
   583                           ; 1 bytes @ 0x2F
   584   000530                     	ds	1
   585   000531                     main@DataLen:
   586                           	callstack 0
   587                           
   588                           ; 2 bytes @ 0x30
   589   000531                     	ds	2
   590                           
   591 ;;
   592 ;;Main: autosize = 0, tempsize = 1, incstack = 0, save=0
   593 ;;
   594 ;; *************** function _main *****************
   595 ;; Defined at:
   596 ;;		line 539 in file "main.c"
   597 ;; Parameters:    Size  Location     Type
   598 ;;		None
   599 ;; Auto vars:     Size  Location     Type
   600 ;;  Buff           16   27[COMRAM] unsigned char [16]
   601 ;;  DataLen         2   48[COMRAM] int 
   602 ;;  DipSW           2   43[COMRAM] int 
   603 ;;  Cmd             1   47[COMRAM] unsigned char 
   604 ;;  TargetDipSW     1   46[COMRAM] unsigned char 
   605 ;;  DCmd            1   45[COMRAM] unsigned char 
   606 ;;  TestMode        1    0        unsigned char 
   607 ;; Return value:  Size  Location     Type
   608 ;;                  1    wreg      void 
   609 ;; Registers used:
   610 ;;		wreg, fsr2l, fsr2h, status,2, status,0, pcl, pclath, pclatu, tosl, cstack
   611 ;; Tracked objects:
   612 ;;		On entry : 0/0
   613 ;;		On exit  : 0/0
   614 ;;		Unchanged: 0/0
   615 ;; Data sizes:     COMRAM   BANK5   BANK6   BANK7   BANK8   BANK9  BANK10  BANK11  BANK12  BANK13  BANK14  BANK15  BANK1
      +6  BANK17  BANK18  BANK19  BANK20  BANK21  BANK22  BANK23  BANK24  BANK25  BANK26  BANK27  BANK28  BANK29  BANK30  BANK3
      +1  BANK32  BANK33  BANK34  BANK35  BANK36
   616 ;;      Params:         0       0       0       0       0       0       0       0       0       0       0       0       
      +0       0       0       0       0       0       0       0       0       0       0       0       0       0       0       
      +0       0       0       0       0       0
   617 ;;      Locals:        23       0       0       0       0       0       0       0       0       0       0       0       
      +0       0       0       0       0       0       0       0       0       0       0       0       0       0       0       
      +0       0       0       0       0       0
   618 ;;      Temps:          1       0       0       0       0       0       0       0       0       0       0       0       
      +0       0       0       0       0       0       0       0       0       0       0       0       0       0       0       
      +0       0       0       0       0       0
   619 ;;      Totals:        24       0       0       0       0       0       0       0       0       0       0       0       
      +0       0       0       0       0       0       0       0       0       0       0       0       0       0       0       
      +0       0       0       0       0       0
   620 ;;Total ram usage:       24 bytes
   621 ;; Hardware stack levels required when called: 7
   622 ;; This function calls:
   623 ;;		_DiliverOtherPacket
   624 ;;		_FPGA_CLK
   625 ;;		_FPGA_CS
   626 ;;		_FPGA_GetBuff
   627 ;;		_FPGA_SetBuff
   628 ;;		_FPGA_SetRW
   629 ;;		_GetFromOtherPacket
   630 ;;		_GetRPIPacket
   631 ;;		_SYSTEM_Initialize
   632 ;;		_SendRPIPacket
   633 ;; This function is called by:
   634 ;;		Startup code after reset
   635 ;; This function uses a non-reentrant model
   636 ;;
   637                           
   638                           	psect	text0
   639   00001E                     __ptext0:
   640                           	callstack 0
   641   00001E                     _main:
   642                           	callstack 120
   643   00001E                     
   644                           ;main.c: 541:     unsigned char Buff[16];;main.c: 542:     int DipSW;;main.c: 543:     u
      +                          nsigned char TestMode;;main.c: 544:     int DataLen;;main.c: 545:     unsigned char Cmd;
      +                          ;main.c: 546:     unsigned char DCmd;;main.c: 547:     unsigned char TargetDipSW;;main.c
      +                          : 550:     SYSTEM_Initialize();
   645   00001E  EC0D  F009         	call	_SYSTEM_Initialize	;wreg free
   646   000022                     
   647                           ;main.c: 562:     FPGA_CS(0);
   648   000022  0E00               	movlw	0
   649   000024  6E04               	movwf	(FPGA_CS@d+1)^(0+1280),c
   650   000026  0E00               	movlw	0
   651   000028  6E03               	movwf	FPGA_CS@d^(0+1280),c
   652   00002A  EC58  F009         	call	_FPGA_CS	;wreg free
   653   00002E                     
   654                           ;main.c: 563:     FPGA_CLK(1);
   655   00002E  0E00               	movlw	0
   656   000030  6E04               	movwf	(FPGA_CLK@d+1)^(0+1280),c
   657   000032  0E01               	movlw	1
   658   000034  6E03               	movwf	FPGA_CLK@d^(0+1280),c
   659   000036  EC64  F009         	call	_FPGA_CLK	;wreg free
   660   00003A                     
   661                           ;main.c: 564:     FPGA_CLK(0);
   662   00003A  0E00               	movlw	0
   663   00003C  6E04               	movwf	(FPGA_CLK@d+1)^(0+1280),c
   664   00003E  0E00               	movlw	0
   665   000040  6E03               	movwf	FPGA_CLK@d^(0+1280),c
   666   000042  EC64  F009         	call	_FPGA_CLK	;wreg free
   667   000046                     
   668                           ;main.c: 566:     FPGA_SetRW(0);
   669   000046  0E00               	movlw	0
   670   000048  6E04               	movwf	(FPGA_SetRW@d+1)^(0+1280),c
   671   00004A  0E00               	movlw	0
   672   00004C  6E03               	movwf	FPGA_SetRW@d^(0+1280),c
   673   00004E  EC4C  F009         	call	_FPGA_SetRW	;wreg free
   674   000052                     
   675                           ;main.c: 568:     FPGA_GetBuff(3,Buff,1);
   676   000052  0E00               	movlw	0
   677   000054  6E13               	movwf	(FPGA_GetBuff@Cmd+1)^(0+1280),c
   678   000056  0E03               	movlw	3
   679   000058  6E12               	movwf	FPGA_GetBuff@Cmd^(0+1280),c
   680   00005A  0E1C               	movlw	low main@Buff
   681   00005C  6E14               	movwf	FPGA_GetBuff@data^(0+1280),c
   682   00005E  0E05               	movlw	high main@Buff
   683   000060  6E15               	movwf	(FPGA_GetBuff@data+1)^(0+1280),c
   684   000062  0E00               	movlw	0
   685   000064  6E17               	movwf	(FPGA_GetBuff@DataLen+1)^(0+1280),c
   686   000066  0E01               	movlw	1
   687   000068  6E16               	movwf	FPGA_GetBuff@DataLen^(0+1280),c
   688   00006A  ECCF  F005         	call	_FPGA_GetBuff	;wreg free
   689   00006E                     
   690                           ;main.c: 569:     DipSW=Buff[0] & 0x0f;
   691   00006E  C51C  F51B         	movff	main@Buff,??_main
   692   000072  0E0F               	movlw	15
   693   000074  161B               	andwf	??_main^(0+1280),f,c
   694   000076  501B               	movf	??_main^(0+1280),w,c
   695   000078  6E2C               	movwf	main@DipSW^(0+1280),c
   696   00007A  6A2D               	clrf	(main@DipSW+1)^(0+1280),c
   697   00007C                     
   698                           ;main.c: 572:     Buff[0]=TestMode + 0x02;
   699   00007C  0E02               	movlw	2
   700   00007E  6E1C               	movwf	main@Buff^(0+1280),c
   701   000080                     
   702                           ;main.c: 573:     FPGA_SetBuff(3 ,Buff,1);
   703   000080  0E00               	movlw	0
   704   000082  6E06               	movwf	(FPGA_SetBuff@Cmd+1)^(0+1280),c
   705   000084  0E03               	movlw	3
   706   000086  6E05               	movwf	FPGA_SetBuff@Cmd^(0+1280),c
   707   000088  0E1C               	movlw	low main@Buff
   708   00008A  6E07               	movwf	FPGA_SetBuff@data^(0+1280),c
   709   00008C  0E05               	movlw	high main@Buff
   710   00008E  6E08               	movwf	(FPGA_SetBuff@data+1)^(0+1280),c
   711   000090  0E00               	movlw	0
   712   000092  6E0A               	movwf	(FPGA_SetBuff@DataLen+1)^(0+1280),c
   713   000094  0E01               	movlw	1
   714   000096  6E09               	movwf	FPGA_SetBuff@DataLen^(0+1280),c
   715   000098  EC86  F006         	call	_FPGA_SetBuff	;wreg free
   716   00009C                     l3487:
   717                           
   718                           ;main.c: 578:     {;main.c: 579:         if(GetRPIPacket(&Cmd,Buff,&DataLen ,16)==1){
   719   00009C  0E30               	movlw	low main@Cmd
   720   00009E  6E03               	movwf	GetRPIPacket@Cmd^(0+1280),c
   721   0000A0  0E05               	movlw	high main@Cmd
   722   0000A2  6E04               	movwf	(GetRPIPacket@Cmd+1)^(0+1280),c
   723   0000A4  0E1C               	movlw	low main@Buff
   724   0000A6  6E05               	movwf	GetRPIPacket@Data^(0+1280),c
   725   0000A8  0E05               	movlw	high main@Buff
   726   0000AA  6E06               	movwf	(GetRPIPacket@Data+1)^(0+1280),c
   727   0000AC  0E31               	movlw	low main@DataLen
   728   0000AE  6E07               	movwf	GetRPIPacket@Len^(0+1280),c
   729   0000B0  0E05               	movlw	high main@DataLen
   730   0000B2  6E08               	movwf	(GetRPIPacket@Len+1)^(0+1280),c
   731   0000B4  0E00               	movlw	0
   732   0000B6  6E0A               	movwf	(GetRPIPacket@MaxBuffLen+1)^(0+1280),c
   733   0000B8  0E10               	movlw	16
   734   0000BA  6E09               	movwf	GetRPIPacket@MaxBuffLen^(0+1280),c
   735   0000BC  EC2B  F003         	call	_GetRPIPacket	;wreg free
   736   0000C0  06E8               	decf	wreg,f,c
   737   0000C2  A4D8               	btfss	status,2,c
   738   0000C4  EF66  F000         	goto	u2061
   739   0000C8  EF68  F000         	goto	u2060
   740   0000CC                     u2061:
   741   0000CC  EF4E  F000         	goto	l3487
   742   0000D0                     u2060:
   743   0000D0                     
   744                           ;main.c: 580:             if(Cmd==0x80){
   745   0000D0  0E80               	movlw	128
   746   0000D2  1830               	xorwf	main@Cmd^(0+1280),w,c
   747   0000D4  A4D8               	btfss	status,2,c
   748   0000D6  EF6F  F000         	goto	u2071
   749   0000DA  EF71  F000         	goto	u2070
   750   0000DE                     u2071:
   751   0000DE  EF7E  F000         	goto	l1052
   752   0000E2                     u2070:
   753   0000E2                     
   754                           ;main.c: 581:                 Buff[0]=DipSW;
   755   0000E2  C52C  F51C         	movff	main@DipSW,main@Buff
   756   0000E6                     
   757                           ;main.c: 582:                 SendRPIPacket(0x71,Buff,1);
   758   0000E6  0E1C               	movlw	low main@Buff
   759   0000E8  6E04               	movwf	SendRPIPacket@Data^(0+1280),c
   760   0000EA  0E05               	movlw	high main@Buff
   761   0000EC  6E05               	movwf	(SendRPIPacket@Data+1)^(0+1280),c
   762   0000EE  0E01               	movlw	1
   763   0000F0  6E06               	movwf	SendRPIPacket@DataLen^(0+1280),c
   764   0000F2  0E71               	movlw	113
   765   0000F4  EC17  F004         	call	_SendRPIPacket
   766                           
   767                           ;main.c: 583:             }
   768   0000F8  EF4E  F000         	goto	l3487
   769   0000FC                     l1052:
   770   0000FC  AC30               	btfss	main@Cmd^(0+1280),6,c
   771   0000FE  EF83  F000         	goto	u2081
   772   000102  EF85  F000         	goto	u2080
   773   000106                     u2081:
   774   000106  EFA3  F000         	goto	l1054
   775   00010A                     u2080:
   776   00010A                     
   777                           ;main.c: 585:                 if(DataLen<=sizeof(Buff)){
   778   00010A  5032               	movf	(main@DataLen+1)^(0+1280),w,c
   779   00010C  E107               	bnz	u2091
   780   00010E  0E11               	movlw	17
   781   000110  5C31               	subwf	main@DataLen^(0+1280),w,c
   782   000112  B0D8               	btfsc	status,0,c
   783   000114  EF8E  F000         	goto	u2091
   784   000118  EF90  F000         	goto	u2090
   785   00011C                     u2091:
   786   00011C  EF4E  F000         	goto	l3487
   787   000120                     u2090:
   788   000120                     
   789                           ;main.c: 586:                     FPGA_SetBuff(Cmd&0x0f ,Buff,DataLen);
   790   000120  C530  F51B         	movff	main@Cmd,??_main
   791   000124  0E0F               	movlw	15
   792   000126  161B               	andwf	??_main^(0+1280),f,c
   793   000128  501B               	movf	??_main^(0+1280),w,c
   794   00012A  6E05               	movwf	FPGA_SetBuff@Cmd^(0+1280),c
   795   00012C  6A06               	clrf	(FPGA_SetBuff@Cmd+1)^(0+1280),c
   796   00012E  0E1C               	movlw	low main@Buff
   797   000130  6E07               	movwf	FPGA_SetBuff@data^(0+1280),c
   798   000132  0E05               	movlw	high main@Buff
   799   000134  6E08               	movwf	(FPGA_SetBuff@data+1)^(0+1280),c
   800   000136  C531  F509         	movff	main@DataLen,FPGA_SetBuff@DataLen
   801   00013A  C532  F50A         	movff	main@DataLen+1,FPGA_SetBuff@DataLen+1
   802   00013E  EC86  F006         	call	_FPGA_SetBuff	;wreg free
   803   000142  EF4E  F000         	goto	l3487
   804   000146                     l1054:
   805   000146  AA30               	btfss	main@Cmd^(0+1280),5,c
   806   000148  EFA8  F000         	goto	u2101
   807   00014C  EFAA  F000         	goto	u2100
   808   000150                     u2101:
   809   000150  EFE1  F000         	goto	l3507
   810   000154                     u2100:
   811   000154                     
   812                           ;main.c: 590:                 if(DataLen>=1){
   813   000154  BE32               	btfsc	(main@DataLen+1)^(0+1280),7,c
   814   000156  EFB5  F000         	goto	u2111
   815   00015A  5032               	movf	(main@DataLen+1)^(0+1280),w,c
   816   00015C  E108               	bnz	u2110
   817   00015E  0431               	decf	main@DataLen^(0+1280),w,c
   818   000160  A0D8               	btfss	status,0,c
   819   000162  EFB5  F000         	goto	u2111
   820   000166  EFB7  F000         	goto	u2110
   821   00016A                     u2111:
   822   00016A  EF4E  F000         	goto	l3487
   823   00016E                     u2110:
   824   00016E                     
   825                           ;main.c: 591:                     DataLen=Buff[0];
   826   00016E  C51C  F531         	movff	main@Buff,main@DataLen
   827   000172  6A32               	clrf	(main@DataLen+1)^(0+1280),c
   828   000174                     
   829                           ;main.c: 592:                     if(DataLen<=sizeof(Buff)){
   830   000174  5032               	movf	(main@DataLen+1)^(0+1280),w,c
   831   000176  E107               	bnz	u2121
   832   000178  0E11               	movlw	17
   833   00017A  5C31               	subwf	main@DataLen^(0+1280),w,c
   834   00017C  B0D8               	btfsc	status,0,c
   835   00017E  EFC3  F000         	goto	u2121
   836   000182  EFC5  F000         	goto	u2120
   837   000186                     u2121:
   838   000186  EF24  F001         	goto	l1053
   839   00018A                     u2120:
   840   00018A                     
   841                           ;main.c: 593:                         FPGA_GetBuff(Cmd&0x0f ,Buff,DataLen);
   842   00018A  C530  F51B         	movff	main@Cmd,??_main
   843   00018E  0E0F               	movlw	15
   844   000190  161B               	andwf	??_main^(0+1280),f,c
   845   000192  501B               	movf	??_main^(0+1280),w,c
   846   000194  6E12               	movwf	FPGA_GetBuff@Cmd^(0+1280),c
   847   000196  6A13               	clrf	(FPGA_GetBuff@Cmd+1)^(0+1280),c
   848   000198  0E1C               	movlw	low main@Buff
   849   00019A  6E14               	movwf	FPGA_GetBuff@data^(0+1280),c
   850   00019C  0E05               	movlw	high main@Buff
   851   00019E  6E15               	movwf	(FPGA_GetBuff@data+1)^(0+1280),c
   852   0001A0  C531  F516         	movff	main@DataLen,FPGA_GetBuff@DataLen
   853   0001A4  C532  F517         	movff	main@DataLen+1,FPGA_GetBuff@DataLen+1
   854   0001A8  ECCF  F005         	call	_FPGA_GetBuff	;wreg free
   855                           
   856                           ;main.c: 594:                         SendRPIPacket(Cmd,Buff,DataLen);
   857   0001AC  0E1C               	movlw	low main@Buff
   858   0001AE  6E04               	movwf	SendRPIPacket@Data^(0+1280),c
   859   0001B0  0E05               	movlw	high main@Buff
   860   0001B2  6E05               	movwf	(SendRPIPacket@Data+1)^(0+1280),c
   861   0001B4  C531  F506         	movff	main@DataLen,SendRPIPacket@DataLen
   862   0001B8  5030               	movf	main@Cmd^(0+1280),w,c
   863   0001BA  EC17  F004         	call	_SendRPIPacket
   864   0001BE  EF4E  F000         	goto	l3487
   865   0001C2                     l3507:
   866                           
   867                           ;main.c: 599:                 TargetDipSW =Cmd&0x0f;
   868   0001C2  5030               	movf	main@Cmd^(0+1280),w,c
   869   0001C4  0B0F               	andlw	15
   870   0001C6  6E2F               	movwf	main@TargetDipSW^(0+1280),c
   871                           
   872                           ;main.c: 600:                 DCmd =(Cmd>>4)&0x0f;
   873   0001C8  3830               	swapf	main@Cmd^(0+1280),w,c
   874   0001CA  0B0F               	andlw	15
   875   0001CC  0B0F               	andlw	15
   876   0001CE  6E2E               	movwf	main@DCmd^(0+1280),c
   877   0001D0                     
   878                           ;main.c: 601:                 if(DiliverOtherPacket(TargetDipSW,DCmd,Buff,DataLen)==1){
   879   0001D0  C52E  F504         	movff	main@DCmd,DiliverOtherPacket@Cmd
   880   0001D4  0E1C               	movlw	low main@Buff
   881   0001D6  6E05               	movwf	DiliverOtherPacket@Data^(0+1280),c
   882   0001D8  0E05               	movlw	high main@Buff
   883   0001DA  6E06               	movwf	(DiliverOtherPacket@Data+1)^(0+1280),c
   884   0001DC  C531  F507         	movff	main@DataLen,DiliverOtherPacket@DataLen
   885   0001E0  502F               	movf	main@TargetDipSW^(0+1280),w,c
   886   0001E2  EC3B  F002         	call	_DiliverOtherPacket
   887   0001E6  06E8               	decf	wreg,f,c
   888   0001E8  A4D8               	btfss	status,2,c
   889   0001EA  EFF9  F000         	goto	u2131
   890   0001EE  EFFB  F000         	goto	u2130
   891   0001F2                     u2131:
   892   0001F2  EF24  F001         	goto	l1053
   893   0001F6                     u2130:
   894   0001F6                     
   895                           ;main.c: 602:                     if(GetFromOtherPacket(&TargetDipSW,&DCmd
   896   0001F6  0E2F               	movlw	low main@TargetDipSW
   897   0001F8  6E03               	movwf	GetFromOtherPacket@TargetDipSW^(0+1280),c
   898   0001FA  0E05               	movlw	high main@TargetDipSW
   899   0001FC  6E04               	movwf	(GetFromOtherPacket@TargetDipSW+1)^(0+1280),c
   900   0001FE  0E2E               	movlw	low main@DCmd
   901   000200  6E05               	movwf	GetFromOtherPacket@Cmd^(0+1280),c
   902   000202  0E05               	movlw	high main@DCmd
   903   000204  6E06               	movwf	(GetFromOtherPacket@Cmd+1)^(0+1280),c
   904   000206  0E1C               	movlw	low main@Buff
   905   000208  6E07               	movwf	GetFromOtherPacket@Data^(0+1280),c
   906   00020A  0E05               	movlw	high main@Buff
   907   00020C  6E08               	movwf	(GetFromOtherPacket@Data+1)^(0+1280),c
   908   00020E  0E31               	movlw	low main@DataLen
   909   000210  6E09               	movwf	GetFromOtherPacket@Len^(0+1280),c
   910   000212  0E05               	movlw	high main@DataLen
   911   000214  6E0A               	movwf	(GetFromOtherPacket@Len+1)^(0+1280),c
   912   000216  0E00               	movlw	0
   913   000218  6E0C               	movwf	(GetFromOtherPacket@MaxBuffLen+1)^(0+1280),c
   914   00021A  0E10               	movlw	16
   915   00021C  6E0B               	movwf	GetFromOtherPacket@MaxBuffLen^(0+1280),c
   916   00021E  EC28  F001         	call	_GetFromOtherPacket	;wreg free
   917   000222  06E8               	decf	wreg,f,c
   918   000224  A4D8               	btfss	status,2,c
   919   000226  EF17  F001         	goto	u2141
   920   00022A  EF19  F001         	goto	u2140
   921   00022E                     u2141:
   922   00022E  EF24  F001         	goto	l1053
   923   000232                     u2140:
   924   000232                     
   925                           ;main.c: 603:                             ,Buff,&DataLen ,16)==1){;main.c: 604:         
      +                                           SendRPIPacket(0x72,Buff,DataLen);
   926   000232  0E1C               	movlw	low main@Buff
   927   000234  6E04               	movwf	SendRPIPacket@Data^(0+1280),c
   928   000236  0E05               	movlw	high main@Buff
   929   000238  6E05               	movwf	(SendRPIPacket@Data+1)^(0+1280),c
   930   00023A  C531  F506         	movff	main@DataLen,SendRPIPacket@DataLen
   931   00023E  0E72               	movlw	114
   932   000240  EC17  F004         	call	_SendRPIPacket
   933   000244  EF4E  F000         	goto	l3487
   934   000248                     l1053:
   935   000248  EF4E  F000         	goto	l3487
   936   00024C  EF0D  F000         	goto	start
   937   000250                     __end_of_main:
   938                           	callstack 0
   939                           
   940 ;; *************** function _SendRPIPacket *****************
   941 ;; Defined at:
   942 ;;		line 279 in file "main.c"
   943 ;; Parameters:    Size  Location     Type
   944 ;;  Cmd             1    wreg     unsigned char 
   945 ;;  Data            2    3[COMRAM] PTR unsigned char 
   946 ;;		 -> main@Buff(16), 
   947 ;;  DataLen         1    5[COMRAM] unsigned char 
   948 ;; Auto vars:     Size  Location     Type
   949 ;;  Cmd             1    9[COMRAM] unsigned char 
   950 ;;  i               2   11[COMRAM] int 
   951 ;;  d               1   13[COMRAM] unsigned char 
   952 ;;  Checksum        1   10[COMRAM] unsigned char 
   953 ;; Return value:  Size  Location     Type
   954 ;;                  1    wreg      _Bool 
   955 ;; Registers used:
   956 ;;		wreg, fsr2l, fsr2h, status,2, status,0, cstack
   957 ;; Tracked objects:
   958 ;;		On entry : 0/0
   959 ;;		On exit  : 0/0
   960 ;;		Unchanged: 0/0
   961 ;; Data sizes:     COMRAM   BANK5   BANK6   BANK7   BANK8   BANK9  BANK10  BANK11  BANK12  BANK13  BANK14  BANK15  BANK1
      +6  BANK17  BANK18  BANK19  BANK20  BANK21  BANK22  BANK23  BANK24  BANK25  BANK26  BANK27  BANK28  BANK29  BANK30  BANK3
      +1  BANK32  BANK33  BANK34  BANK35  BANK36
   962 ;;      Params:         3       0       0       0       0       0       0       0       0       0       0       0       
      +0       0       0       0       0       0       0       0       0       0       0       0       0       0       0       
      +0       0       0       0       0       0
   963 ;;      Locals:         5       0       0       0       0       0       0       0       0       0       0       0       
      +0       0       0       0       0       0       0       0       0       0       0       0       0       0       0       
      +0       0       0       0       0       0
   964 ;;      Temps:          3       0       0       0       0       0       0       0       0       0       0       0       
      +0       0       0       0       0       0       0       0       0       0       0       0       0       0       0       
      +0       0       0       0       0       0
   965 ;;      Totals:        11       0       0       0       0       0       0       0       0       0       0       0       
      +0       0       0       0       0       0       0       0       0       0       0       0       0       0       0       
      +0       0       0       0       0       0
   966 ;;Total ram usage:       11 bytes
   967 ;; Hardware stack levels used: 1
   968 ;; Hardware stack levels required when called: 5
   969 ;; This function calls:
   970 ;;		_TMR0_HasOverflowOccured
   971 ;;		_TMR0_Initialize
   972 ;;		_TMR0_StartTimer
   973 ;;		_UART2_Write
   974 ;;		_UART2_is_tx_ready
   975 ;; This function is called by:
   976 ;;		_main
   977 ;; This function uses a non-reentrant model
   978 ;;
   979                           
   980                           	psect	text1
   981   00082E                     __ptext1:
   982                           	callstack 0
   983   00082E                     _SendRPIPacket:
   984                           	callstack 121
   985                           
   986                           ;incstack = 0
   987                           ;SendRPIPacket@Cmd stored from wreg
   988   00082E  6E0A               	movwf	SendRPIPacket@Cmd^(0+1280),c
   989   000830                     
   990                           ;main.c: 279: _Bool SendRPIPacket(unsigned char Cmd,unsigned char Data[],unsigned char D
      +                          ataLen);main.c: 280: {;main.c: 281:     unsigned char d;;main.c: 282:     unsigned char 
      +                          Checksum;;main.c: 283:     int i;;main.c: 285:     TMR0_Initialize();
   991   000830  EC86  F009         	call	_TMR0_Initialize	;wreg free
   992   000834                     
   993                           ;main.c: 286:     TMR0_StartTimer();
   994   000834  ECFA  F009         	call	_TMR0_StartTimer	;wreg free
   995   000838                     l3137:
   996                           
   997                           ;main.c: 288:         if(UART2_is_tx_ready()==1){
   998   000838  ECE3  F008         	call	_UART2_is_tx_ready	;wreg free
   999   00083C  06E8               	decf	wreg,f,c
  1000   00083E  A4D8               	btfss	status,2,c
  1001   000840  EF24  F004         	goto	u1671
  1002   000844  EF26  F004         	goto	u1670
  1003   000848                     u1671:
  1004   000848  EF28  F004         	goto	l3141
  1005   00084C                     u1670:
  1006   00084C  EF34  F004         	goto	l3145
  1007   000850                     l3141:
  1008                           
  1009                           ;main.c: 291:         if(TMR0_HasOverflowOccured()==1){
  1010   000850  ECA5  F009         	call	_TMR0_HasOverflowOccured	;wreg free
  1011   000854  06E8               	decf	wreg,f,c
  1012   000856  A4D8               	btfss	status,2,c
  1013   000858  EF30  F004         	goto	u1681
  1014   00085C  EF32  F004         	goto	u1680
  1015   000860                     u1681:
  1016   000860  EF1C  F004         	goto	l3137
  1017   000864                     u1680:
  1018   000864  EFE1  F004         	goto	l965
  1019   000868                     l3145:
  1020   000868                     
  1021                           ;main.c: 296:     UART2_Write(d);
  1022   000868  0E1E               	movlw	30
  1023   00086A  EC70  F009         	call	_UART2_Write
  1024   00086E                     
  1025                           ;main.c: 297:     Checksum=d;
  1026   00086E  0E1E               	movlw	30
  1027   000870  6E0B               	movwf	SendRPIPacket@Checksum^(0+1280),c
  1028   000872                     
  1029                           ;main.c: 299:     TMR0_Initialize();
  1030   000872  EC86  F009         	call	_TMR0_Initialize	;wreg free
  1031   000876                     
  1032                           ;main.c: 300:     TMR0_StartTimer();
  1033   000876  ECFA  F009         	call	_TMR0_StartTimer	;wreg free
  1034   00087A                     l966:
  1035                           
  1036                           ;main.c: 302:         if(UART2_is_tx_ready()==1){
  1037   00087A  ECE3  F008         	call	_UART2_is_tx_ready	;wreg free
  1038   00087E  06E8               	decf	wreg,f,c
  1039   000880  A4D8               	btfss	status,2,c
  1040   000882  EF45  F004         	goto	u1691
  1041   000886  EF47  F004         	goto	u1690
  1042   00088A                     u1691:
  1043   00088A  EF49  F004         	goto	l3157
  1044   00088E                     u1690:
  1045   00088E  EF55  F004         	goto	l968
  1046   000892                     l3157:
  1047                           
  1048                           ;main.c: 305:         if(TMR0_HasOverflowOccured()==1){
  1049   000892  ECA5  F009         	call	_TMR0_HasOverflowOccured	;wreg free
  1050   000896  06E8               	decf	wreg,f,c
  1051   000898  A4D8               	btfss	status,2,c
  1052   00089A  EF51  F004         	goto	u1701
  1053   00089E  EF53  F004         	goto	u1700
  1054   0008A2                     u1701:
  1055   0008A2  EF3D  F004         	goto	l966
  1056   0008A6                     u1700:
  1057   0008A6  EFE1  F004         	goto	l965
  1058   0008AA                     l968:
  1059                           
  1060                           ;main.c: 309:     d=Cmd;
  1061   0008AA  C50A  F50E         	movff	SendRPIPacket@Cmd,SendRPIPacket@d
  1062   0008AE                     
  1063                           ;main.c: 310:     UART2_Write(d);
  1064   0008AE  500E               	movf	SendRPIPacket@d^(0+1280),w,c
  1065   0008B0  EC70  F009         	call	_UART2_Write
  1066   0008B4                     
  1067                           ;main.c: 311:     Checksum^=d;
  1068   0008B4  500E               	movf	SendRPIPacket@d^(0+1280),w,c
  1069   0008B6  1A0B               	xorwf	SendRPIPacket@Checksum^(0+1280),f,c
  1070   0008B8                     
  1071                           ;main.c: 313:     TMR0_Initialize();
  1072   0008B8  EC86  F009         	call	_TMR0_Initialize	;wreg free
  1073   0008BC                     
  1074                           ;main.c: 314:     TMR0_StartTimer();
  1075   0008BC  ECFA  F009         	call	_TMR0_StartTimer	;wreg free
  1076   0008C0                     l3169:
  1077                           
  1078                           ;main.c: 316:         if(UART2_is_tx_ready()==1){
  1079   0008C0  ECE3  F008         	call	_UART2_is_tx_ready	;wreg free
  1080   0008C4  06E8               	decf	wreg,f,c
  1081   0008C6  A4D8               	btfss	status,2,c
  1082   0008C8  EF68  F004         	goto	u1711
  1083   0008CC  EF6A  F004         	goto	u1710
  1084   0008D0                     u1711:
  1085   0008D0  EF6C  F004         	goto	l3173
  1086   0008D4                     u1710:
  1087   0008D4  EF78  F004         	goto	l972
  1088   0008D8                     l3173:
  1089                           
  1090                           ;main.c: 319:         if(TMR0_HasOverflowOccured()==1){
  1091   0008D8  ECA5  F009         	call	_TMR0_HasOverflowOccured	;wreg free
  1092   0008DC  06E8               	decf	wreg,f,c
  1093   0008DE  A4D8               	btfss	status,2,c
  1094   0008E0  EF74  F004         	goto	u1721
  1095   0008E4  EF76  F004         	goto	u1720
  1096   0008E8                     u1721:
  1097   0008E8  EF60  F004         	goto	l3169
  1098   0008EC                     u1720:
  1099   0008EC  EFE1  F004         	goto	l965
  1100   0008F0                     l972:
  1101                           
  1102                           ;main.c: 323:     d=DataLen;
  1103   0008F0  C506  F50E         	movff	SendRPIPacket@DataLen,SendRPIPacket@d
  1104   0008F4                     
  1105                           ;main.c: 324:     UART2_Write(d);
  1106   0008F4  500E               	movf	SendRPIPacket@d^(0+1280),w,c
  1107   0008F6  EC70  F009         	call	_UART2_Write
  1108   0008FA                     
  1109                           ;main.c: 325:     Checksum^=d;
  1110   0008FA  500E               	movf	SendRPIPacket@d^(0+1280),w,c
  1111   0008FC  1A0B               	xorwf	SendRPIPacket@Checksum^(0+1280),f,c
  1112   0008FE                     
  1113                           ;main.c: 327:     for(i=0;i<DataLen;i++){
  1114   0008FE  0E00               	movlw	0
  1115   000900  6E0D               	movwf	(SendRPIPacket@i+1)^(0+1280),c
  1116   000902  0E00               	movlw	0
  1117   000904  6E0C               	movwf	SendRPIPacket@i^(0+1280),c
  1118   000906  EFB0  F004         	goto	l3203
  1119   00090A                     l3183:
  1120                           
  1121                           ;main.c: 328:         TMR0_Initialize();
  1122   00090A  EC86  F009         	call	_TMR0_Initialize	;wreg free
  1123   00090E                     
  1124                           ;main.c: 329:         TMR0_StartTimer();
  1125   00090E  ECFA  F009         	call	_TMR0_StartTimer	;wreg free
  1126   000912                     l3187:
  1127                           
  1128                           ;main.c: 331:             if(UART2_is_tx_ready()==1){
  1129   000912  ECE3  F008         	call	_UART2_is_tx_ready	;wreg free
  1130   000916  06E8               	decf	wreg,f,c
  1131   000918  A4D8               	btfss	status,2,c
  1132   00091A  EF91  F004         	goto	u1731
  1133   00091E  EF93  F004         	goto	u1730
  1134   000922                     u1731:
  1135   000922  EF95  F004         	goto	l3191
  1136   000926                     u1730:
  1137   000926  EFA1  F004         	goto	l3195
  1138   00092A                     l3191:
  1139                           
  1140                           ;main.c: 334:             if(TMR0_HasOverflowOccured()==1){
  1141   00092A  ECA5  F009         	call	_TMR0_HasOverflowOccured	;wreg free
  1142   00092E  06E8               	decf	wreg,f,c
  1143   000930  A4D8               	btfss	status,2,c
  1144   000932  EF9D  F004         	goto	u1741
  1145   000936  EF9F  F004         	goto	u1740
  1146   00093A                     u1741:
  1147   00093A  EF89  F004         	goto	l3187
  1148   00093E                     u1740:
  1149   00093E  EFE1  F004         	goto	l965
  1150   000942                     l3195:
  1151                           
  1152                           ;main.c: 338:         d=Data[i];
  1153   000942  500C               	movf	SendRPIPacket@i^(0+1280),w,c
  1154   000944  2404               	addwf	SendRPIPacket@Data^(0+1280),w,c
  1155   000946  6ED9               	movwf	fsr2l,c
  1156   000948  500D               	movf	(SendRPIPacket@i+1)^(0+1280),w,c
  1157   00094A  2005               	addwfc	(SendRPIPacket@Data+1)^(0+1280),w,c
  1158   00094C  6EDA               	movwf	fsr2h,c
  1159   00094E  50DF               	movf	indf2,w,c
  1160   000950  6E0E               	movwf	SendRPIPacket@d^(0+1280),c
  1161   000952                     
  1162                           ;main.c: 339:         UART2_Write(d);
  1163   000952  500E               	movf	SendRPIPacket@d^(0+1280),w,c
  1164   000954  EC70  F009         	call	_UART2_Write
  1165   000958                     
  1166                           ;main.c: 340:         Checksum^=d;
  1167   000958  500E               	movf	SendRPIPacket@d^(0+1280),w,c
  1168   00095A  1A0B               	xorwf	SendRPIPacket@Checksum^(0+1280),f,c
  1169   00095C                     
  1170                           ;main.c: 341:     }
  1171   00095C  4A0C               	infsnz	SendRPIPacket@i^(0+1280),f,c
  1172   00095E  2A0D               	incf	(SendRPIPacket@i+1)^(0+1280),f,c
  1173   000960                     l3203:
  1174   000960  5006               	movf	SendRPIPacket@DataLen^(0+1280),w,c
  1175   000962  6E07               	movwf	??_SendRPIPacket^(0+1280),c
  1176   000964  6A08               	clrf	(??_SendRPIPacket+1)^(0+1280),c
  1177   000966  5007               	movf	??_SendRPIPacket^(0+1280),w,c
  1178   000968  5C0C               	subwf	SendRPIPacket@i^(0+1280),w,c
  1179   00096A  500D               	movf	(SendRPIPacket@i+1)^(0+1280),w,c
  1180   00096C  0A80               	xorlw	128
  1181   00096E  6E09               	movwf	(??_SendRPIPacket+2)^(0+1280),c
  1182   000970  5008               	movf	(??_SendRPIPacket+1)^(0+1280),w,c
  1183   000972  0A80               	xorlw	128
  1184   000974  5809               	subwfb	(??_SendRPIPacket+2)^(0+1280),w,c
  1185   000976  A0D8               	btfss	status,0,c
  1186   000978  EFC0  F004         	goto	u1751
  1187   00097C  EFC2  F004         	goto	u1750
  1188   000980                     u1751:
  1189   000980  EF85  F004         	goto	l3183
  1190   000984                     u1750:
  1191   000984                     
  1192                           ;main.c: 343:     TMR0_Initialize();
  1193   000984  EC86  F009         	call	_TMR0_Initialize	;wreg free
  1194   000988                     
  1195                           ;main.c: 344:     TMR0_StartTimer();
  1196   000988  ECFA  F009         	call	_TMR0_StartTimer	;wreg free
  1197   00098C                     l3209:
  1198                           
  1199                           ;main.c: 346:         if(UART2_is_tx_ready()==1){
  1200   00098C  ECE3  F008         	call	_UART2_is_tx_ready	;wreg free
  1201   000990  06E8               	decf	wreg,f,c
  1202   000992  A4D8               	btfss	status,2,c
  1203   000994  EFCE  F004         	goto	u1761
  1204   000998  EFD0  F004         	goto	u1760
  1205   00099C                     u1761:
  1206   00099C  EFD2  F004         	goto	l3213
  1207   0009A0                     u1760:
  1208   0009A0  EFDE  F004         	goto	l3217
  1209   0009A4                     l3213:
  1210                           
  1211                           ;main.c: 349:         if(TMR0_HasOverflowOccured()==1){
  1212   0009A4  ECA5  F009         	call	_TMR0_HasOverflowOccured	;wreg free
  1213   0009A8  06E8               	decf	wreg,f,c
  1214   0009AA  A4D8               	btfss	status,2,c
  1215   0009AC  EFDA  F004         	goto	u1771
  1216   0009B0  EFDC  F004         	goto	u1770
  1217   0009B4                     u1771:
  1218   0009B4  EFC6  F004         	goto	l3209
  1219   0009B8                     u1770:
  1220   0009B8  EFE1  F004         	goto	l965
  1221   0009BC                     l3217:
  1222                           
  1223                           ;main.c: 353:     UART2_Write(Checksum);
  1224   0009BC  500B               	movf	SendRPIPacket@Checksum^(0+1280),w,c
  1225   0009BE  EC70  F009         	call	_UART2_Write
  1226   0009C2                     l965:
  1227   0009C2  0012               	return		;funcret
  1228   0009C4                     __end_of_SendRPIPacket:
  1229                           	callstack 0
  1230                           
  1231 ;; *************** function _UART2_is_tx_ready *****************
  1232 ;; Defined at:
  1233 ;;		line 122 in file "mcc_generated_files/uart2.c"
  1234 ;; Parameters:    Size  Location     Type
  1235 ;;		None
  1236 ;; Auto vars:     Size  Location     Type
  1237 ;;		None
  1238 ;; Return value:  Size  Location     Type
  1239 ;;                  1    wreg      _Bool 
  1240 ;; Registers used:
  1241 ;;		wreg, status,2
  1242 ;; Tracked objects:
  1243 ;;		On entry : 0/0
  1244 ;;		On exit  : 0/0
  1245 ;;		Unchanged: 0/0
  1246 ;; Data sizes:     COMRAM   BANK5   BANK6   BANK7   BANK8   BANK9  BANK10  BANK11  BANK12  BANK13  BANK14  BANK15  BANK1
      +6  BANK17  BANK18  BANK19  BANK20  BANK21  BANK22  BANK23  BANK24  BANK25  BANK26  BANK27  BANK28  BANK29  BANK30  BANK3
      +1  BANK32  BANK33  BANK34  BANK35  BANK36
  1247 ;;      Params:         0       0       0       0       0       0       0       0       0       0       0       0       
      +0       0       0       0       0       0       0       0       0       0       0       0       0       0       0       
      +0       0       0       0       0       0
  1248 ;;      Locals:         1       0       0       0       0       0       0       0       0       0       0       0       
      +0       0       0       0       0       0       0       0       0       0       0       0       0       0       0       
      +0       0       0       0       0       0
  1249 ;;      Temps:          0       0       0       0       0       0       0       0       0       0       0       0       
      +0       0       0       0       0       0       0       0       0       0       0       0       0       0       0       
      +0       0       0       0       0       0
  1250 ;;      Totals:         1       0       0       0       0       0       0       0       0       0       0       0       
      +0       0       0       0       0       0       0       0       0       0       0       0       0       0       0       
      +0       0       0       0       0       0
  1251 ;;Total ram usage:        1 bytes
  1252 ;; Hardware stack levels used: 1
  1253 ;; Hardware stack levels required when called: 4
  1254 ;; This function calls:
  1255 ;;		Nothing
  1256 ;; This function is called by:
  1257 ;;		_SendRPIPacket
  1258 ;; This function uses a non-reentrant model
  1259 ;;
  1260                           
  1261                           	psect	text2
  1262   0011C6                     __ptext2:
  1263                           	callstack 0
  1264   0011C6                     _UART2_is_tx_ready:
  1265                           	callstack 121
  1266   0011C6                     
  1267                           ;mcc_generated_files/uart2.c: 124:     return (_Bool)(PIR8bits.U2TXIF && U2CON0bits.TXEN
      +                          );
  1268   0011C6  0E00               	movlw	0
  1269   0011C8  6E03               	movwf	_UART2_is_tx_ready$1403^(0+1280),c
  1270   0011CA  A2B6               	btfss	182,1,c	;volatile
  1271   0011CC  EFEA  F008         	goto	u1351
  1272   0011D0  EFEC  F008         	goto	u1350
  1273   0011D4                     u1351:
  1274   0011D4  EFF6  F008         	goto	l678
  1275   0011D8                     u1350:
  1276   0011D8  0102               	movlb	2	; () banked
  1277   0011DA  ABBE               	btfss	190,5,b	;volatile
  1278   0011DC  EFF2  F008         	goto	u1361
  1279   0011E0  EFF4  F008         	goto	u1360
  1280   0011E4                     u1361:
  1281   0011E4  EFF6  F008         	goto	l678
  1282   0011E8                     u1360:
  1283   0011E8                     
  1284                           ; BSR set to: 2
  1285   0011E8  0E01               	movlw	1
  1286   0011EA  6E03               	movwf	_UART2_is_tx_ready$1403^(0+1280),c
  1287   0011EC                     l678:
  1288   0011EC  5003               	movf	_UART2_is_tx_ready$1403^(0+1280),w,c
  1289   0011EE  0012               	return		;funcret
  1290   0011F0                     __end_of_UART2_is_tx_ready:
  1291                           	callstack 0
  1292                           
  1293 ;; *************** function _UART2_Write *****************
  1294 ;; Defined at:
  1295 ;;		line 161 in file "mcc_generated_files/uart2.c"
  1296 ;; Parameters:    Size  Location     Type
  1297 ;;  txData          1    wreg     unsigned char 
  1298 ;; Auto vars:     Size  Location     Type
  1299 ;;  txData          1    2[COMRAM] unsigned char 
  1300 ;; Return value:  Size  Location     Type
  1301 ;;                  1    wreg      void 
  1302 ;; Registers used:
  1303 ;;		wreg
  1304 ;; Tracked objects:
  1305 ;;		On entry : 0/0
  1306 ;;		On exit  : 0/0
  1307 ;;		Unchanged: 0/0
  1308 ;; Data sizes:     COMRAM   BANK5   BANK6   BANK7   BANK8   BANK9  BANK10  BANK11  BANK12  BANK13  BANK14  BANK15  BANK1
      +6  BANK17  BANK18  BANK19  BANK20  BANK21  BANK22  BANK23  BANK24  BANK25  BANK26  BANK27  BANK28  BANK29  BANK30  BANK3
      +1  BANK32  BANK33  BANK34  BANK35  BANK36
  1309 ;;      Params:         0       0       0       0       0       0       0       0       0       0       0       0       
      +0       0       0       0       0       0       0       0       0       0       0       0       0       0       0       
      +0       0       0       0       0       0
  1310 ;;      Locals:         1       0       0       0       0       0       0       0       0       0       0       0       
      +0       0       0       0       0       0       0       0       0       0       0       0       0       0       0       
      +0       0       0       0       0       0
  1311 ;;      Temps:          0       0       0       0       0       0       0       0       0       0       0       0       
      +0       0       0       0       0       0       0       0       0       0       0       0       0       0       0       
      +0       0       0       0       0       0
  1312 ;;      Totals:         1       0       0       0       0       0       0       0       0       0       0       0       
      +0       0       0       0       0       0       0       0       0       0       0       0       0       0       0       
      +0       0       0       0       0       0
  1313 ;;Total ram usage:        1 bytes
  1314 ;; Hardware stack levels used: 1
  1315 ;; Hardware stack levels required when called: 4
  1316 ;; This function calls:
  1317 ;;		Nothing
  1318 ;; This function is called by:
  1319 ;;		_SendRPIPacket
  1320 ;; This function uses a non-reentrant model
  1321 ;;
  1322                           
  1323                           	psect	text3
  1324   0012E0                     __ptext3:
  1325                           	callstack 0
  1326   0012E0                     _UART2_Write:
  1327                           	callstack 121
  1328                           
  1329                           ;incstack = 0
  1330                           ;UART2_Write@txData stored from wreg
  1331   0012E0  6E03               	movwf	UART2_Write@txData^(0+1280),c
  1332   0012E2                     l697:
  1333                           
  1334                           ;mcc_generated_files/uart2.c: 163:     while(0 == PIR8bits.U2TXIF)
  1335   0012E2  A2B6               	btfss	182,1,c	;volatile
  1336   0012E4  EF76  F009         	goto	u281
  1337   0012E8  EF78  F009         	goto	u280
  1338   0012EC                     u281:
  1339   0012EC  EF71  F009         	goto	l697
  1340   0012F0                     u280:
  1341   0012F0                     
  1342                           ;mcc_generated_files/uart2.c: 167:     U2TXB = txData;
  1343   0012F0  C503  F2B6         	movff	UART2_Write@txData,694	;volatile
  1344   0012F4  0012               	return		;funcret
  1345   0012F6                     __end_of_UART2_Write:
  1346                           	callstack 0
  1347                           
  1348 ;; *************** function _SYSTEM_Initialize *****************
  1349 ;; Defined at:
  1350 ;;		line 50 in file "mcc_generated_files/mcc.c"
  1351 ;; Parameters:    Size  Location     Type
  1352 ;;		None
  1353 ;; Auto vars:     Size  Location     Type
  1354 ;;		None
  1355 ;; Return value:  Size  Location     Type
  1356 ;;                  1    wreg      void 
  1357 ;; Registers used:
  1358 ;;		wreg, status,2, status,0, cstack
  1359 ;; Tracked objects:
  1360 ;;		On entry : 0/0
  1361 ;;		On exit  : 0/0
  1362 ;;		Unchanged: 0/0
  1363 ;; Data sizes:     COMRAM   BANK5   BANK6   BANK7   BANK8   BANK9  BANK10  BANK11  BANK12  BANK13  BANK14  BANK15  BANK1
      +6  BANK17  BANK18  BANK19  BANK20  BANK21  BANK22  BANK23  BANK24  BANK25  BANK26  BANK27  BANK28  BANK29  BANK30  BANK3
      +1  BANK32  BANK33  BANK34  BANK35  BANK36
  1364 ;;      Params:         0       0       0       0       0       0       0       0       0       0       0       0       
      +0       0       0       0       0       0       0       0       0       0       0       0       0       0       0       
      +0       0       0       0       0       0
  1365 ;;      Locals:         0       0       0       0       0       0       0       0       0       0       0       0       
      +0       0       0       0       0       0       0       0       0       0       0       0       0       0       0       
      +0       0       0       0       0       0
  1366 ;;      Temps:          0       0       0       0       0       0       0       0       0       0       0       0       
      +0       0       0       0       0       0       0       0       0       0       0       0       0       0       0       
      +0       0       0       0       0       0
  1367 ;;      Totals:         0       0       0       0       0       0       0       0       0       0       0       0       
      +0       0       0       0       0       0       0       0       0       0       0       0       0       0       0       
      +0       0       0       0       0       0
  1368 ;;Total ram usage:        0 bytes
  1369 ;; Hardware stack levels used: 1
  1370 ;; Hardware stack levels required when called: 6
  1371 ;; This function calls:
  1372 ;;		_ADCC_Initialize
  1373 ;;		_EXT_INT_Initialize
  1374 ;;		_INTERRUPT_Initialize
  1375 ;;		_OSCILLATOR_Initialize
  1376 ;;		_PIN_MANAGER_Initialize
  1377 ;;		_PMD_Initialize
  1378 ;;		_TMR0_Initialize
  1379 ;;		_UART1_Initialize
  1380 ;;		_UART2_Initialize
  1381 ;; This function is called by:
  1382 ;;		_main
  1383 ;; This function uses a non-reentrant model
  1384 ;;
  1385                           
  1386                           	psect	text4
  1387   00121A                     __ptext4:
  1388                           	callstack 0
  1389   00121A                     _SYSTEM_Initialize:
  1390                           	callstack 120
  1391   00121A                     
  1392                           ;mcc_generated_files/mcc.c: 52:     INTERRUPT_Initialize();
  1393   00121A  ECFD  F009         	call	_INTERRUPT_Initialize	;wreg free
  1394   00121E                     
  1395                           ;mcc_generated_files/mcc.c: 53:     PMD_Initialize();
  1396   00121E  EC20  F009         	call	_PMD_Initialize	;wreg free
  1397   001222                     
  1398                           ;mcc_generated_files/mcc.c: 54:     PIN_MANAGER_Initialize();
  1399   001222  EC6C  F005         	call	_PIN_MANAGER_Initialize	;wreg free
  1400   001226                     
  1401                           ;mcc_generated_files/mcc.c: 55:     OSCILLATOR_Initialize();
  1402   001226  EC32  F009         	call	_OSCILLATOR_Initialize	;wreg free
  1403   00122A                     
  1404                           ;mcc_generated_files/mcc.c: 56:     ADCC_Initialize();
  1405   00122A  EC1E  F008         	call	_ADCC_Initialize	;wreg free
  1406   00122E                     
  1407                           ;mcc_generated_files/mcc.c: 57:     EXT_INT_Initialize();
  1408   00122E  EC79  F008         	call	_EXT_INT_Initialize	;wreg free
  1409   001232                     
  1410                           ;mcc_generated_files/mcc.c: 58:     TMR0_Initialize();
  1411   001232  EC86  F009         	call	_TMR0_Initialize	;wreg free
  1412   001236                     
  1413                           ;mcc_generated_files/mcc.c: 59:     UART2_Initialize();
  1414   001236  ECEA  F007         	call	_UART2_Initialize	;wreg free
  1415   00123A                     
  1416                           ;mcc_generated_files/mcc.c: 60:     UART1_Initialize();
  1417   00123A  ECB0  F007         	call	_UART1_Initialize	;wreg free
  1418   00123E  0012               	return		;funcret
  1419   001240                     __end_of_SYSTEM_Initialize:
  1420                           	callstack 0
  1421                           
  1422 ;; *************** function _UART2_Initialize *****************
  1423 ;; Defined at:
  1424 ;;		line 66 in file "mcc_generated_files/uart2.c"
  1425 ;; Parameters:    Size  Location     Type
  1426 ;;		None
  1427 ;; Auto vars:     Size  Location     Type
  1428 ;;		None
  1429 ;; Return value:  Size  Location     Type
  1430 ;;                  1    wreg      void 
  1431 ;; Registers used:
  1432 ;;		wreg, status,2, status,0, cstack
  1433 ;; Tracked objects:
  1434 ;;		On entry : 0/0
  1435 ;;		On exit  : 0/0
  1436 ;;		Unchanged: 0/0
  1437 ;; Data sizes:     COMRAM   BANK5   BANK6   BANK7   BANK8   BANK9  BANK10  BANK11  BANK12  BANK13  BANK14  BANK15  BANK1
      +6  BANK17  BANK18  BANK19  BANK20  BANK21  BANK22  BANK23  BANK24  BANK25  BANK26  BANK27  BANK28  BANK29  BANK30  BANK3
      +1  BANK32  BANK33  BANK34  BANK35  BANK36
  1438 ;;      Params:         0       0       0       0       0       0       0       0       0       0       0       0       
      +0       0       0       0       0       0       0       0       0       0       0       0       0       0       0       
      +0       0       0       0       0       0
  1439 ;;      Locals:         0       0       0       0       0       0       0       0       0       0       0       0       
      +0       0       0       0       0       0       0       0       0       0       0       0       0       0       0       
      +0       0       0       0       0       0
  1440 ;;      Temps:          0       0       0       0       0       0       0       0       0       0       0       0       
      +0       0       0       0       0       0       0       0       0       0       0       0       0       0       0       
      +0       0       0       0       0       0
  1441 ;;      Totals:         0       0       0       0       0       0       0       0       0       0       0       0       
      +0       0       0       0       0       0       0       0       0       0       0       0       0       0       0       
      +0       0       0       0       0       0
  1442 ;;Total ram usage:        0 bytes
  1443 ;; Hardware stack levels used: 1
  1444 ;; Hardware stack levels required when called: 5
  1445 ;; This function calls:
  1446 ;;		_UART2_SetErrorHandler
  1447 ;;		_UART2_SetFramingErrorHandler
  1448 ;;		_UART2_SetOverrunErrorHandler
  1449 ;; This function is called by:
  1450 ;;		_SYSTEM_Initialize
  1451 ;; This function uses a non-reentrant model
  1452 ;;
  1453                           
  1454                           	psect	text5
  1455   000FD4                     __ptext5:
  1456                           	callstack 0
  1457   000FD4                     _UART2_Initialize:
  1458                           	callstack 120
  1459   000FD4                     
  1460                           ;mcc_generated_files/uart2.c: 73:     U2P1L = 0x00;
  1461   000FD4  0E00               	movlw	0
  1462   000FD6  0102               	movlb	2	; () banked
  1463   000FD8  6FB8               	movwf	184,b	;volatile
  1464                           
  1465                           ;mcc_generated_files/uart2.c: 76:     U2P2L = 0x00;
  1466   000FDA  0E00               	movlw	0
  1467   000FDC  6FBA               	movwf	186,b	;volatile
  1468                           
  1469                           ;mcc_generated_files/uart2.c: 79:     U2P3L = 0x00;
  1470   000FDE  0E00               	movlw	0
  1471   000FE0  6FBC               	movwf	188,b	;volatile
  1472                           
  1473                           ;mcc_generated_files/uart2.c: 82:     U2CON0 = 0xB0;
  1474   000FE2  0EB0               	movlw	176
  1475   000FE4  6FBE               	movwf	190,b	;volatile
  1476                           
  1477                           ;mcc_generated_files/uart2.c: 85:     U2CON1 = 0x80;
  1478   000FE6  0E80               	movlw	128
  1479   000FE8  6FBF               	movwf	191,b	;volatile
  1480                           
  1481                           ;mcc_generated_files/uart2.c: 88:     U2CON2 = 0x00;
  1482   000FEA  0E00               	movlw	0
  1483   000FEC  6FC0               	movwf	192,b	;volatile
  1484                           
  1485                           ;mcc_generated_files/uart2.c: 91:     U2BRGL = 0x40;
  1486   000FEE  0E40               	movlw	64
  1487   000FF0  6FC1               	movwf	193,b	;volatile
  1488                           
  1489                           ;mcc_generated_files/uart2.c: 94:     U2BRGH = 0x03;
  1490   000FF2  0E03               	movlw	3
  1491   000FF4  6FC2               	movwf	194,b	;volatile
  1492                           
  1493                           ;mcc_generated_files/uart2.c: 97:     U2FIFO = 0x00;
  1494   000FF6  0E00               	movlw	0
  1495   000FF8  6FC3               	movwf	195,b	;volatile
  1496                           
  1497                           ;mcc_generated_files/uart2.c: 100:     U2UIR = 0x00;
  1498   000FFA  0E00               	movlw	0
  1499   000FFC  6FC4               	movwf	196,b	;volatile
  1500                           
  1501                           ;mcc_generated_files/uart2.c: 103:     U2ERRIR = 0x00;
  1502   000FFE  0E00               	movlw	0
  1503   001000  6FC5               	movwf	197,b	;volatile
  1504                           
  1505                           ;mcc_generated_files/uart2.c: 106:     U2ERRIE = 0x00;
  1506   001002  0E00               	movlw	0
  1507   001004  6FC6               	movwf	198,b	;volatile
  1508   001006                     
  1509                           ; BSR set to: 2
  1510                           ;mcc_generated_files/uart2.c: 109:     UART2_SetFramingErrorHandler(UART2_DefaultFraming
      +                          ErrorHandler);
  1511   001006  0E00               	movlw	low _UART2_DefaultFramingErrorHandler
  1512   001008  6E03               	movwf	UART2_SetFramingErrorHandler@interruptHandler^(0+1280),c
  1513   00100A  0E14               	movlw	high _UART2_DefaultFramingErrorHandler
  1514   00100C  6E04               	movwf	(UART2_SetFramingErrorHandler@interruptHandler+1)^(0+1280),c
  1515   00100E  0E00               	movlw	low (_UART2_DefaultFramingErrorHandler shr (0+16))
  1516   001010  6E05               	movwf	(UART2_SetFramingErrorHandler@interruptHandler+2)^(0+1280),c
  1517   001012  ECB6  F009         	call	_UART2_SetFramingErrorHandler	;wreg free
  1518   001016                     
  1519                           ;mcc_generated_files/uart2.c: 110:     UART2_SetOverrunErrorHandler(UART2_DefaultOverrun
      +                          ErrorHandler);
  1520   001016  0EFE               	movlw	low _UART2_DefaultOverrunErrorHandler
  1521   001018  6E03               	movwf	UART2_SetOverrunErrorHandler@interruptHandler^(0+1280),c
  1522   00101A  0E13               	movlw	high _UART2_DefaultOverrunErrorHandler
  1523   00101C  6E04               	movwf	(UART2_SetOverrunErrorHandler@interruptHandler+1)^(0+1280),c
  1524   00101E  0E00               	movlw	low (_UART2_DefaultOverrunErrorHandler shr (0+16))
  1525   001020  6E05               	movwf	(UART2_SetOverrunErrorHandler@interruptHandler+2)^(0+1280),c
  1526   001022  ECAF  F009         	call	_UART2_SetOverrunErrorHandler	;wreg free
  1527   001026                     
  1528                           ;mcc_generated_files/uart2.c: 111:     UART2_SetErrorHandler(UART2_DefaultErrorHandler);
  1529   001026  0E02               	movlw	low _UART2_DefaultErrorHandler
  1530   001028  6E03               	movwf	UART2_SetErrorHandler@interruptHandler^(0+1280),c
  1531   00102A  0E14               	movlw	high _UART2_DefaultErrorHandler
  1532   00102C  6E04               	movwf	(UART2_SetErrorHandler@interruptHandler+1)^(0+1280),c
  1533   00102E  0E00               	movlw	low (_UART2_DefaultErrorHandler shr (0+16))
  1534   001030  6E05               	movwf	(UART2_SetErrorHandler@interruptHandler+2)^(0+1280),c
  1535   001032  ECBD  F009         	call	_UART2_SetErrorHandler	;wreg free
  1536   001036                     
  1537                           ;mcc_generated_files/uart2.c: 113:     uart2RxLastError.status = 0;
  1538   001036  0E00               	movlw	0
  1539   001038  6E4E               	movwf	_uart2RxLastError^(0+1280),c	;volatile
  1540   00103A  0012               	return		;funcret
  1541   00103C                     __end_of_UART2_Initialize:
  1542                           	callstack 0
  1543                           
  1544 ;; *************** function _UART2_SetOverrunErrorHandler *****************
  1545 ;; Defined at:
  1546 ;;		line 185 in file "mcc_generated_files/uart2.c"
  1547 ;; Parameters:    Size  Location     Type
  1548 ;;  interruptHan    3    2[COMRAM] PTR FTN()void 
  1549 ;;		 -> UART2_DefaultOverrunErrorHandler(1), 
  1550 ;; Auto vars:     Size  Location     Type
  1551 ;;		None
  1552 ;; Return value:  Size  Location     Type
  1553 ;;                  1    wreg      void 
  1554 ;; Registers used:
  1555 ;;		wreg, status,2, status,0
  1556 ;; Tracked objects:
  1557 ;;		On entry : 0/0
  1558 ;;		On exit  : 0/0
  1559 ;;		Unchanged: 0/0
  1560 ;; Data sizes:     COMRAM   BANK5   BANK6   BANK7   BANK8   BANK9  BANK10  BANK11  BANK12  BANK13  BANK14  BANK15  BANK1
      +6  BANK17  BANK18  BANK19  BANK20  BANK21  BANK22  BANK23  BANK24  BANK25  BANK26  BANK27  BANK28  BANK29  BANK30  BANK3
      +1  BANK32  BANK33  BANK34  BANK35  BANK36
  1561 ;;      Params:         3       0       0       0       0       0       0       0       0       0       0       0       
      +0       0       0       0       0       0       0       0       0       0       0       0       0       0       0       
      +0       0       0       0       0       0
  1562 ;;      Locals:         0       0       0       0       0       0       0       0       0       0       0       0       
      +0       0       0       0       0       0       0       0       0       0       0       0       0       0       0       
      +0       0       0       0       0       0
  1563 ;;      Temps:          0       0       0       0       0       0       0       0       0       0       0       0       
      +0       0       0       0       0       0       0       0       0       0       0       0       0       0       0       
      +0       0       0       0       0       0
  1564 ;;      Totals:         3       0       0       0       0       0       0       0       0       0       0       0       
      +0       0       0       0       0       0       0       0       0       0       0       0       0       0       0       
      +0       0       0       0       0       0
  1565 ;;Total ram usage:        3 bytes
  1566 ;; Hardware stack levels used: 1
  1567 ;; Hardware stack levels required when called: 4
  1568 ;; This function calls:
  1569 ;;		Nothing
  1570 ;; This function is called by:
  1571 ;;		_UART2_Initialize
  1572 ;; This function uses a non-reentrant model
  1573 ;;
  1574                           
  1575                           	psect	text6
  1576   00135E                     __ptext6:
  1577                           	callstack 0
  1578   00135E                     _UART2_SetOverrunErrorHandler:
  1579                           	callstack 120
  1580   00135E                     
  1581                           ;mcc_generated_files/uart2.c: 186:     UART2_OverrunErrorHandler = interruptHandler;
  1582   00135E  C503  F536         	movff	UART2_SetOverrunErrorHandler@interruptHandler,_UART2_OverrunErrorHandler
  1583   001362  C504  F537         	movff	UART2_SetOverrunErrorHandler@interruptHandler+1,_UART2_OverrunErrorHandler+1
  1584   001366  C505  F538         	movff	UART2_SetOverrunErrorHandler@interruptHandler+2,_UART2_OverrunErrorHandler+2
  1585   00136A  0012               	return		;funcret
  1586   00136C                     __end_of_UART2_SetOverrunErrorHandler:
  1587                           	callstack 0
  1588                           
  1589 ;; *************** function _UART2_SetFramingErrorHandler *****************
  1590 ;; Defined at:
  1591 ;;		line 181 in file "mcc_generated_files/uart2.c"
  1592 ;; Parameters:    Size  Location     Type
  1593 ;;  interruptHan    3    2[COMRAM] PTR FTN()void 
  1594 ;;		 -> UART2_DefaultFramingErrorHandler(1), 
  1595 ;; Auto vars:     Size  Location     Type
  1596 ;;		None
  1597 ;; Return value:  Size  Location     Type
  1598 ;;                  1    wreg      void 
  1599 ;; Registers used:
  1600 ;;		wreg, status,2, status,0
  1601 ;; Tracked objects:
  1602 ;;		On entry : 0/0
  1603 ;;		On exit  : 0/0
  1604 ;;		Unchanged: 0/0
  1605 ;; Data sizes:     COMRAM   BANK5   BANK6   BANK7   BANK8   BANK9  BANK10  BANK11  BANK12  BANK13  BANK14  BANK15  BANK1
      +6  BANK17  BANK18  BANK19  BANK20  BANK21  BANK22  BANK23  BANK24  BANK25  BANK26  BANK27  BANK28  BANK29  BANK30  BANK3
      +1  BANK32  BANK33  BANK34  BANK35  BANK36
  1606 ;;      Params:         3       0       0       0       0       0       0       0       0       0       0       0       
      +0       0       0       0       0       0       0       0       0       0       0       0       0       0       0       
      +0       0       0       0       0       0
  1607 ;;      Locals:         0       0       0       0       0       0       0       0       0       0       0       0       
      +0       0       0       0       0       0       0       0       0       0       0       0       0       0       0       
      +0       0       0       0       0       0
  1608 ;;      Temps:          0       0       0       0       0       0       0       0       0       0       0       0       
      +0       0       0       0       0       0       0       0       0       0       0       0       0       0       0       
      +0       0       0       0       0       0
  1609 ;;      Totals:         3       0       0       0       0       0       0       0       0       0       0       0       
      +0       0       0       0       0       0       0       0       0       0       0       0       0       0       0       
      +0       0       0       0       0       0
  1610 ;;Total ram usage:        3 bytes
  1611 ;; Hardware stack levels used: 1
  1612 ;; Hardware stack levels required when called: 4
  1613 ;; This function calls:
  1614 ;;		Nothing
  1615 ;; This function is called by:
  1616 ;;		_UART2_Initialize
  1617 ;; This function uses a non-reentrant model
  1618 ;;
  1619                           
  1620                           	psect	text7
  1621   00136C                     __ptext7:
  1622                           	callstack 0
  1623   00136C                     _UART2_SetFramingErrorHandler:
  1624                           	callstack 120
  1625   00136C                     
  1626                           ;mcc_generated_files/uart2.c: 182:     UART2_FramingErrorHandler = interruptHandler;
  1627   00136C  C503  F539         	movff	UART2_SetFramingErrorHandler@interruptHandler,_UART2_FramingErrorHandler
  1628   001370  C504  F53A         	movff	UART2_SetFramingErrorHandler@interruptHandler+1,_UART2_FramingErrorHandler+1
  1629   001374  C505  F53B         	movff	UART2_SetFramingErrorHandler@interruptHandler+2,_UART2_FramingErrorHandler+2
  1630   001378  0012               	return		;funcret
  1631   00137A                     __end_of_UART2_SetFramingErrorHandler:
  1632                           	callstack 0
  1633                           
  1634 ;; *************** function _UART2_SetErrorHandler *****************
  1635 ;; Defined at:
  1636 ;;		line 189 in file "mcc_generated_files/uart2.c"
  1637 ;; Parameters:    Size  Location     Type
  1638 ;;  interruptHan    3    2[COMRAM] PTR FTN()void 
  1639 ;;		 -> UART2_DefaultErrorHandler(1), 
  1640 ;; Auto vars:     Size  Location     Type
  1641 ;;		None
  1642 ;; Return value:  Size  Location     Type
  1643 ;;                  1    wreg      void 
  1644 ;; Registers used:
  1645 ;;		wreg, status,2, status,0
  1646 ;; Tracked objects:
  1647 ;;		On entry : 0/0
  1648 ;;		On exit  : 0/0
  1649 ;;		Unchanged: 0/0
  1650 ;; Data sizes:     COMRAM   BANK5   BANK6   BANK7   BANK8   BANK9  BANK10  BANK11  BANK12  BANK13  BANK14  BANK15  BANK1
      +6  BANK17  BANK18  BANK19  BANK20  BANK21  BANK22  BANK23  BANK24  BANK25  BANK26  BANK27  BANK28  BANK29  BANK30  BANK3
      +1  BANK32  BANK33  BANK34  BANK35  BANK36
  1651 ;;      Params:         3       0       0       0       0       0       0       0       0       0       0       0       
      +0       0       0       0       0       0       0       0       0       0       0       0       0       0       0       
      +0       0       0       0       0       0
  1652 ;;      Locals:         0       0       0       0       0       0       0       0       0       0       0       0       
      +0       0       0       0       0       0       0       0       0       0       0       0       0       0       0       
      +0       0       0       0       0       0
  1653 ;;      Temps:          0       0       0       0       0       0       0       0       0       0       0       0       
      +0       0       0       0       0       0       0       0       0       0       0       0       0       0       0       
      +0       0       0       0       0       0
  1654 ;;      Totals:         3       0       0       0       0       0       0       0       0       0       0       0       
      +0       0       0       0       0       0       0       0       0       0       0       0       0       0       0       
      +0       0       0       0       0       0
  1655 ;;Total ram usage:        3 bytes
  1656 ;; Hardware stack levels used: 1
  1657 ;; Hardware stack levels required when called: 4
  1658 ;; This function calls:
  1659 ;;		Nothing
  1660 ;; This function is called by:
  1661 ;;		_UART2_Initialize
  1662 ;; This function uses a non-reentrant model
  1663 ;;
  1664                           
  1665                           	psect	text8
  1666   00137A                     __ptext8:
  1667                           	callstack 0
  1668   00137A                     _UART2_SetErrorHandler:
  1669                           	callstack 120
  1670   00137A                     
  1671                           ;mcc_generated_files/uart2.c: 190:     UART2_ErrorHandler = interruptHandler;
  1672   00137A  C503  F533         	movff	UART2_SetErrorHandler@interruptHandler,_UART2_ErrorHandler
  1673   00137E  C504  F534         	movff	UART2_SetErrorHandler@interruptHandler+1,_UART2_ErrorHandler+1
  1674   001382  C505  F535         	movff	UART2_SetErrorHandler@interruptHandler+2,_UART2_ErrorHandler+2
  1675   001386  0012               	return		;funcret
  1676   001388                     __end_of_UART2_SetErrorHandler:
  1677                           	callstack 0
  1678                           
  1679 ;; *************** function _UART1_Initialize *****************
  1680 ;; Defined at:
  1681 ;;		line 66 in file "mcc_generated_files/uart1.c"
  1682 ;; Parameters:    Size  Location     Type
  1683 ;;		None
  1684 ;; Auto vars:     Size  Location     Type
  1685 ;;		None
  1686 ;; Return value:  Size  Location     Type
  1687 ;;                  1    wreg      void 
  1688 ;; Registers used:
  1689 ;;		wreg, status,2, status,0, cstack
  1690 ;; Tracked objects:
  1691 ;;		On entry : 0/0
  1692 ;;		On exit  : 0/0
  1693 ;;		Unchanged: 0/0
  1694 ;; Data sizes:     COMRAM   BANK5   BANK6   BANK7   BANK8   BANK9  BANK10  BANK11  BANK12  BANK13  BANK14  BANK15  BANK1
      +6  BANK17  BANK18  BANK19  BANK20  BANK21  BANK22  BANK23  BANK24  BANK25  BANK26  BANK27  BANK28  BANK29  BANK30  BANK3
      +1  BANK32  BANK33  BANK34  BANK35  BANK36
  1695 ;;      Params:         0       0       0       0       0       0       0       0       0       0       0       0       
      +0       0       0       0       0       0       0       0       0       0       0       0       0       0       0       
      +0       0       0       0       0       0
  1696 ;;      Locals:         0       0       0       0       0       0       0       0       0       0       0       0       
      +0       0       0       0       0       0       0       0       0       0       0       0       0       0       0       
      +0       0       0       0       0       0
  1697 ;;      Temps:          0       0       0       0       0       0       0       0       0       0       0       0       
      +0       0       0       0       0       0       0       0       0       0       0       0       0       0       0       
      +0       0       0       0       0       0
  1698 ;;      Totals:         0       0       0       0       0       0       0       0       0       0       0       0       
      +0       0       0       0       0       0       0       0       0       0       0       0       0       0       0       
      +0       0       0       0       0       0
  1699 ;;Total ram usage:        0 bytes
  1700 ;; Hardware stack levels used: 1
  1701 ;; Hardware stack levels required when called: 5
  1702 ;; This function calls:
  1703 ;;		_UART1_SetErrorHandler
  1704 ;;		_UART1_SetFramingErrorHandler
  1705 ;;		_UART1_SetOverrunErrorHandler
  1706 ;; This function is called by:
  1707 ;;		_SYSTEM_Initialize
  1708 ;; This function uses a non-reentrant model
  1709 ;;
  1710                           
  1711                           	psect	text9
  1712   000F60                     __ptext9:
  1713                           	callstack 0
  1714   000F60                     _UART1_Initialize:
  1715                           	callstack 120
  1716   000F60                     
  1717                           ;mcc_generated_files/uart1.c: 73:     U1P1L = 0x00;
  1718   000F60  0E00               	movlw	0
  1719   000F62  0102               	movlb	2	; () banked
  1720   000F64  6FA5               	movwf	165,b	;volatile
  1721                           
  1722                           ;mcc_generated_files/uart1.c: 76:     U1P1H = 0x00;
  1723   000F66  0E00               	movlw	0
  1724   000F68  6FA6               	movwf	166,b	;volatile
  1725                           
  1726                           ;mcc_generated_files/uart1.c: 79:     U1P2L = 0x00;
  1727   000F6A  0E00               	movlw	0
  1728   000F6C  6FA7               	movwf	167,b	;volatile
  1729                           
  1730                           ;mcc_generated_files/uart1.c: 82:     U1P2H = 0x00;
  1731   000F6E  0E00               	movlw	0
  1732   000F70  6FA8               	movwf	168,b	;volatile
  1733                           
  1734                           ;mcc_generated_files/uart1.c: 85:     U1P3L = 0x00;
  1735   000F72  0E00               	movlw	0
  1736   000F74  6FA9               	movwf	169,b	;volatile
  1737                           
  1738                           ;mcc_generated_files/uart1.c: 88:     U1P3H = 0x00;
  1739   000F76  0E00               	movlw	0
  1740   000F78  6FAA               	movwf	170,b	;volatile
  1741                           
  1742                           ;mcc_generated_files/uart1.c: 91:     U1CON0 = 0xB0;
  1743   000F7A  0EB0               	movlw	176
  1744   000F7C  6FAB               	movwf	171,b	;volatile
  1745                           
  1746                           ;mcc_generated_files/uart1.c: 94:     U1CON1 = 0x80;
  1747   000F7E  0E80               	movlw	128
  1748   000F80  6FAC               	movwf	172,b	;volatile
  1749                           
  1750                           ;mcc_generated_files/uart1.c: 97:     U1CON2 = 0x00;
  1751   000F82  0E00               	movlw	0
  1752   000F84  6FAD               	movwf	173,b	;volatile
  1753                           
  1754                           ;mcc_generated_files/uart1.c: 100:     U1BRGL = 0x40;
  1755   000F86  0E40               	movlw	64
  1756   000F88  6FAE               	movwf	174,b	;volatile
  1757                           
  1758                           ;mcc_generated_files/uart1.c: 103:     U1BRGH = 0x03;
  1759   000F8A  0E03               	movlw	3
  1760   000F8C  6FAF               	movwf	175,b	;volatile
  1761                           
  1762                           ;mcc_generated_files/uart1.c: 106:     U1FIFO = 0x00;
  1763   000F8E  0E00               	movlw	0
  1764   000F90  6FB0               	movwf	176,b	;volatile
  1765                           
  1766                           ;mcc_generated_files/uart1.c: 109:     U1UIR = 0x00;
  1767   000F92  0E00               	movlw	0
  1768   000F94  6FB1               	movwf	177,b	;volatile
  1769                           
  1770                           ;mcc_generated_files/uart1.c: 112:     U1ERRIR = 0x00;
  1771   000F96  0E00               	movlw	0
  1772   000F98  6FB2               	movwf	178,b	;volatile
  1773                           
  1774                           ;mcc_generated_files/uart1.c: 115:     U1ERRIE = 0x00;
  1775   000F9A  0E00               	movlw	0
  1776   000F9C  6FB3               	movwf	179,b	;volatile
  1777   000F9E                     
  1778                           ; BSR set to: 2
  1779                           ;mcc_generated_files/uart1.c: 118:     UART1_SetFramingErrorHandler(UART1_DefaultFraming
      +                          ErrorHandler);
  1780   000F9E  0E06               	movlw	low _UART1_DefaultFramingErrorHandler
  1781   000FA0  6E03               	movwf	UART1_SetFramingErrorHandler@interruptHandler^(0+1280),c
  1782   000FA2  0E14               	movlw	high _UART1_DefaultFramingErrorHandler
  1783   000FA4  6E04               	movwf	(UART1_SetFramingErrorHandler@interruptHandler+1)^(0+1280),c
  1784   000FA6  0E00               	movlw	low (_UART1_DefaultFramingErrorHandler shr (0+16))
  1785   000FA8  6E05               	movwf	(UART1_SetFramingErrorHandler@interruptHandler+2)^(0+1280),c
  1786   000FAA  ECCB  F009         	call	_UART1_SetFramingErrorHandler	;wreg free
  1787   000FAE                     
  1788                           ;mcc_generated_files/uart1.c: 119:     UART1_SetOverrunErrorHandler(UART1_DefaultOverrun
      +                          ErrorHandler);
  1789   000FAE  0E04               	movlw	low _UART1_DefaultOverrunErrorHandler
  1790   000FB0  6E03               	movwf	UART1_SetOverrunErrorHandler@interruptHandler^(0+1280),c
  1791   000FB2  0E14               	movlw	high _UART1_DefaultOverrunErrorHandler
  1792   000FB4  6E04               	movwf	(UART1_SetOverrunErrorHandler@interruptHandler+1)^(0+1280),c
  1793   000FB6  0E00               	movlw	low (_UART1_DefaultOverrunErrorHandler shr (0+16))
  1794   000FB8  6E05               	movwf	(UART1_SetOverrunErrorHandler@interruptHandler+2)^(0+1280),c
  1795   000FBA  ECC4  F009         	call	_UART1_SetOverrunErrorHandler	;wreg free
  1796   000FBE                     
  1797                           ;mcc_generated_files/uart1.c: 120:     UART1_SetErrorHandler(UART1_DefaultErrorHandler);
  1798   000FBE  0E08               	movlw	low _UART1_DefaultErrorHandler
  1799   000FC0  6E03               	movwf	UART1_SetErrorHandler@interruptHandler^(0+1280),c
  1800   000FC2  0E14               	movlw	high _UART1_DefaultErrorHandler
  1801   000FC4  6E04               	movwf	(UART1_SetErrorHandler@interruptHandler+1)^(0+1280),c
  1802   000FC6  0E00               	movlw	low (_UART1_DefaultErrorHandler shr (0+16))
  1803   000FC8  6E05               	movwf	(UART1_SetErrorHandler@interruptHandler+2)^(0+1280),c
  1804   000FCA  ECD2  F009         	call	_UART1_SetErrorHandler	;wreg free
  1805   000FCE                     
  1806                           ;mcc_generated_files/uart1.c: 122:     uart1RxLastError.status = 0;
  1807   000FCE  0E00               	movlw	0
  1808   000FD0  6E4F               	movwf	_uart1RxLastError^(0+1280),c	;volatile
  1809   000FD2  0012               	return		;funcret
  1810   000FD4                     __end_of_UART1_Initialize:
  1811                           	callstack 0
  1812                           
  1813 ;; *************** function _UART1_SetOverrunErrorHandler *****************
  1814 ;; Defined at:
  1815 ;;		line 194 in file "mcc_generated_files/uart1.c"
  1816 ;; Parameters:    Size  Location     Type
  1817 ;;  interruptHan    3    2[COMRAM] PTR FTN()void 
  1818 ;;		 -> UART1_DefaultOverrunErrorHandler(1), 
  1819 ;; Auto vars:     Size  Location     Type
  1820 ;;		None
  1821 ;; Return value:  Size  Location     Type
  1822 ;;                  1    wreg      void 
  1823 ;; Registers used:
  1824 ;;		wreg, status,2, status,0
  1825 ;; Tracked objects:
  1826 ;;		On entry : 0/0
  1827 ;;		On exit  : 0/0
  1828 ;;		Unchanged: 0/0
  1829 ;; Data sizes:     COMRAM   BANK5   BANK6   BANK7   BANK8   BANK9  BANK10  BANK11  BANK12  BANK13  BANK14  BANK15  BANK1
      +6  BANK17  BANK18  BANK19  BANK20  BANK21  BANK22  BANK23  BANK24  BANK25  BANK26  BANK27  BANK28  BANK29  BANK30  BANK3
      +1  BANK32  BANK33  BANK34  BANK35  BANK36
  1830 ;;      Params:         3       0       0       0       0       0       0       0       0       0       0       0       
      +0       0       0       0       0       0       0       0       0       0       0       0       0       0       0       
      +0       0       0       0       0       0
  1831 ;;      Locals:         0       0       0       0       0       0       0       0       0       0       0       0       
      +0       0       0       0       0       0       0       0       0       0       0       0       0       0       0       
      +0       0       0       0       0       0
  1832 ;;      Temps:          0       0       0       0       0       0       0       0       0       0       0       0       
      +0       0       0       0       0       0       0       0       0       0       0       0       0       0       0       
      +0       0       0       0       0       0
  1833 ;;      Totals:         3       0       0       0       0       0       0       0       0       0       0       0       
      +0       0       0       0       0       0       0       0       0       0       0       0       0       0       0       
      +0       0       0       0       0       0
  1834 ;;Total ram usage:        3 bytes
  1835 ;; Hardware stack levels used: 1
  1836 ;; Hardware stack levels required when called: 4
  1837 ;; This function calls:
  1838 ;;		Nothing
  1839 ;; This function is called by:
  1840 ;;		_UART1_Initialize
  1841 ;; This function uses a non-reentrant model
  1842 ;;
  1843                           
  1844                           	psect	text10
  1845   001388                     __ptext10:
  1846                           	callstack 0
  1847   001388                     _UART1_SetOverrunErrorHandler:
  1848                           	callstack 120
  1849   001388                     
  1850                           ;mcc_generated_files/uart1.c: 195:     UART1_OverrunErrorHandler = interruptHandler;
  1851   001388  C503  F548         	movff	UART1_SetOverrunErrorHandler@interruptHandler,_UART1_OverrunErrorHandler
  1852   00138C  C504  F549         	movff	UART1_SetOverrunErrorHandler@interruptHandler+1,_UART1_OverrunErrorHandler+1
  1853   001390  C505  F54A         	movff	UART1_SetOverrunErrorHandler@interruptHandler+2,_UART1_OverrunErrorHandler+2
  1854   001394  0012               	return		;funcret
  1855   001396                     __end_of_UART1_SetOverrunErrorHandler:
  1856                           	callstack 0
  1857                           
  1858 ;; *************** function _UART1_SetFramingErrorHandler *****************
  1859 ;; Defined at:
  1860 ;;		line 190 in file "mcc_generated_files/uart1.c"
  1861 ;; Parameters:    Size  Location     Type
  1862 ;;  interruptHan    3    2[COMRAM] PTR FTN()void 
  1863 ;;		 -> UART1_DefaultFramingErrorHandler(1), 
  1864 ;; Auto vars:     Size  Location     Type
  1865 ;;		None
  1866 ;; Return value:  Size  Location     Type
  1867 ;;                  1    wreg      void 
  1868 ;; Registers used:
  1869 ;;		wreg, status,2, status,0
  1870 ;; Tracked objects:
  1871 ;;		On entry : 0/0
  1872 ;;		On exit  : 0/0
  1873 ;;		Unchanged: 0/0
  1874 ;; Data sizes:     COMRAM   BANK5   BANK6   BANK7   BANK8   BANK9  BANK10  BANK11  BANK12  BANK13  BANK14  BANK15  BANK1
      +6  BANK17  BANK18  BANK19  BANK20  BANK21  BANK22  BANK23  BANK24  BANK25  BANK26  BANK27  BANK28  BANK29  BANK30  BANK3
      +1  BANK32  BANK33  BANK34  BANK35  BANK36
  1875 ;;      Params:         3       0       0       0       0       0       0       0       0       0       0       0       
      +0       0       0       0       0       0       0       0       0       0       0       0       0       0       0       
      +0       0       0       0       0       0
  1876 ;;      Locals:         0       0       0       0       0       0       0       0       0       0       0       0       
      +0       0       0       0       0       0       0       0       0       0       0       0       0       0       0       
      +0       0       0       0       0       0
  1877 ;;      Temps:          0       0       0       0       0       0       0       0       0       0       0       0       
      +0       0       0       0       0       0       0       0       0       0       0       0       0       0       0       
      +0       0       0       0       0       0
  1878 ;;      Totals:         3       0       0       0       0       0       0       0       0       0       0       0       
      +0       0       0       0       0       0       0       0       0       0       0       0       0       0       0       
      +0       0       0       0       0       0
  1879 ;;Total ram usage:        3 bytes
  1880 ;; Hardware stack levels used: 1
  1881 ;; Hardware stack levels required when called: 4
  1882 ;; This function calls:
  1883 ;;		Nothing
  1884 ;; This function is called by:
  1885 ;;		_UART1_Initialize
  1886 ;; This function uses a non-reentrant model
  1887 ;;
  1888                           
  1889                           	psect	text11
  1890   001396                     __ptext11:
  1891                           	callstack 0
  1892   001396                     _UART1_SetFramingErrorHandler:
  1893                           	callstack 120
  1894   001396                     
  1895                           ;mcc_generated_files/uart1.c: 191:     UART1_FramingErrorHandler = interruptHandler;
  1896   001396  C503  F54B         	movff	UART1_SetFramingErrorHandler@interruptHandler,_UART1_FramingErrorHandler
  1897   00139A  C504  F54C         	movff	UART1_SetFramingErrorHandler@interruptHandler+1,_UART1_FramingErrorHandler+1
  1898   00139E  C505  F54D         	movff	UART1_SetFramingErrorHandler@interruptHandler+2,_UART1_FramingErrorHandler+2
  1899   0013A2  0012               	return		;funcret
  1900   0013A4                     __end_of_UART1_SetFramingErrorHandler:
  1901                           	callstack 0
  1902                           
  1903 ;; *************** function _UART1_SetErrorHandler *****************
  1904 ;; Defined at:
  1905 ;;		line 198 in file "mcc_generated_files/uart1.c"
  1906 ;; Parameters:    Size  Location     Type
  1907 ;;  interruptHan    3    2[COMRAM] PTR FTN()void 
  1908 ;;		 -> UART1_DefaultErrorHandler(1), 
  1909 ;; Auto vars:     Size  Location     Type
  1910 ;;		None
  1911 ;; Return value:  Size  Location     Type
  1912 ;;                  1    wreg      void 
  1913 ;; Registers used:
  1914 ;;		wreg, status,2, status,0
  1915 ;; Tracked objects:
  1916 ;;		On entry : 0/0
  1917 ;;		On exit  : 0/0
  1918 ;;		Unchanged: 0/0
  1919 ;; Data sizes:     COMRAM   BANK5   BANK6   BANK7   BANK8   BANK9  BANK10  BANK11  BANK12  BANK13  BANK14  BANK15  BANK1
      +6  BANK17  BANK18  BANK19  BANK20  BANK21  BANK22  BANK23  BANK24  BANK25  BANK26  BANK27  BANK28  BANK29  BANK30  BANK3
      +1  BANK32  BANK33  BANK34  BANK35  BANK36
  1920 ;;      Params:         3       0       0       0       0       0       0       0       0       0       0       0       
      +0       0       0       0       0       0       0       0       0       0       0       0       0       0       0       
      +0       0       0       0       0       0
  1921 ;;      Locals:         0       0       0       0       0       0       0       0       0       0       0       0       
      +0       0       0       0       0       0       0       0       0       0       0       0       0       0       0       
      +0       0       0       0       0       0
  1922 ;;      Temps:          0       0       0       0       0       0       0       0       0       0       0       0       
      +0       0       0       0       0       0       0       0       0       0       0       0       0       0       0       
      +0       0       0       0       0       0
  1923 ;;      Totals:         3       0       0       0       0       0       0       0       0       0       0       0       
      +0       0       0       0       0       0       0       0       0       0       0       0       0       0       0       
      +0       0       0       0       0       0
  1924 ;;Total ram usage:        3 bytes
  1925 ;; Hardware stack levels used: 1
  1926 ;; Hardware stack levels required when called: 4
  1927 ;; This function calls:
  1928 ;;		Nothing
  1929 ;; This function is called by:
  1930 ;;		_UART1_Initialize
  1931 ;; This function uses a non-reentrant model
  1932 ;;
  1933                           
  1934                           	psect	text12
  1935   0013A4                     __ptext12:
  1936                           	callstack 0
  1937   0013A4                     _UART1_SetErrorHandler:
  1938                           	callstack 120
  1939   0013A4                     
  1940                           ;mcc_generated_files/uart1.c: 199:     UART1_ErrorHandler = interruptHandler;
  1941   0013A4  C503  F545         	movff	UART1_SetErrorHandler@interruptHandler,_UART1_ErrorHandler
  1942   0013A8  C504  F546         	movff	UART1_SetErrorHandler@interruptHandler+1,_UART1_ErrorHandler+1
  1943   0013AC  C505  F547         	movff	UART1_SetErrorHandler@interruptHandler+2,_UART1_ErrorHandler+2
  1944   0013B0  0012               	return		;funcret
  1945   0013B2                     __end_of_UART1_SetErrorHandler:
  1946                           	callstack 0
  1947                           
  1948 ;; *************** function _PMD_Initialize *****************
  1949 ;; Defined at:
  1950 ;;		line 79 in file "mcc_generated_files/mcc.c"
  1951 ;; Parameters:    Size  Location     Type
  1952 ;;		None
  1953 ;; Auto vars:     Size  Location     Type
  1954 ;;		None
  1955 ;; Return value:  Size  Location     Type
  1956 ;;                  1    wreg      void 
  1957 ;; Registers used:
  1958 ;;		wreg, status,2
  1959 ;; Tracked objects:
  1960 ;;		On entry : 0/0
  1961 ;;		On exit  : 0/0
  1962 ;;		Unchanged: 0/0
  1963 ;; Data sizes:     COMRAM   BANK5   BANK6   BANK7   BANK8   BANK9  BANK10  BANK11  BANK12  BANK13  BANK14  BANK15  BANK1
      +6  BANK17  BANK18  BANK19  BANK20  BANK21  BANK22  BANK23  BANK24  BANK25  BANK26  BANK27  BANK28  BANK29  BANK30  BANK3
      +1  BANK32  BANK33  BANK34  BANK35  BANK36
  1964 ;;      Params:         0       0       0       0       0       0       0       0       0       0       0       0       
      +0       0       0       0       0       0       0       0       0       0       0       0       0       0       0       
      +0       0       0       0       0       0
  1965 ;;      Locals:         0       0       0       0       0       0       0       0       0       0       0       0       
      +0       0       0       0       0       0       0       0       0       0       0       0       0       0       0       
      +0       0       0       0       0       0
  1966 ;;      Temps:          0       0       0       0       0       0       0       0       0       0       0       0       
      +0       0       0       0       0       0       0       0       0       0       0       0       0       0       0       
      +0       0       0       0       0       0
  1967 ;;      Totals:         0       0       0       0       0       0       0       0       0       0       0       0       
      +0       0       0       0       0       0       0       0       0       0       0       0       0       0       0       
      +0       0       0       0       0       0
  1968 ;;Total ram usage:        0 bytes
  1969 ;; Hardware stack levels used: 1
  1970 ;; Hardware stack levels required when called: 4
  1971 ;; This function calls:
  1972 ;;		Nothing
  1973 ;; This function is called by:
  1974 ;;		_SYSTEM_Initialize
  1975 ;; This function uses a non-reentrant model
  1976 ;;
  1977                           
  1978                           	psect	text13
  1979   001240                     __ptext13:
  1980                           	callstack 0
  1981   001240                     _PMD_Initialize:
  1982                           	callstack 121
  1983   001240                     
  1984                           ;mcc_generated_files/mcc.c: 82:     PMD0 = 0x00;
  1985   001240  0E00               	movlw	0
  1986   001242  0100               	movlb	0	; () banked
  1987   001244  6F60               	movwf	96,b	;volatile
  1988                           
  1989                           ;mcc_generated_files/mcc.c: 84:     PMD1 = 0x00;
  1990   001246  0E00               	movlw	0
  1991   001248  6F61               	movwf	97,b	;volatile
  1992                           
  1993                           ;mcc_generated_files/mcc.c: 86:     PMD3 = 0x00;
  1994   00124A  0E00               	movlw	0
  1995   00124C  6F63               	movwf	99,b	;volatile
  1996                           
  1997                           ;mcc_generated_files/mcc.c: 88:     PMD4 = 0x00;
  1998   00124E  0E00               	movlw	0
  1999   001250  6F64               	movwf	100,b	;volatile
  2000                           
  2001                           ;mcc_generated_files/mcc.c: 90:     PMD5 = 0x00;
  2002   001252  0E00               	movlw	0
  2003   001254  6F65               	movwf	101,b	;volatile
  2004                           
  2005                           ;mcc_generated_files/mcc.c: 92:     PMD6 = 0x00;
  2006   001256  0E00               	movlw	0
  2007   001258  6F66               	movwf	102,b	;volatile
  2008                           
  2009                           ;mcc_generated_files/mcc.c: 94:     PMD7 = 0x00;
  2010   00125A  0E00               	movlw	0
  2011   00125C  6F67               	movwf	103,b	;volatile
  2012                           
  2013                           ;mcc_generated_files/mcc.c: 96:     PMD8 = 0x00;
  2014   00125E  0E00               	movlw	0
  2015   001260  6F68               	movwf	104,b	;volatile
  2016   001262                     
  2017                           ; BSR set to: 0
  2018   001262  0012               	return		;funcret
  2019   001264                     __end_of_PMD_Initialize:
  2020                           	callstack 0
  2021                           
  2022 ;; *************** function _PIN_MANAGER_Initialize *****************
  2023 ;; Defined at:
  2024 ;;		line 55 in file "mcc_generated_files/pin_manager.c"
  2025 ;; Parameters:    Size  Location     Type
  2026 ;;		None
  2027 ;; Auto vars:     Size  Location     Type
  2028 ;;		None
  2029 ;; Return value:  Size  Location     Type
  2030 ;;                  1    wreg      void 
  2031 ;; Registers used:
  2032 ;;		wreg, status,2
  2033 ;; Tracked objects:
  2034 ;;		On entry : 0/0
  2035 ;;		On exit  : 0/0
  2036 ;;		Unchanged: 0/0
  2037 ;; Data sizes:     COMRAM   BANK5   BANK6   BANK7   BANK8   BANK9  BANK10  BANK11  BANK12  BANK13  BANK14  BANK15  BANK1
      +6  BANK17  BANK18  BANK19  BANK20  BANK21  BANK22  BANK23  BANK24  BANK25  BANK26  BANK27  BANK28  BANK29  BANK30  BANK3
      +1  BANK32  BANK33  BANK34  BANK35  BANK36
  2038 ;;      Params:         0       0       0       0       0       0       0       0       0       0       0       0       
      +0       0       0       0       0       0       0       0       0       0       0       0       0       0       0       
      +0       0       0       0       0       0
  2039 ;;      Locals:         0       0       0       0       0       0       0       0       0       0       0       0       
      +0       0       0       0       0       0       0       0       0       0       0       0       0       0       0       
      +0       0       0       0       0       0
  2040 ;;      Temps:          0       0       0       0       0       0       0       0       0       0       0       0       
      +0       0       0       0       0       0       0       0       0       0       0       0       0       0       0       
      +0       0       0       0       0       0
  2041 ;;      Totals:         0       0       0       0       0       0       0       0       0       0       0       0       
      +0       0       0       0       0       0       0       0       0       0       0       0       0       0       0       
      +0       0       0       0       0       0
  2042 ;;Total ram usage:        0 bytes
  2043 ;; Hardware stack levels used: 1
  2044 ;; Hardware stack levels required when called: 4
  2045 ;; This function calls:
  2046 ;;		Nothing
  2047 ;; This function is called by:
  2048 ;;		_SYSTEM_Initialize
  2049 ;; This function uses a non-reentrant model
  2050 ;;
  2051                           
  2052                           	psect	text14
  2053   000AD8                     __ptext14:
  2054                           	callstack 0
  2055   000AD8                     _PIN_MANAGER_Initialize:
  2056                           	callstack 121
  2057   000AD8                     
  2058                           ;mcc_generated_files/pin_manager.c: 60:     LATE = 0x00;
  2059   000AD8  0E00               	movlw	0
  2060   000ADA  6EC2               	movwf	194,c	;volatile
  2061                           
  2062                           ;mcc_generated_files/pin_manager.c: 61:     LATD = 0x00;
  2063   000ADC  0E00               	movlw	0
  2064   000ADE  6EC1               	movwf	193,c	;volatile
  2065                           
  2066                           ;mcc_generated_files/pin_manager.c: 62:     LATA = 0x00;
  2067   000AE0  0E00               	movlw	0
  2068   000AE2  6EBE               	movwf	190,c	;volatile
  2069                           
  2070                           ;mcc_generated_files/pin_manager.c: 63:     LATF = 0x00;
  2071   000AE4  0E00               	movlw	0
  2072   000AE6  6EC3               	movwf	195,c	;volatile
  2073                           
  2074                           ;mcc_generated_files/pin_manager.c: 64:     LATB = 0x00;
  2075   000AE8  0E00               	movlw	0
  2076   000AEA  6EBF               	movwf	191,c	;volatile
  2077                           
  2078                           ;mcc_generated_files/pin_manager.c: 65:     LATC = 0x00;
  2079   000AEC  0E00               	movlw	0
  2080   000AEE  6EC0               	movwf	192,c	;volatile
  2081                           
  2082                           ;mcc_generated_files/pin_manager.c: 70:     TRISE = 0x07;
  2083   000AF0  0E07               	movlw	7
  2084   000AF2  6ECA               	movwf	202,c	;volatile
  2085                           
  2086                           ;mcc_generated_files/pin_manager.c: 71:     TRISF = 0x00;
  2087   000AF4  0E00               	movlw	0
  2088   000AF6  6ECB               	movwf	203,c	;volatile
  2089                           
  2090                           ;mcc_generated_files/pin_manager.c: 72:     TRISA = 0x81;
  2091   000AF8  0E81               	movlw	129
  2092   000AFA  6EC6               	movwf	198,c	;volatile
  2093                           
  2094                           ;mcc_generated_files/pin_manager.c: 73:     TRISB = 0xEF;
  2095   000AFC  0EEF               	movlw	239
  2096   000AFE  6EC7               	movwf	199,c	;volatile
  2097                           
  2098                           ;mcc_generated_files/pin_manager.c: 74:     TRISC = 0x80;
  2099   000B00  0E80               	movlw	128
  2100   000B02  6EC8               	movwf	200,c	;volatile
  2101   000B04                     
  2102                           ;mcc_generated_files/pin_manager.c: 75:     TRISD = 0xFF;
  2103   000B04  68C9               	setf	201,c	;volatile
  2104                           
  2105                           ;mcc_generated_files/pin_manager.c: 80:     ANSELD = 0x00;
  2106   000B06  0E00               	movlw	0
  2107   000B08  0104               	movlb	4	; () banked
  2108   000B0A  6F18               	movwf	24,b	;volatile
  2109                           
  2110                           ;mcc_generated_files/pin_manager.c: 81:     ANSELC = 0x7F;
  2111   000B0C  0E7F               	movlw	127
  2112   000B0E  6F10               	movwf	16,b	;volatile
  2113                           
  2114                           ;mcc_generated_files/pin_manager.c: 82:     ANSELB = 0xD8;
  2115   000B10  0ED8               	movlw	216
  2116   000B12  6F08               	movwf	8,b	;volatile
  2117                           
  2118                           ;mcc_generated_files/pin_manager.c: 83:     ANSELE = 0x07;
  2119   000B14  0E07               	movlw	7
  2120   000B16  6F20               	movwf	32,b	;volatile
  2121   000B18                     
  2122                           ; BSR set to: 4
  2123                           ;mcc_generated_files/pin_manager.c: 84:     ANSELF = 0xFF;
  2124   000B18  6928               	setf	40,b	;volatile
  2125                           
  2126                           ;mcc_generated_files/pin_manager.c: 85:     ANSELA = 0x7F;
  2127   000B1A  0E7F               	movlw	127
  2128   000B1C  6F00               	movwf	0,b	;volatile
  2129                           
  2130                           ;mcc_generated_files/pin_manager.c: 90:     WPUD = 0x00;
  2131   000B1E  0E00               	movlw	0
  2132   000B20  6F19               	movwf	25,b	;volatile
  2133                           
  2134                           ;mcc_generated_files/pin_manager.c: 91:     WPUF = 0x00;
  2135   000B22  0E00               	movlw	0
  2136   000B24  6F29               	movwf	41,b	;volatile
  2137                           
  2138                           ;mcc_generated_files/pin_manager.c: 92:     WPUE = 0x00;
  2139   000B26  0E00               	movlw	0
  2140   000B28  6F21               	movwf	33,b	;volatile
  2141                           
  2142                           ;mcc_generated_files/pin_manager.c: 93:     WPUB = 0x00;
  2143   000B2A  0E00               	movlw	0
  2144   000B2C  6F09               	movwf	9,b	;volatile
  2145                           
  2146                           ;mcc_generated_files/pin_manager.c: 94:     WPUA = 0x00;
  2147   000B2E  0E00               	movlw	0
  2148   000B30  6F01               	movwf	1,b	;volatile
  2149                           
  2150                           ;mcc_generated_files/pin_manager.c: 95:     WPUC = 0x00;
  2151   000B32  0E00               	movlw	0
  2152   000B34  6F11               	movwf	17,b	;volatile
  2153                           
  2154                           ;mcc_generated_files/pin_manager.c: 100:     RB1I2C = 0x00;
  2155   000B36  0E00               	movlw	0
  2156   000B38  0102               	movlb	2	; () banked
  2157   000B3A  6F89               	movwf	137,b	;volatile
  2158                           
  2159                           ;mcc_generated_files/pin_manager.c: 101:     RB2I2C = 0x00;
  2160   000B3C  0E00               	movlw	0
  2161   000B3E  6F88               	movwf	136,b	;volatile
  2162                           
  2163                           ;mcc_generated_files/pin_manager.c: 102:     RC3I2C = 0x00;
  2164   000B40  0E00               	movlw	0
  2165   000B42  6F87               	movwf	135,b	;volatile
  2166                           
  2167                           ;mcc_generated_files/pin_manager.c: 103:     RC4I2C = 0x00;
  2168   000B44  0E00               	movlw	0
  2169   000B46  6F86               	movwf	134,b	;volatile
  2170                           
  2171                           ;mcc_generated_files/pin_manager.c: 108:     ODCONE = 0x00;
  2172   000B48  0E00               	movlw	0
  2173   000B4A  0104               	movlb	4	; () banked
  2174   000B4C  6F22               	movwf	34,b	;volatile
  2175                           
  2176                           ;mcc_generated_files/pin_manager.c: 109:     ODCONF = 0x00;
  2177   000B4E  0E00               	movlw	0
  2178   000B50  6F2A               	movwf	42,b	;volatile
  2179                           
  2180                           ;mcc_generated_files/pin_manager.c: 110:     ODCONA = 0x00;
  2181   000B52  0E00               	movlw	0
  2182   000B54  6F02               	movwf	2,b	;volatile
  2183                           
  2184                           ;mcc_generated_files/pin_manager.c: 111:     ODCONB = 0x00;
  2185   000B56  0E00               	movlw	0
  2186   000B58  6F0A               	movwf	10,b	;volatile
  2187                           
  2188                           ;mcc_generated_files/pin_manager.c: 112:     ODCONC = 0x00;
  2189   000B5A  0E00               	movlw	0
  2190   000B5C  6F12               	movwf	18,b	;volatile
  2191                           
  2192                           ;mcc_generated_files/pin_manager.c: 113:     ODCOND = 0x00;
  2193   000B5E  0E00               	movlw	0
  2194   000B60  6F1A               	movwf	26,b	;volatile
  2195   000B62                     
  2196                           ; BSR set to: 4
  2197                           ;mcc_generated_files/pin_manager.c: 118:     SLRCONA = 0xFF;
  2198   000B62  6903               	setf	3,b	;volatile
  2199   000B64                     
  2200                           ; BSR set to: 4
  2201                           ;mcc_generated_files/pin_manager.c: 119:     SLRCONB = 0xFF;
  2202   000B64  690B               	setf	11,b	;volatile
  2203   000B66                     
  2204                           ; BSR set to: 4
  2205                           ;mcc_generated_files/pin_manager.c: 120:     SLRCONC = 0xFF;
  2206   000B66  6913               	setf	19,b	;volatile
  2207   000B68                     
  2208                           ; BSR set to: 4
  2209                           ;mcc_generated_files/pin_manager.c: 121:     SLRCOND = 0xFF;
  2210   000B68  691B               	setf	27,b	;volatile
  2211                           
  2212                           ;mcc_generated_files/pin_manager.c: 122:     SLRCONE = 0x07;
  2213   000B6A  0E07               	movlw	7
  2214   000B6C  6F23               	movwf	35,b	;volatile
  2215   000B6E                     
  2216                           ; BSR set to: 4
  2217                           ;mcc_generated_files/pin_manager.c: 123:     SLRCONF = 0xFF;
  2218   000B6E  692B               	setf	43,b	;volatile
  2219   000B70                     
  2220                           ; BSR set to: 4
  2221                           ;mcc_generated_files/pin_manager.c: 128:     INLVLA = 0xFF;
  2222   000B70  6904               	setf	4,b	;volatile
  2223   000B72                     
  2224                           ; BSR set to: 4
  2225                           ;mcc_generated_files/pin_manager.c: 129:     INLVLB = 0xFF;
  2226   000B72  690C               	setf	12,b	;volatile
  2227   000B74                     
  2228                           ; BSR set to: 4
  2229                           ;mcc_generated_files/pin_manager.c: 130:     INLVLC = 0xFF;
  2230   000B74  6914               	setf	20,b	;volatile
  2231   000B76                     
  2232                           ; BSR set to: 4
  2233                           ;mcc_generated_files/pin_manager.c: 131:     INLVLD = 0xFF;
  2234   000B76  691C               	setf	28,b	;volatile
  2235                           
  2236                           ;mcc_generated_files/pin_manager.c: 132:     INLVLE = 0x0F;
  2237   000B78  0E0F               	movlw	15
  2238   000B7A  6F24               	movwf	36,b	;volatile
  2239   000B7C                     
  2240                           ; BSR set to: 4
  2241                           ;mcc_generated_files/pin_manager.c: 133:     INLVLF = 0xFF;
  2242   000B7C  692C               	setf	44,b	;volatile
  2243                           
  2244                           ;mcc_generated_files/pin_manager.c: 142:     U2RXPPS = 0x0D;
  2245   000B7E  0E0D               	movlw	13
  2246   000B80  0102               	movlb	2	; () banked
  2247   000B82  6F74               	movwf	116,b	;volatile
  2248                           
  2249                           ;mcc_generated_files/pin_manager.c: 143:     INT0PPS = 0x08;
  2250   000B84  0E08               	movlw	8
  2251   000B86  6F3E               	movwf	62,b	;volatile
  2252                           
  2253                           ;mcc_generated_files/pin_manager.c: 144:     RB4PPS = 0x23;
  2254   000B88  0E23               	movlw	35
  2255   000B8A  6F0D               	movwf	13,b	;volatile
  2256                           
  2257                           ;mcc_generated_files/pin_manager.c: 145:     INT2PPS = 0x0A;
  2258   000B8C  0E0A               	movlw	10
  2259   000B8E  6F40               	movwf	64,b	;volatile
  2260                           
  2261                           ;mcc_generated_files/pin_manager.c: 146:     INT1PPS = 0x09;
  2262   000B90  0E09               	movlw	9
  2263   000B92  6F3F               	movwf	63,b	;volatile
  2264                           
  2265                           ;mcc_generated_files/pin_manager.c: 147:     RC6PPS = 0x20;
  2266   000B94  0E20               	movlw	32
  2267   000B96  6F17               	movwf	23,b	;volatile
  2268                           
  2269                           ;mcc_generated_files/pin_manager.c: 148:     U1RXPPS = 0x17;
  2270   000B98  0E17               	movlw	23
  2271   000B9A  6F72               	movwf	114,b	;volatile
  2272   000B9C                     
  2273                           ; BSR set to: 2
  2274   000B9C  0012               	return		;funcret
  2275   000B9E                     __end_of_PIN_MANAGER_Initialize:
  2276                           	callstack 0
  2277                           
  2278 ;; *************** function _OSCILLATOR_Initialize *****************
  2279 ;; Defined at:
  2280 ;;		line 63 in file "mcc_generated_files/mcc.c"
  2281 ;; Parameters:    Size  Location     Type
  2282 ;;		None
  2283 ;; Auto vars:     Size  Location     Type
  2284 ;;		None
  2285 ;; Return value:  Size  Location     Type
  2286 ;;                  1    wreg      void 
  2287 ;; Registers used:
  2288 ;;		wreg, status,2
  2289 ;; Tracked objects:
  2290 ;;		On entry : 0/0
  2291 ;;		On exit  : 0/0
  2292 ;;		Unchanged: 0/0
  2293 ;; Data sizes:     COMRAM   BANK5   BANK6   BANK7   BANK8   BANK9  BANK10  BANK11  BANK12  BANK13  BANK14  BANK15  BANK1
      +6  BANK17  BANK18  BANK19  BANK20  BANK21  BANK22  BANK23  BANK24  BANK25  BANK26  BANK27  BANK28  BANK29  BANK30  BANK3
      +1  BANK32  BANK33  BANK34  BANK35  BANK36
  2294 ;;      Params:         0       0       0       0       0       0       0       0       0       0       0       0       
      +0       0       0       0       0       0       0       0       0       0       0       0       0       0       0       
      +0       0       0       0       0       0
  2295 ;;      Locals:         0       0       0       0       0       0       0       0       0       0       0       0       
      +0       0       0       0       0       0       0       0       0       0       0       0       0       0       0       
      +0       0       0       0       0       0
  2296 ;;      Temps:          0       0       0       0       0       0       0       0       0       0       0       0       
      +0       0       0       0       0       0       0       0       0       0       0       0       0       0       0       
      +0       0       0       0       0       0
  2297 ;;      Totals:         0       0       0       0       0       0       0       0       0       0       0       0       
      +0       0       0       0       0       0       0       0       0       0       0       0       0       0       0       
      +0       0       0       0       0       0
  2298 ;;Total ram usage:        0 bytes
  2299 ;; Hardware stack levels used: 1
  2300 ;; Hardware stack levels required when called: 4
  2301 ;; This function calls:
  2302 ;;		Nothing
  2303 ;; This function is called by:
  2304 ;;		_SYSTEM_Initialize
  2305 ;; This function uses a non-reentrant model
  2306 ;;
  2307                           
  2308                           	psect	text15
  2309   001264                     __ptext15:
  2310                           	callstack 0
  2311   001264                     _OSCILLATOR_Initialize:
  2312                           	callstack 121
  2313   001264                     
  2314                           ;mcc_generated_files/mcc.c: 66:     OSCCON1 = 0x60;
  2315   001264  0E60               	movlw	96
  2316   001266  0100               	movlb	0	; () banked
  2317   001268  6FAD               	movwf	173,b	;volatile
  2318                           
  2319                           ;mcc_generated_files/mcc.c: 68:     OSCCON3 = 0x00;
  2320   00126A  0E00               	movlw	0
  2321   00126C  6FAF               	movwf	175,b	;volatile
  2322                           
  2323                           ;mcc_generated_files/mcc.c: 70:     OSCEN = 0x00;
  2324   00126E  0E00               	movlw	0
  2325   001270  6FB3               	movwf	179,b	;volatile
  2326                           
  2327                           ;mcc_generated_files/mcc.c: 72:     OSCFRQ = 0x08;
  2328   001272  0E08               	movlw	8
  2329   001274  6FB1               	movwf	177,b	;volatile
  2330                           
  2331                           ;mcc_generated_files/mcc.c: 74:     OSCTUNE = 0x00;
  2332   001276  0E00               	movlw	0
  2333   001278  6FB0               	movwf	176,b	;volatile
  2334                           
  2335                           ;mcc_generated_files/mcc.c: 76:     ACTCON = 0x00;
  2336   00127A  0E00               	movlw	0
  2337   00127C  6FAC               	movwf	172,b	;volatile
  2338   00127E                     
  2339                           ; BSR set to: 0
  2340   00127E  0012               	return		;funcret
  2341   001280                     __end_of_OSCILLATOR_Initialize:
  2342                           	callstack 0
  2343                           
  2344 ;; *************** function _INTERRUPT_Initialize *****************
  2345 ;; Defined at:
  2346 ;;		line 52 in file "mcc_generated_files/interrupt_manager.c"
  2347 ;; Parameters:    Size  Location     Type
  2348 ;;		None
  2349 ;; Auto vars:     Size  Location     Type
  2350 ;;		None
  2351 ;; Return value:  Size  Location     Type
  2352 ;;                  1    wreg      void 
  2353 ;; Registers used:
  2354 ;;		None
  2355 ;; Tracked objects:
  2356 ;;		On entry : 0/0
  2357 ;;		On exit  : 0/0
  2358 ;;		Unchanged: 0/0
  2359 ;; Data sizes:     COMRAM   BANK5   BANK6   BANK7   BANK8   BANK9  BANK10  BANK11  BANK12  BANK13  BANK14  BANK15  BANK1
      +6  BANK17  BANK18  BANK19  BANK20  BANK21  BANK22  BANK23  BANK24  BANK25  BANK26  BANK27  BANK28  BANK29  BANK30  BANK3
      +1  BANK32  BANK33  BANK34  BANK35  BANK36
  2360 ;;      Params:         0       0       0       0       0       0       0       0       0       0       0       0       
      +0       0       0       0       0       0       0       0       0       0       0       0       0       0       0       
      +0       0       0       0       0       0
  2361 ;;      Locals:         0       0       0       0       0       0       0       0       0       0       0       0       
      +0       0       0       0       0       0       0       0       0       0       0       0       0       0       0       
      +0       0       0       0       0       0
  2362 ;;      Temps:          0       0       0       0       0       0       0       0       0       0       0       0       
      +0       0       0       0       0       0       0       0       0       0       0       0       0       0       0       
      +0       0       0       0       0       0
  2363 ;;      Totals:         0       0       0       0       0       0       0       0       0       0       0       0       
      +0       0       0       0       0       0       0       0       0       0       0       0       0       0       0       
      +0       0       0       0       0       0
  2364 ;;Total ram usage:        0 bytes
  2365 ;; Hardware stack levels used: 1
  2366 ;; Hardware stack levels required when called: 4
  2367 ;; This function calls:
  2368 ;;		Nothing
  2369 ;; This function is called by:
  2370 ;;		_SYSTEM_Initialize
  2371 ;; This function uses a non-reentrant model
  2372 ;;
  2373                           
  2374                           	psect	text16
  2375   0013FA                     __ptext16:
  2376                           	callstack 0
  2377   0013FA                     _INTERRUPT_Initialize:
  2378                           	callstack 121
  2379   0013FA                     
  2380                           ;mcc_generated_files/interrupt_manager.c: 55:     INTCON0bits.IPEN = 0;
  2381   0013FA  9AD6               	bcf	214,5,c	;volatile
  2382   0013FC  0012               	return		;funcret
  2383   0013FE                     __end_of_INTERRUPT_Initialize:
  2384                           	callstack 0
  2385                           
  2386 ;; *************** function _EXT_INT_Initialize *****************
  2387 ;; Defined at:
  2388 ;;		line 113 in file "mcc_generated_files/ext_int.c"
  2389 ;; Parameters:    Size  Location     Type
  2390 ;;		None
  2391 ;; Auto vars:     Size  Location     Type
  2392 ;;		None
  2393 ;; Return value:  Size  Location     Type
  2394 ;;                  1    wreg      void 
  2395 ;; Registers used:
  2396 ;;		wreg, status,2, status,0, cstack
  2397 ;; Tracked objects:
  2398 ;;		On entry : 0/0
  2399 ;;		On exit  : 0/0
  2400 ;;		Unchanged: 0/0
  2401 ;; Data sizes:     COMRAM   BANK5   BANK6   BANK7   BANK8   BANK9  BANK10  BANK11  BANK12  BANK13  BANK14  BANK15  BANK1
      +6  BANK17  BANK18  BANK19  BANK20  BANK21  BANK22  BANK23  BANK24  BANK25  BANK26  BANK27  BANK28  BANK29  BANK30  BANK3
      +1  BANK32  BANK33  BANK34  BANK35  BANK36
  2402 ;;      Params:         0       0       0       0       0       0       0       0       0       0       0       0       
      +0       0       0       0       0       0       0       0       0       0       0       0       0       0       0       
      +0       0       0       0       0       0
  2403 ;;      Locals:         0       0       0       0       0       0       0       0       0       0       0       0       
      +0       0       0       0       0       0       0       0       0       0       0       0       0       0       0       
      +0       0       0       0       0       0
  2404 ;;      Temps:          0       0       0       0       0       0       0       0       0       0       0       0       
      +0       0       0       0       0       0       0       0       0       0       0       0       0       0       0       
      +0       0       0       0       0       0
  2405 ;;      Totals:         0       0       0       0       0       0       0       0       0       0       0       0       
      +0       0       0       0       0       0       0       0       0       0       0       0       0       0       0       
      +0       0       0       0       0       0
  2406 ;;Total ram usage:        0 bytes
  2407 ;; Hardware stack levels used: 1
  2408 ;; Hardware stack levels required when called: 5
  2409 ;; This function calls:
  2410 ;;		_INT0_SetInterruptHandler
  2411 ;;		_INT1_SetInterruptHandler
  2412 ;;		_INT2_SetInterruptHandler
  2413 ;; This function is called by:
  2414 ;;		_SYSTEM_Initialize
  2415 ;; This function uses a non-reentrant model
  2416 ;;
  2417                           
  2418                           	psect	text17
  2419   0010F2                     __ptext17:
  2420                           	callstack 0
  2421   0010F2                     _EXT_INT_Initialize:
  2422                           	callstack 120
  2423   0010F2                     
  2424                           ;mcc_generated_files/ext_int.c: 118:     (PIR1bits.INT0IF = 0);
  2425   0010F2  90AF               	bcf	175,0,c	;volatile
  2426                           
  2427                           ;mcc_generated_files/ext_int.c: 119:     (INTCON0bits.INT0EDG = 1);
  2428   0010F4  80D6               	bsf	214,0,c	;volatile
  2429   0010F6                     
  2430                           ;mcc_generated_files/ext_int.c: 121:     INT0_SetInterruptHandler(INT0_DefaultInterruptH
      +                          andler);
  2431   0010F6  0E0E               	movlw	low _INT0_DefaultInterruptHandler
  2432   0010F8  6E03               	movwf	INT0_SetInterruptHandler@InterruptHandler^(0+1280),c
  2433   0010FA  0E14               	movlw	high _INT0_DefaultInterruptHandler
  2434   0010FC  6E04               	movwf	(INT0_SetInterruptHandler@InterruptHandler+1)^(0+1280),c
  2435   0010FE  0E00               	movlw	low (_INT0_DefaultInterruptHandler shr (0+16))
  2436   001100  6E05               	movwf	(INT0_SetInterruptHandler@InterruptHandler+2)^(0+1280),c
  2437   001102  ECE7  F009         	call	_INT0_SetInterruptHandler	;wreg free
  2438   001106                     
  2439                           ;mcc_generated_files/ext_int.c: 122:     (PIE1bits.INT0IE = 1);
  2440   001106  809F               	bsf	159,0,c	;volatile
  2441   001108                     
  2442                           ;mcc_generated_files/ext_int.c: 127:     (PIR6bits.INT1IF = 0);
  2443   001108  90B4               	bcf	180,0,c	;volatile
  2444   00110A                     
  2445                           ;mcc_generated_files/ext_int.c: 128:     (INTCON0bits.INT1EDG = 1);
  2446   00110A  82D6               	bsf	214,1,c	;volatile
  2447                           
  2448                           ;mcc_generated_files/ext_int.c: 130:     INT1_SetInterruptHandler(INT1_DefaultInterruptH
      +                          andler);
  2449   00110C  0E0C               	movlw	low _INT1_DefaultInterruptHandler
  2450   00110E  6E03               	movwf	INT1_SetInterruptHandler@InterruptHandler^(0+1280),c
  2451   001110  0E14               	movlw	high _INT1_DefaultInterruptHandler
  2452   001112  6E04               	movwf	(INT1_SetInterruptHandler@InterruptHandler+1)^(0+1280),c
  2453   001114  0E00               	movlw	low (_INT1_DefaultInterruptHandler shr (0+16))
  2454   001116  6E05               	movwf	(INT1_SetInterruptHandler@InterruptHandler+2)^(0+1280),c
  2455   001118  ECE0  F009         	call	_INT1_SetInterruptHandler	;wreg free
  2456   00111C                     
  2457                           ;mcc_generated_files/ext_int.c: 131:     (PIE6bits.INT1IE = 1);
  2458   00111C  80A4               	bsf	164,0,c	;volatile
  2459   00111E                     
  2460                           ;mcc_generated_files/ext_int.c: 136:     (PIR10bits.INT2IF = 0);
  2461   00111E  90B8               	bcf	184,0,c	;volatile
  2462   001120                     
  2463                           ;mcc_generated_files/ext_int.c: 137:     (INTCON0bits.INT2EDG = 1);
  2464   001120  84D6               	bsf	214,2,c	;volatile
  2465                           
  2466                           ;mcc_generated_files/ext_int.c: 139:     INT2_SetInterruptHandler(INT2_DefaultInterruptH
      +                          andler);
  2467   001122  0E0A               	movlw	low _INT2_DefaultInterruptHandler
  2468   001124  6E03               	movwf	INT2_SetInterruptHandler@InterruptHandler^(0+1280),c
  2469   001126  0E14               	movlw	high _INT2_DefaultInterruptHandler
  2470   001128  6E04               	movwf	(INT2_SetInterruptHandler@InterruptHandler+1)^(0+1280),c
  2471   00112A  0E00               	movlw	low (_INT2_DefaultInterruptHandler shr (0+16))
  2472   00112C  6E05               	movwf	(INT2_SetInterruptHandler@InterruptHandler+2)^(0+1280),c
  2473   00112E  ECD9  F009         	call	_INT2_SetInterruptHandler	;wreg free
  2474   001132                     
  2475                           ;mcc_generated_files/ext_int.c: 140:     (PIE10bits.INT2IE = 1);
  2476   001132  80A8               	bsf	168,0,c	;volatile
  2477   001134  0012               	return		;funcret
  2478   001136                     __end_of_EXT_INT_Initialize:
  2479                           	callstack 0
  2480                           
  2481 ;; *************** function _INT2_SetInterruptHandler *****************
  2482 ;; Defined at:
  2483 ;;		line 104 in file "mcc_generated_files/ext_int.c"
  2484 ;; Parameters:    Size  Location     Type
  2485 ;;  InterruptHan    3    2[COMRAM] PTR FTN()void 
  2486 ;;		 -> INT2_DefaultInterruptHandler(1), 
  2487 ;; Auto vars:     Size  Location     Type
  2488 ;;		None
  2489 ;; Return value:  Size  Location     Type
  2490 ;;                  1    wreg      void 
  2491 ;; Registers used:
  2492 ;;		wreg, status,2, status,0
  2493 ;; Tracked objects:
  2494 ;;		On entry : 0/0
  2495 ;;		On exit  : 0/0
  2496 ;;		Unchanged: 0/0
  2497 ;; Data sizes:     COMRAM   BANK5   BANK6   BANK7   BANK8   BANK9  BANK10  BANK11  BANK12  BANK13  BANK14  BANK15  BANK1
      +6  BANK17  BANK18  BANK19  BANK20  BANK21  BANK22  BANK23  BANK24  BANK25  BANK26  BANK27  BANK28  BANK29  BANK30  BANK3
      +1  BANK32  BANK33  BANK34  BANK35  BANK36
  2498 ;;      Params:         3       0       0       0       0       0       0       0       0       0       0       0       
      +0       0       0       0       0       0       0       0       0       0       0       0       0       0       0       
      +0       0       0       0       0       0
  2499 ;;      Locals:         0       0       0       0       0       0       0       0       0       0       0       0       
      +0       0       0       0       0       0       0       0       0       0       0       0       0       0       0       
      +0       0       0       0       0       0
  2500 ;;      Temps:          0       0       0       0       0       0       0       0       0       0       0       0       
      +0       0       0       0       0       0       0       0       0       0       0       0       0       0       0       
      +0       0       0       0       0       0
  2501 ;;      Totals:         3       0       0       0       0       0       0       0       0       0       0       0       
      +0       0       0       0       0       0       0       0       0       0       0       0       0       0       0       
      +0       0       0       0       0       0
  2502 ;;Total ram usage:        3 bytes
  2503 ;; Hardware stack levels used: 1
  2504 ;; Hardware stack levels required when called: 4
  2505 ;; This function calls:
  2506 ;;		Nothing
  2507 ;; This function is called by:
  2508 ;;		_EXT_INT_Initialize
  2509 ;; This function uses a non-reentrant model
  2510 ;;
  2511                           
  2512                           	psect	text18
  2513   0013B2                     __ptext18:
  2514                           	callstack 0
  2515   0013B2                     _INT2_SetInterruptHandler:
  2516                           	callstack 120
  2517   0013B2                     
  2518                           ;mcc_generated_files/ext_int.c: 105:     INT2_InterruptHandler = InterruptHandler;
  2519   0013B2  C503  F53C         	movff	INT2_SetInterruptHandler@InterruptHandler,_INT2_InterruptHandler
  2520   0013B6  C504  F53D         	movff	INT2_SetInterruptHandler@InterruptHandler+1,_INT2_InterruptHandler+1
  2521   0013BA  C505  F53E         	movff	INT2_SetInterruptHandler@InterruptHandler+2,_INT2_InterruptHandler+2
  2522   0013BE  0012               	return		;funcret
  2523   0013C0                     __end_of_INT2_SetInterruptHandler:
  2524                           	callstack 0
  2525                           
  2526 ;; *************** function _INT1_SetInterruptHandler *****************
  2527 ;; Defined at:
  2528 ;;		line 78 in file "mcc_generated_files/ext_int.c"
  2529 ;; Parameters:    Size  Location     Type
  2530 ;;  InterruptHan    3    2[COMRAM] PTR FTN()void 
  2531 ;;		 -> INT1_DefaultInterruptHandler(1), 
  2532 ;; Auto vars:     Size  Location     Type
  2533 ;;		None
  2534 ;; Return value:  Size  Location     Type
  2535 ;;                  1    wreg      void 
  2536 ;; Registers used:
  2537 ;;		wreg, status,2, status,0
  2538 ;; Tracked objects:
  2539 ;;		On entry : 0/0
  2540 ;;		On exit  : 0/0
  2541 ;;		Unchanged: 0/0
  2542 ;; Data sizes:     COMRAM   BANK5   BANK6   BANK7   BANK8   BANK9  BANK10  BANK11  BANK12  BANK13  BANK14  BANK15  BANK1
      +6  BANK17  BANK18  BANK19  BANK20  BANK21  BANK22  BANK23  BANK24  BANK25  BANK26  BANK27  BANK28  BANK29  BANK30  BANK3
      +1  BANK32  BANK33  BANK34  BANK35  BANK36
  2543 ;;      Params:         3       0       0       0       0       0       0       0       0       0       0       0       
      +0       0       0       0       0       0       0       0       0       0       0       0       0       0       0       
      +0       0       0       0       0       0
  2544 ;;      Locals:         0       0       0       0       0       0       0       0       0       0       0       0       
      +0       0       0       0       0       0       0       0       0       0       0       0       0       0       0       
      +0       0       0       0       0       0
  2545 ;;      Temps:          0       0       0       0       0       0       0       0       0       0       0       0       
      +0       0       0       0       0       0       0       0       0       0       0       0       0       0       0       
      +0       0       0       0       0       0
  2546 ;;      Totals:         3       0       0       0       0       0       0       0       0       0       0       0       
      +0       0       0       0       0       0       0       0       0       0       0       0       0       0       0       
      +0       0       0       0       0       0
  2547 ;;Total ram usage:        3 bytes
  2548 ;; Hardware stack levels used: 1
  2549 ;; Hardware stack levels required when called: 4
  2550 ;; This function calls:
  2551 ;;		Nothing
  2552 ;; This function is called by:
  2553 ;;		_EXT_INT_Initialize
  2554 ;; This function uses a non-reentrant model
  2555 ;;
  2556                           
  2557                           	psect	text19
  2558   0013C0                     __ptext19:
  2559                           	callstack 0
  2560   0013C0                     _INT1_SetInterruptHandler:
  2561                           	callstack 120
  2562   0013C0                     
  2563                           ;mcc_generated_files/ext_int.c: 79:     INT1_InterruptHandler = InterruptHandler;
  2564   0013C0  C503  F53F         	movff	INT1_SetInterruptHandler@InterruptHandler,_INT1_InterruptHandler
  2565   0013C4  C504  F540         	movff	INT1_SetInterruptHandler@InterruptHandler+1,_INT1_InterruptHandler+1
  2566   0013C8  C505  F541         	movff	INT1_SetInterruptHandler@InterruptHandler+2,_INT1_InterruptHandler+2
  2567   0013CC  0012               	return		;funcret
  2568   0013CE                     __end_of_INT1_SetInterruptHandler:
  2569                           	callstack 0
  2570                           
  2571 ;; *************** function _INT0_SetInterruptHandler *****************
  2572 ;; Defined at:
  2573 ;;		line 52 in file "mcc_generated_files/ext_int.c"
  2574 ;; Parameters:    Size  Location     Type
  2575 ;;  InterruptHan    3    2[COMRAM] PTR FTN()void 
  2576 ;;		 -> INT0_DefaultInterruptHandler(1), 
  2577 ;; Auto vars:     Size  Location     Type
  2578 ;;		None
  2579 ;; Return value:  Size  Location     Type
  2580 ;;                  1    wreg      void 
  2581 ;; Registers used:
  2582 ;;		wreg, status,2, status,0
  2583 ;; Tracked objects:
  2584 ;;		On entry : 0/0
  2585 ;;		On exit  : 0/0
  2586 ;;		Unchanged: 0/0
  2587 ;; Data sizes:     COMRAM   BANK5   BANK6   BANK7   BANK8   BANK9  BANK10  BANK11  BANK12  BANK13  BANK14  BANK15  BANK1
      +6  BANK17  BANK18  BANK19  BANK20  BANK21  BANK22  BANK23  BANK24  BANK25  BANK26  BANK27  BANK28  BANK29  BANK30  BANK3
      +1  BANK32  BANK33  BANK34  BANK35  BANK36
  2588 ;;      Params:         3       0       0       0       0       0       0       0       0       0       0       0       
      +0       0       0       0       0       0       0       0       0       0       0       0       0       0       0       
      +0       0       0       0       0       0
  2589 ;;      Locals:         0       0       0       0       0       0       0       0       0       0       0       0       
      +0       0       0       0       0       0       0       0       0       0       0       0       0       0       0       
      +0       0       0       0       0       0
  2590 ;;      Temps:          0       0       0       0       0       0       0       0       0       0       0       0       
      +0       0       0       0       0       0       0       0       0       0       0       0       0       0       0       
      +0       0       0       0       0       0
  2591 ;;      Totals:         3       0       0       0       0       0       0       0       0       0       0       0       
      +0       0       0       0       0       0       0       0       0       0       0       0       0       0       0       
      +0       0       0       0       0       0
  2592 ;;Total ram usage:        3 bytes
  2593 ;; Hardware stack levels used: 1
  2594 ;; Hardware stack levels required when called: 4
  2595 ;; This function calls:
  2596 ;;		Nothing
  2597 ;; This function is called by:
  2598 ;;		_EXT_INT_Initialize
  2599 ;; This function uses a non-reentrant model
  2600 ;;
  2601                           
  2602                           	psect	text20
  2603   0013CE                     __ptext20:
  2604                           	callstack 0
  2605   0013CE                     _INT0_SetInterruptHandler:
  2606                           	callstack 120
  2607   0013CE                     
  2608                           ;mcc_generated_files/ext_int.c: 53:     INT0_InterruptHandler = InterruptHandler;
  2609   0013CE  C503  F542         	movff	INT0_SetInterruptHandler@InterruptHandler,_INT0_InterruptHandler
  2610   0013D2  C504  F543         	movff	INT0_SetInterruptHandler@InterruptHandler+1,_INT0_InterruptHandler+1
  2611   0013D6  C505  F544         	movff	INT0_SetInterruptHandler@InterruptHandler+2,_INT0_InterruptHandler+2
  2612   0013DA  0012               	return		;funcret
  2613   0013DC                     __end_of_INT0_SetInterruptHandler:
  2614                           	callstack 0
  2615                           
  2616 ;; *************** function _ADCC_Initialize *****************
  2617 ;; Defined at:
  2618 ;;		line 62 in file "mcc_generated_files/adcc.c"
  2619 ;; Parameters:    Size  Location     Type
  2620 ;;		None
  2621 ;; Auto vars:     Size  Location     Type
  2622 ;;		None
  2623 ;; Return value:  Size  Location     Type
  2624 ;;                  1    wreg      void 
  2625 ;; Registers used:
  2626 ;;		wreg, status,2
  2627 ;; Tracked objects:
  2628 ;;		On entry : 0/0
  2629 ;;		On exit  : 0/0
  2630 ;;		Unchanged: 0/0
  2631 ;; Data sizes:     COMRAM   BANK5   BANK6   BANK7   BANK8   BANK9  BANK10  BANK11  BANK12  BANK13  BANK14  BANK15  BANK1
      +6  BANK17  BANK18  BANK19  BANK20  BANK21  BANK22  BANK23  BANK24  BANK25  BANK26  BANK27  BANK28  BANK29  BANK30  BANK3
      +1  BANK32  BANK33  BANK34  BANK35  BANK36
  2632 ;;      Params:         0       0       0       0       0       0       0       0       0       0       0       0       
      +0       0       0       0       0       0       0       0       0       0       0       0       0       0       0       
      +0       0       0       0       0       0
  2633 ;;      Locals:         0       0       0       0       0       0       0       0       0       0       0       0       
      +0       0       0       0       0       0       0       0       0       0       0       0       0       0       0       
      +0       0       0       0       0       0
  2634 ;;      Temps:          0       0       0       0       0       0       0       0       0       0       0       0       
      +0       0       0       0       0       0       0       0       0       0       0       0       0       0       0       
      +0       0       0       0       0       0
  2635 ;;      Totals:         0       0       0       0       0       0       0       0       0       0       0       0       
      +0       0       0       0       0       0       0       0       0       0       0       0       0       0       0       
      +0       0       0       0       0       0
  2636 ;;Total ram usage:        0 bytes
  2637 ;; Hardware stack levels used: 1
  2638 ;; Hardware stack levels required when called: 4
  2639 ;; This function calls:
  2640 ;;		Nothing
  2641 ;; This function is called by:
  2642 ;;		_SYSTEM_Initialize
  2643 ;; This function uses a non-reentrant model
  2644 ;;
  2645                           
  2646                           	psect	text21
  2647   00103C                     __ptext21:
  2648                           	callstack 0
  2649   00103C                     _ADCC_Initialize:
  2650                           	callstack 121
  2651   00103C                     
  2652                           ;mcc_generated_files/adcc.c: 66:     ADLTHL = 0x00;
  2653   00103C  0E00               	movlw	0
  2654   00103E  0103               	movlb	3	; () banked
  2655   001040  6FD9               	movwf	217,b	;volatile
  2656                           
  2657                           ;mcc_generated_files/adcc.c: 68:     ADLTHH = 0x00;
  2658   001042  0E00               	movlw	0
  2659   001044  6FDA               	movwf	218,b	;volatile
  2660                           
  2661                           ;mcc_generated_files/adcc.c: 70:     ADUTHL = 0x00;
  2662   001046  0E00               	movlw	0
  2663   001048  6FDB               	movwf	219,b	;volatile
  2664                           
  2665                           ;mcc_generated_files/adcc.c: 72:     ADUTHH = 0x00;
  2666   00104A  0E00               	movlw	0
  2667   00104C  6FDC               	movwf	220,b	;volatile
  2668                           
  2669                           ;mcc_generated_files/adcc.c: 74:     ADSTPTL = 0x00;
  2670   00104E  0E00               	movlw	0
  2671   001050  6FDF               	movwf	223,b	;volatile
  2672                           
  2673                           ;mcc_generated_files/adcc.c: 76:     ADSTPTH = 0x00;
  2674   001052  0E00               	movlw	0
  2675   001054  6FE0               	movwf	224,b	;volatile
  2676                           
  2677                           ;mcc_generated_files/adcc.c: 78:     ADACCU = 0x00;
  2678   001056  0E00               	movlw	0
  2679   001058  6FE5               	movwf	229,b	;volatile
  2680                           
  2681                           ;mcc_generated_files/adcc.c: 80:     ADRPT = 0x00;
  2682   00105A  0E00               	movlw	0
  2683   00105C  6FE7               	movwf	231,b	;volatile
  2684                           
  2685                           ;mcc_generated_files/adcc.c: 82:     ADPCH = 0x00;
  2686   00105E  0E00               	movlw	0
  2687   001060  6FEC               	movwf	236,b	;volatile
  2688                           
  2689                           ;mcc_generated_files/adcc.c: 84:     ADACQL = 0x00;
  2690   001062  0E00               	movlw	0
  2691   001064  6FEE               	movwf	238,b	;volatile
  2692                           
  2693                           ;mcc_generated_files/adcc.c: 86:     ADACQH = 0x00;
  2694   001066  0E00               	movlw	0
  2695   001068  6FEF               	movwf	239,b	;volatile
  2696                           
  2697                           ;mcc_generated_files/adcc.c: 88:     ADCAP = 0x00;
  2698   00106A  0E00               	movlw	0
  2699   00106C  6FF0               	movwf	240,b	;volatile
  2700                           
  2701                           ;mcc_generated_files/adcc.c: 90:     ADPREL = 0x00;
  2702   00106E  0E00               	movlw	0
  2703   001070  6FF1               	movwf	241,b	;volatile
  2704                           
  2705                           ;mcc_generated_files/adcc.c: 92:     ADPREH = 0x00;
  2706   001072  0E00               	movlw	0
  2707   001074  6FF2               	movwf	242,b	;volatile
  2708                           
  2709                           ;mcc_generated_files/adcc.c: 94:     ADCON1 = 0x00;
  2710   001076  0E00               	movlw	0
  2711   001078  6FF4               	movwf	244,b	;volatile
  2712                           
  2713                           ;mcc_generated_files/adcc.c: 96:     ADCON2 = 0x10;
  2714   00107A  0E10               	movlw	16
  2715   00107C  6FF5               	movwf	245,b	;volatile
  2716                           
  2717                           ;mcc_generated_files/adcc.c: 98:     ADCON3 = 0x00;
  2718   00107E  0E00               	movlw	0
  2719   001080  6FF6               	movwf	246,b	;volatile
  2720                           
  2721                           ;mcc_generated_files/adcc.c: 100:     ADSTAT = 0x00;
  2722   001082  0E00               	movlw	0
  2723   001084  6FF7               	movwf	247,b	;volatile
  2724                           
  2725                           ;mcc_generated_files/adcc.c: 102:     ADREF = 0x00;
  2726   001086  0E00               	movlw	0
  2727   001088  6FF8               	movwf	248,b	;volatile
  2728                           
  2729                           ;mcc_generated_files/adcc.c: 104:     ADACT = 0x00;
  2730   00108A  0E00               	movlw	0
  2731   00108C  6FF9               	movwf	249,b	;volatile
  2732                           
  2733                           ;mcc_generated_files/adcc.c: 106:     ADCLK = 0x00;
  2734   00108E  0E00               	movlw	0
  2735   001090  6FFA               	movwf	250,b	;volatile
  2736                           
  2737                           ;mcc_generated_files/adcc.c: 108:     ADCON0 = 0x84;
  2738   001092  0E84               	movlw	132
  2739   001094  6FF3               	movwf	243,b	;volatile
  2740   001096                     
  2741                           ; BSR set to: 3
  2742   001096  0012               	return		;funcret
  2743   001098                     __end_of_ADCC_Initialize:
  2744                           	callstack 0
  2745                           
  2746 ;; *************** function _GetRPIPacket *****************
  2747 ;; Defined at:
  2748 ;;		line 203 in file "main.c"
  2749 ;; Parameters:    Size  Location     Type
  2750 ;;  Cmd             2    2[COMRAM] PTR unsigned char 
  2751 ;;		 -> main@Cmd(1), 
  2752 ;;  Data            2    4[COMRAM] PTR unsigned char 
  2753 ;;		 -> main@Buff(16), 
  2754 ;;  Len             2    6[COMRAM] PTR int 
  2755 ;;		 -> main@DataLen(2), 
  2756 ;;  MaxBuffLen      2    8[COMRAM] int 
  2757 ;; Auto vars:     Size  Location     Type
  2758 ;;  i               2   14[COMRAM] int 
  2759 ;;  d               1   17[COMRAM] unsigned char 
  2760 ;;  DataLen         1   16[COMRAM] unsigned char 
  2761 ;;  Checksum        1   13[COMRAM] unsigned char 
  2762 ;; Return value:  Size  Location     Type
  2763 ;;                  1    wreg      _Bool 
  2764 ;; Registers used:
  2765 ;;		wreg, fsr2l, fsr2h, status,2, status,0, pcl, pclath, pclatu, tosl, cstack
  2766 ;; Tracked objects:
  2767 ;;		On entry : 0/0
  2768 ;;		On exit  : 0/0
  2769 ;;		Unchanged: 0/0
  2770 ;; Data sizes:     COMRAM   BANK5   BANK6   BANK7   BANK8   BANK9  BANK10  BANK11  BANK12  BANK13  BANK14  BANK15  BANK1
      +6  BANK17  BANK18  BANK19  BANK20  BANK21  BANK22  BANK23  BANK24  BANK25  BANK26  BANK27  BANK28  BANK29  BANK30  BANK3
      +1  BANK32  BANK33  BANK34  BANK35  BANK36
  2771 ;;      Params:         8       0       0       0       0       0       0       0       0       0       0       0       
      +0       0       0       0       0       0       0       0       0       0       0       0       0       0       0       
      +0       0       0       0       0       0
  2772 ;;      Locals:         5       0       0       0       0       0       0       0       0       0       0       0       
      +0       0       0       0       0       0       0       0       0       0       0       0       0       0       0       
      +0       0       0       0       0       0
  2773 ;;      Temps:          3       0       0       0       0       0       0       0       0       0       0       0       
      +0       0       0       0       0       0       0       0       0       0       0       0       0       0       0       
      +0       0       0       0       0       0
  2774 ;;      Totals:        16       0       0       0       0       0       0       0       0       0       0       0       
      +0       0       0       0       0       0       0       0       0       0       0       0       0       0       0       
      +0       0       0       0       0       0
  2775 ;;Total ram usage:       16 bytes
  2776 ;; Hardware stack levels used: 1
  2777 ;; Hardware stack levels required when called: 6
  2778 ;; This function calls:
  2779 ;;		_TMR0_HasOverflowOccured
  2780 ;;		_TMR0_Initialize
  2781 ;;		_TMR0_StartTimer
  2782 ;;		_UART2_Read
  2783 ;;		_UART2_is_rx_ready
  2784 ;; This function is called by:
  2785 ;;		_main
  2786 ;; This function uses a non-reentrant model
  2787 ;;
  2788                           
  2789                           	psect	text22
  2790   000656                     __ptext22:
  2791                           	callstack 0
  2792   000656                     _GetRPIPacket:
  2793                           	callstack 120
  2794   000656                     
  2795                           ;main.c: 203: _Bool GetRPIPacket(unsigned char *Cmd,unsigned char Data[],int *Len ,int M
      +                          axBuffLen);main.c: 204: {;main.c: 205:     unsigned char d;;main.c: 206:     unsigned ch
      +                          ar Checksum;;main.c: 207:     unsigned char DataLen;;main.c: 208:     int i;;main.c: 210
      +                          :     if(UART2_is_rx_ready()==1){
  2796   000656  EC91  F009         	call	_UART2_is_rx_ready	;wreg free
  2797   00065A  06E8               	decf	wreg,f,c
  2798   00065C  A4D8               	btfss	status,2,c
  2799   00065E  EF33  F003         	goto	u1541
  2800   000662  EF35  F003         	goto	u1540
  2801   000666                     u1541:
  2802   000666  EF41  F003         	goto	l3031
  2803   00066A                     u1540:
  2804   00066A                     
  2805                           ;main.c: 211:         d=UART2_Read();
  2806   00066A  ECD7  F006         	call	_UART2_Read	;wreg free
  2807   00066E  6E12               	movwf	GetRPIPacket@d^(0+1280),c
  2808   000670                     
  2809                           ;main.c: 212:         if(d!=0x1E){
  2810   000670  0E1E               	movlw	30
  2811   000672  1812               	xorwf	GetRPIPacket@d^(0+1280),w,c
  2812   000674  B4D8               	btfsc	status,2,c
  2813   000676  EF3F  F003         	goto	u1551
  2814   00067A  EF41  F003         	goto	u1550
  2815   00067E                     u1551:
  2816   00067E  EF44  F003         	goto	l935
  2817   000682                     u1550:
  2818   000682                     l3031:
  2819                           
  2820                           ;main.c: 213:             return 0;
  2821   000682  0E00               	movlw	0
  2822   000684  EF16  F004         	goto	l936
  2823   000688                     l935:
  2824                           
  2825                           ;main.c: 215:         Checksum=d;
  2826   000688  C512  F50E         	movff	GetRPIPacket@d,GetRPIPacket@Checksum
  2827   00068C                     
  2828                           ;main.c: 217:         TMR0_Initialize();
  2829   00068C  EC86  F009         	call	_TMR0_Initialize	;wreg free
  2830   000690                     
  2831                           ;main.c: 218:         TMR0_StartTimer();
  2832   000690  ECFA  F009         	call	_TMR0_StartTimer	;wreg free
  2833   000694                     l3039:
  2834                           
  2835                           ;main.c: 220:             if(UART2_is_rx_ready()==1){
  2836   000694  EC91  F009         	call	_UART2_is_rx_ready	;wreg free
  2837   000698  06E8               	decf	wreg,f,c
  2838   00069A  A4D8               	btfss	status,2,c
  2839   00069C  EF52  F003         	goto	u1561
  2840   0006A0  EF54  F003         	goto	u1560
  2841   0006A4                     u1561:
  2842   0006A4  EF56  F003         	goto	l3043
  2843   0006A8                     u1560:
  2844   0006A8  EF62  F003         	goto	l3049
  2845   0006AC                     l3043:
  2846                           
  2847                           ;main.c: 223:             if(TMR0_HasOverflowOccured()==1){
  2848   0006AC  ECA5  F009         	call	_TMR0_HasOverflowOccured	;wreg free
  2849   0006B0  06E8               	decf	wreg,f,c
  2850   0006B2  A4D8               	btfss	status,2,c
  2851   0006B4  EF5E  F003         	goto	u1571
  2852   0006B8  EF60  F003         	goto	u1570
  2853   0006BC                     u1571:
  2854   0006BC  EF4A  F003         	goto	l3039
  2855   0006C0                     u1570:
  2856   0006C0  EF41  F003         	goto	l3031
  2857   0006C4                     l3049:
  2858                           
  2859                           ;main.c: 227:         d=UART2_Read();
  2860   0006C4  ECD7  F006         	call	_UART2_Read	;wreg free
  2861   0006C8  6E12               	movwf	GetRPIPacket@d^(0+1280),c
  2862   0006CA                     
  2863                           ;main.c: 228:         *Cmd=d;
  2864   0006CA  C503  F4D9         	movff	GetRPIPacket@Cmd,fsr2l
  2865   0006CE  C504  F4DA         	movff	GetRPIPacket@Cmd+1,fsr2h
  2866   0006D2  C512  F4DF         	movff	GetRPIPacket@d,indf2
  2867   0006D6                     
  2868                           ;main.c: 229:         Checksum^=d;
  2869   0006D6  5012               	movf	GetRPIPacket@d^(0+1280),w,c
  2870   0006D8  1A0E               	xorwf	GetRPIPacket@Checksum^(0+1280),f,c
  2871   0006DA                     
  2872                           ;main.c: 231:         TMR0_Initialize();
  2873   0006DA  EC86  F009         	call	_TMR0_Initialize	;wreg free
  2874   0006DE                     
  2875                           ;main.c: 232:         TMR0_StartTimer();
  2876   0006DE  ECFA  F009         	call	_TMR0_StartTimer	;wreg free
  2877   0006E2                     l3059:
  2878                           
  2879                           ;main.c: 234:             if(UART2_is_rx_ready()==1){
  2880   0006E2  EC91  F009         	call	_UART2_is_rx_ready	;wreg free
  2881   0006E6  06E8               	decf	wreg,f,c
  2882   0006E8  A4D8               	btfss	status,2,c
  2883   0006EA  EF79  F003         	goto	u1581
  2884   0006EE  EF7B  F003         	goto	u1580
  2885   0006F2                     u1581:
  2886   0006F2  EF7D  F003         	goto	l3063
  2887   0006F6                     u1580:
  2888   0006F6  EF89  F003         	goto	l3069
  2889   0006FA                     l3063:
  2890                           
  2891                           ;main.c: 237:             if(TMR0_HasOverflowOccured()==1){
  2892   0006FA  ECA5  F009         	call	_TMR0_HasOverflowOccured	;wreg free
  2893   0006FE  06E8               	decf	wreg,f,c
  2894   000700  A4D8               	btfss	status,2,c
  2895   000702  EF85  F003         	goto	u1591
  2896   000706  EF87  F003         	goto	u1590
  2897   00070A                     u1591:
  2898   00070A  EF71  F003         	goto	l3059
  2899   00070E                     u1590:
  2900   00070E  EF41  F003         	goto	l3031
  2901   000712                     l3069:
  2902                           
  2903                           ;main.c: 241:         DataLen=UART2_Read();
  2904   000712  ECD7  F006         	call	_UART2_Read	;wreg free
  2905   000716  6E11               	movwf	GetRPIPacket@DataLen^(0+1280),c
  2906   000718                     
  2907                           ;main.c: 242:         Checksum^=DataLen;
  2908   000718  5011               	movf	GetRPIPacket@DataLen^(0+1280),w,c
  2909   00071A  1A0E               	xorwf	GetRPIPacket@Checksum^(0+1280),f,c
  2910   00071C                     
  2911                           ;main.c: 244:         for(i=0;i<DataLen && i<MaxBuffLen;i++){
  2912   00071C  0E00               	movlw	0
  2913   00071E  6E10               	movwf	(GetRPIPacket@i+1)^(0+1280),c
  2914   000720  0E00               	movlw	0
  2915   000722  6E0F               	movwf	GetRPIPacket@i^(0+1280),c
  2916   000724  EFBF  F003         	goto	l3097
  2917   000728                     l3075:
  2918                           
  2919                           ;main.c: 245:             TMR0_Initialize();
  2920   000728  EC86  F009         	call	_TMR0_Initialize	;wreg free
  2921   00072C                     
  2922                           ;main.c: 246:             TMR0_StartTimer();
  2923   00072C  ECFA  F009         	call	_TMR0_StartTimer	;wreg free
  2924   000730                     l3079:
  2925                           
  2926                           ;main.c: 248:                 if(UART2_is_rx_ready()==1){
  2927   000730  EC91  F009         	call	_UART2_is_rx_ready	;wreg free
  2928   000734  06E8               	decf	wreg,f,c
  2929   000736  A4D8               	btfss	status,2,c
  2930   000738  EFA0  F003         	goto	u1601
  2931   00073C  EFA2  F003         	goto	u1600
  2932   000740                     u1601:
  2933   000740  EFA4  F003         	goto	l3083
  2934   000744                     u1600:
  2935   000744  EFB0  F003         	goto	l3089
  2936   000748                     l3083:
  2937                           
  2938                           ;main.c: 251:                 if(TMR0_HasOverflowOccured()==1){
  2939   000748  ECA5  F009         	call	_TMR0_HasOverflowOccured	;wreg free
  2940   00074C  06E8               	decf	wreg,f,c
  2941   00074E  A4D8               	btfss	status,2,c
  2942   000750  EFAC  F003         	goto	u1611
  2943   000754  EFAE  F003         	goto	u1610
  2944   000758                     u1611:
  2945   000758  EF98  F003         	goto	l3079
  2946   00075C                     u1610:
  2947   00075C  EF41  F003         	goto	l3031
  2948   000760                     l3089:
  2949                           
  2950                           ;main.c: 255:             d=UART2_Read();
  2951   000760  ECD7  F006         	call	_UART2_Read	;wreg free
  2952   000764  6E12               	movwf	GetRPIPacket@d^(0+1280),c
  2953   000766                     
  2954                           ;main.c: 256:             Data[i]=d;
  2955   000766  500F               	movf	GetRPIPacket@i^(0+1280),w,c
  2956   000768  2405               	addwf	GetRPIPacket@Data^(0+1280),w,c
  2957   00076A  6ED9               	movwf	fsr2l,c
  2958   00076C  5010               	movf	(GetRPIPacket@i+1)^(0+1280),w,c
  2959   00076E  2006               	addwfc	(GetRPIPacket@Data+1)^(0+1280),w,c
  2960   000770  6EDA               	movwf	fsr2h,c
  2961   000772  C512  F4DF         	movff	GetRPIPacket@d,indf2
  2962   000776                     
  2963                           ;main.c: 257:             Checksum^=d;
  2964   000776  5012               	movf	GetRPIPacket@d^(0+1280),w,c
  2965   000778  1A0E               	xorwf	GetRPIPacket@Checksum^(0+1280),f,c
  2966   00077A                     
  2967                           ;main.c: 258:         }
  2968   00077A  4A0F               	infsnz	GetRPIPacket@i^(0+1280),f,c
  2969   00077C  2A10               	incf	(GetRPIPacket@i+1)^(0+1280),f,c
  2970   00077E                     l3097:
  2971   00077E  5011               	movf	GetRPIPacket@DataLen^(0+1280),w,c
  2972   000780  6E0B               	movwf	??_GetRPIPacket^(0+1280),c
  2973   000782  6A0C               	clrf	(??_GetRPIPacket+1)^(0+1280),c
  2974   000784  500B               	movf	??_GetRPIPacket^(0+1280),w,c
  2975   000786  5C0F               	subwf	GetRPIPacket@i^(0+1280),w,c
  2976   000788  5010               	movf	(GetRPIPacket@i+1)^(0+1280),w,c
  2977   00078A  0A80               	xorlw	128
  2978   00078C  6E0D               	movwf	(??_GetRPIPacket+2)^(0+1280),c
  2979   00078E  500C               	movf	(??_GetRPIPacket+1)^(0+1280),w,c
  2980   000790  0A80               	xorlw	128
  2981   000792  580D               	subwfb	(??_GetRPIPacket+2)^(0+1280),w,c
  2982   000794  B0D8               	btfsc	status,0,c
  2983   000796  EFCF  F003         	goto	u1621
  2984   00079A  EFD1  F003         	goto	u1620
  2985   00079E                     u1621:
  2986   00079E  EFE0  F003         	goto	l3101
  2987   0007A2                     u1620:
  2988   0007A2  5009               	movf	GetRPIPacket@MaxBuffLen^(0+1280),w,c
  2989   0007A4  5C0F               	subwf	GetRPIPacket@i^(0+1280),w,c
  2990   0007A6  5010               	movf	(GetRPIPacket@i+1)^(0+1280),w,c
  2991   0007A8  0A80               	xorlw	128
  2992   0007AA  6E0B               	movwf	??_GetRPIPacket^(0+1280),c
  2993   0007AC  500A               	movf	(GetRPIPacket@MaxBuffLen+1)^(0+1280),w,c
  2994   0007AE  0A80               	xorlw	128
  2995   0007B0  580B               	subwfb	??_GetRPIPacket^(0+1280),w,c
  2996   0007B2  A0D8               	btfss	status,0,c
  2997   0007B4  EFDE  F003         	goto	u1631
  2998   0007B8  EFE0  F003         	goto	u1630
  2999   0007BC                     u1631:
  3000   0007BC  EF94  F003         	goto	l3075
  3001   0007C0                     u1630:
  3002   0007C0                     l3101:
  3003                           
  3004                           ;main.c: 260:         TMR0_Initialize();
  3005   0007C0  EC86  F009         	call	_TMR0_Initialize	;wreg free
  3006   0007C4                     
  3007                           ;main.c: 261:         TMR0_StartTimer();
  3008   0007C4  ECFA  F009         	call	_TMR0_StartTimer	;wreg free
  3009   0007C8                     l3105:
  3010                           
  3011                           ;main.c: 263:             if(UART2_is_rx_ready()==1){
  3012   0007C8  EC91  F009         	call	_UART2_is_rx_ready	;wreg free
  3013   0007CC  06E8               	decf	wreg,f,c
  3014   0007CE  A4D8               	btfss	status,2,c
  3015   0007D0  EFEC  F003         	goto	u1641
  3016   0007D4  EFEE  F003         	goto	u1640
  3017   0007D8                     u1641:
  3018   0007D8  EFF0  F003         	goto	l3109
  3019   0007DC                     u1640:
  3020   0007DC  EFFC  F003         	goto	l3115
  3021   0007E0                     l3109:
  3022                           
  3023                           ;main.c: 266:             if(TMR0_HasOverflowOccured()==1){
  3024   0007E0  ECA5  F009         	call	_TMR0_HasOverflowOccured	;wreg free
  3025   0007E4  06E8               	decf	wreg,f,c
  3026   0007E6  A4D8               	btfss	status,2,c
  3027   0007E8  EFF8  F003         	goto	u1651
  3028   0007EC  EFFA  F003         	goto	u1650
  3029   0007F0                     u1651:
  3030   0007F0  EFE4  F003         	goto	l3105
  3031   0007F4                     u1650:
  3032   0007F4  EF41  F003         	goto	l3031
  3033   0007F8                     l3115:
  3034                           
  3035                           ;main.c: 270:         d=UART2_Read();
  3036   0007F8  ECD7  F006         	call	_UART2_Read	;wreg free
  3037   0007FC  6E12               	movwf	GetRPIPacket@d^(0+1280),c
  3038   0007FE                     
  3039                           ;main.c: 271:         if(Checksum!=d){
  3040   0007FE  5012               	movf	GetRPIPacket@d^(0+1280),w,c
  3041   000800  180E               	xorwf	GetRPIPacket@Checksum^(0+1280),w,c
  3042   000802  B4D8               	btfsc	status,2,c
  3043   000804  EF06  F004         	goto	u1661
  3044   000808  EF08  F004         	goto	u1660
  3045   00080C                     u1661:
  3046   00080C  EF0A  F004         	goto	l3123
  3047   000810                     u1660:
  3048   000810  EF41  F003         	goto	l3031
  3049   000814                     l3123:
  3050                           
  3051                           ;main.c: 274:         *Len=DataLen;
  3052   000814  5011               	movf	GetRPIPacket@DataLen^(0+1280),w,c
  3053   000816  6E0B               	movwf	??_GetRPIPacket^(0+1280),c
  3054   000818  6A0C               	clrf	(??_GetRPIPacket+1)^(0+1280),c
  3055   00081A  C507  F4D9         	movff	GetRPIPacket@Len,fsr2l
  3056   00081E  C508  F4DA         	movff	GetRPIPacket@Len+1,fsr2h
  3057   000822  C50B  F4DE         	movff	??_GetRPIPacket,postinc2
  3058   000826  C50C  F4DD         	movff	??_GetRPIPacket+1,postdec2
  3059   00082A                     
  3060                           ;main.c: 275:         return 1;
  3061   00082A  0E01               	movlw	1
  3062   00082C                     l936:
  3063   00082C  0012               	return		;funcret
  3064   00082E                     __end_of_GetRPIPacket:
  3065                           	callstack 0
  3066                           
  3067 ;; *************** function _UART2_is_rx_ready *****************
  3068 ;; Defined at:
  3069 ;;		line 117 in file "mcc_generated_files/uart2.c"
  3070 ;; Parameters:    Size  Location     Type
  3071 ;;		None
  3072 ;; Auto vars:     Size  Location     Type
  3073 ;;		None
  3074 ;; Return value:  Size  Location     Type
  3075 ;;                  1    wreg      _Bool 
  3076 ;; Registers used:
  3077 ;;		wreg
  3078 ;; Tracked objects:
  3079 ;;		On entry : 0/0
  3080 ;;		On exit  : 0/0
  3081 ;;		Unchanged: 0/0
  3082 ;; Data sizes:     COMRAM   BANK5   BANK6   BANK7   BANK8   BANK9  BANK10  BANK11  BANK12  BANK13  BANK14  BANK15  BANK1
      +6  BANK17  BANK18  BANK19  BANK20  BANK21  BANK22  BANK23  BANK24  BANK25  BANK26  BANK27  BANK28  BANK29  BANK30  BANK3
      +1  BANK32  BANK33  BANK34  BANK35  BANK36
  3083 ;;      Params:         0       0       0       0       0       0       0       0       0       0       0       0       
      +0       0       0       0       0       0       0       0       0       0       0       0       0       0       0       
      +0       0       0       0       0       0
  3084 ;;      Locals:         0       0       0       0       0       0       0       0       0       0       0       0       
      +0       0       0       0       0       0       0       0       0       0       0       0       0       0       0       
      +0       0       0       0       0       0
  3085 ;;      Temps:          0       0       0       0       0       0       0       0       0       0       0       0       
      +0       0       0       0       0       0       0       0       0       0       0       0       0       0       0       
      +0       0       0       0       0       0
  3086 ;;      Totals:         0       0       0       0       0       0       0       0       0       0       0       0       
      +0       0       0       0       0       0       0       0       0       0       0       0       0       0       0       
      +0       0       0       0       0       0
  3087 ;;Total ram usage:        0 bytes
  3088 ;; Hardware stack levels used: 1
  3089 ;; Hardware stack levels required when called: 4
  3090 ;; This function calls:
  3091 ;;		Nothing
  3092 ;; This function is called by:
  3093 ;;		_GetRPIPacket
  3094 ;; This function uses a non-reentrant model
  3095 ;;
  3096                           
  3097                           	psect	text23
  3098   001322                     __ptext23:
  3099                           	callstack 0
  3100   001322                     _UART2_is_rx_ready:
  3101                           	callstack 121
  3102   001322                     
  3103                           ;mcc_generated_files/uart2.c: 119:     return (_Bool)(PIR8bits.U2RXIF);
  3104   001322  B0B6               	btfsc	182,0,c	;volatile
  3105   001324  EF96  F009         	goto	u181
  3106   001328  EF99  F009         	goto	u180
  3107   00132C                     u181:
  3108   00132C  0E01               	movlw	1
  3109   00132E  EF9A  F009         	goto	u186
  3110   001332                     u180:
  3111   001332  0E00               	movlw	0
  3112   001334                     u186:
  3113   001334  0012               	return		;funcret
  3114   001336                     __end_of_UART2_is_rx_ready:
  3115                           	callstack 0
  3116                           
  3117 ;; *************** function _UART2_Read *****************
  3118 ;; Defined at:
  3119 ;;		line 136 in file "mcc_generated_files/uart2.c"
  3120 ;; Parameters:    Size  Location     Type
  3121 ;;		None
  3122 ;; Auto vars:     Size  Location     Type
  3123 ;;		None
  3124 ;; Return value:  Size  Location     Type
  3125 ;;                  1    wreg      unsigned char 
  3126 ;; Registers used:
  3127 ;;		wreg, status,2, pcl, pclath, pclatu, tosl, cstack
  3128 ;; Tracked objects:
  3129 ;;		On entry : 0/0
  3130 ;;		On exit  : 0/0
  3131 ;;		Unchanged: 0/0
  3132 ;; Data sizes:     COMRAM   BANK5   BANK6   BANK7   BANK8   BANK9  BANK10  BANK11  BANK12  BANK13  BANK14  BANK15  BANK1
      +6  BANK17  BANK18  BANK19  BANK20  BANK21  BANK22  BANK23  BANK24  BANK25  BANK26  BANK27  BANK28  BANK29  BANK30  BANK3
      +1  BANK32  BANK33  BANK34  BANK35  BANK36
  3133 ;;      Params:         0       0       0       0       0       0       0       0       0       0       0       0       
      +0       0       0       0       0       0       0       0       0       0       0       0       0       0       0       
      +0       0       0       0       0       0
  3134 ;;      Locals:         0       0       0       0       0       0       0       0       0       0       0       0       
      +0       0       0       0       0       0       0       0       0       0       0       0       0       0       0       
      +0       0       0       0       0       0
  3135 ;;      Temps:          0       0       0       0       0       0       0       0       0       0       0       0       
      +0       0       0       0       0       0       0       0       0       0       0       0       0       0       0       
      +0       0       0       0       0       0
  3136 ;;      Totals:         0       0       0       0       0       0       0       0       0       0       0       0       
      +0       0       0       0       0       0       0       0       0       0       0       0       0       0       0       
      +0       0       0       0       0       0
  3137 ;;Total ram usage:        0 bytes
  3138 ;; Hardware stack levels used: 1
  3139 ;; Hardware stack levels required when called: 5
  3140 ;; This function calls:
  3141 ;;		Absolute function
  3142 ;;		_UART2_DefaultErrorHandler
  3143 ;;		_UART2_DefaultFramingErrorHandler
  3144 ;;		_UART2_DefaultOverrunErrorHandler
  3145 ;; This function is called by:
  3146 ;;		_GetRPIPacket
  3147 ;; This function uses a non-reentrant model
  3148 ;;
  3149                           
  3150                           	psect	text24
  3151   000DAE                     __ptext24:
  3152                           	callstack 0
  3153   000DAE                     _UART2_Read:
  3154                           	callstack 120
  3155   000DAE                     l688:
  3156                           
  3157                           ;mcc_generated_files/uart2.c: 138:     while(!PIR8bits.U2RXIF)
  3158   000DAE  A0B6               	btfss	182,0,c	;volatile
  3159   000DB0  EFDC  F006         	goto	u211
  3160   000DB4  EFDE  F006         	goto	u210
  3161   000DB8                     u211:
  3162   000DB8  EFD7  F006         	goto	l688
  3163   000DBC                     u210:
  3164   000DBC                     
  3165                           ;mcc_generated_files/uart2.c: 142:     uart2RxLastError.status = 0;
  3166   000DBC  0E00               	movlw	0
  3167   000DBE  6E4E               	movwf	_uart2RxLastError^(0+1280),c	;volatile
  3168   000DC0                     
  3169                           ;mcc_generated_files/uart2.c: 144:     if(U2ERRIRbits.FERIF){
  3170   000DC0  0102               	movlb	2	; () banked
  3171   000DC2  A7C5               	btfss	197,3,b	;volatile
  3172   000DC4  EFE6  F006         	goto	u221
  3173   000DC8  EFE8  F006         	goto	u220
  3174   000DCC                     u221:
  3175   000DCC  EFF6  F006         	goto	l1913
  3176   000DD0                     u220:
  3177   000DD0                     
  3178                           ; BSR set to: 2
  3179                           ;mcc_generated_files/uart2.c: 145:         uart2RxLastError.ferr = 1;
  3180   000DD0  824E               	bsf	_uart2RxLastError^(0+1280),1,c	;volatile
  3181   000DD2                     
  3182                           ; BSR set to: 2
  3183                           ;mcc_generated_files/uart2.c: 146:         UART2_FramingErrorHandler();
  3184   000DD2  D802               	call	u238
  3185   000DD4  EFF6  F006         	goto	u239
  3186   000DD8                     u238:
  3187   000DD8  0005               	push	
  3188   000DDA  6EFA               	movwf	pclath,c
  3189   000DDC  5039               	movf	_UART2_FramingErrorHandler^(0+1280),w,c
  3190   000DDE  6EFD               	movwf	tosl,c
  3191   000DE0  503A               	movf	(_UART2_FramingErrorHandler+1)^(0+1280),w,c
  3192   000DE2  6EFE               	movwf	tosh,c
  3193   000DE4  503B               	movf	(_UART2_FramingErrorHandler+2)^(0+1280),w,c
  3194   000DE6  6EFF               	movwf	tosu,c
  3195   000DE8  50FA               	movf	pclath,w,c
  3196   000DEA  0012               	return		;indir
  3197   000DEC                     u239:
  3198   000DEC                     l1913:
  3199                           
  3200                           ;mcc_generated_files/uart2.c: 149:     if(U2ERRIRbits.RXFOIF){
  3201   000DEC  0102               	movlb	2	; () banked
  3202   000DEE  A3C5               	btfss	197,1,b	;volatile
  3203   000DF0  EFFC  F006         	goto	u241
  3204   000DF4  EFFE  F006         	goto	u240
  3205   000DF8                     u241:
  3206   000DF8  EF0C  F007         	goto	l1919
  3207   000DFC                     u240:
  3208   000DFC                     
  3209                           ; BSR set to: 2
  3210                           ;mcc_generated_files/uart2.c: 150:         uart2RxLastError.oerr = 1;
  3211   000DFC  844E               	bsf	_uart2RxLastError^(0+1280),2,c	;volatile
  3212   000DFE                     
  3213                           ; BSR set to: 2
  3214                           ;mcc_generated_files/uart2.c: 151:         UART2_OverrunErrorHandler();
  3215   000DFE  D802               	call	u258
  3216   000E00  EF0C  F007         	goto	u259
  3217   000E04                     u258:
  3218   000E04  0005               	push	
  3219   000E06  6EFA               	movwf	pclath,c
  3220   000E08  5036               	movf	_UART2_OverrunErrorHandler^(0+1280),w,c
  3221   000E0A  6EFD               	movwf	tosl,c
  3222   000E0C  5037               	movf	(_UART2_OverrunErrorHandler+1)^(0+1280),w,c
  3223   000E0E  6EFE               	movwf	tosh,c
  3224   000E10  5038               	movf	(_UART2_OverrunErrorHandler+2)^(0+1280),w,c
  3225   000E12  6EFF               	movwf	tosu,c
  3226   000E14  50FA               	movf	pclath,w,c
  3227   000E16  0012               	return		;indir
  3228   000E18                     u259:
  3229   000E18                     l1919:
  3230                           
  3231                           ;mcc_generated_files/uart2.c: 154:     if(uart2RxLastError.status){
  3232   000E18  504E               	movf	_uart2RxLastError^(0+1280),w,c	;volatile
  3233   000E1A  B4D8               	btfsc	status,2,c
  3234   000E1C  EF12  F007         	goto	u261
  3235   000E20  EF14  F007         	goto	u260
  3236   000E24                     u261:
  3237   000E24  EF21  F007         	goto	l1923
  3238   000E28                     u260:
  3239   000E28                     
  3240                           ;mcc_generated_files/uart2.c: 155:         UART2_ErrorHandler();
  3241   000E28  D802               	call	u278
  3242   000E2A  EF21  F007         	goto	u279
  3243   000E2E                     u278:
  3244   000E2E  0005               	push	
  3245   000E30  6EFA               	movwf	pclath,c
  3246   000E32  5033               	movf	_UART2_ErrorHandler^(0+1280),w,c
  3247   000E34  6EFD               	movwf	tosl,c
  3248   000E36  5034               	movf	(_UART2_ErrorHandler+1)^(0+1280),w,c
  3249   000E38  6EFE               	movwf	tosh,c
  3250   000E3A  5035               	movf	(_UART2_ErrorHandler+2)^(0+1280),w,c
  3251   000E3C  6EFF               	movwf	tosu,c
  3252   000E3E  50FA               	movf	pclath,w,c
  3253   000E40  0012               	return		;indir
  3254   000E42                     u279:
  3255   000E42                     l1923:
  3256                           
  3257                           ;mcc_generated_files/uart2.c: 158:     return U2RXB;
  3258   000E42  0102               	movlb	2	; () banked
  3259   000E44  51B4               	movf	180,w,b	;volatile
  3260   000E46                     
  3261                           ; BSR set to: 2
  3262   000E46  0012               	return		;funcret
  3263   000E48                     __end_of_UART2_Read:
  3264                           	callstack 0
  3265                           
  3266 ;; *************** function _UART2_DefaultOverrunErrorHandler *****************
  3267 ;; Defined at:
  3268 ;;		line 176 in file "mcc_generated_files/uart2.c"
  3269 ;; Parameters:    Size  Location     Type
  3270 ;;		None
  3271 ;; Auto vars:     Size  Location     Type
  3272 ;;		None
  3273 ;; Return value:  Size  Location     Type
  3274 ;;                  1    wreg      void 
  3275 ;; Registers used:
  3276 ;;		None
  3277 ;; Tracked objects:
  3278 ;;		On entry : 0/0
  3279 ;;		On exit  : 0/0
  3280 ;;		Unchanged: 0/0
  3281 ;; Data sizes:     COMRAM   BANK5   BANK6   BANK7   BANK8   BANK9  BANK10  BANK11  BANK12  BANK13  BANK14  BANK15  BANK1
      +6  BANK17  BANK18  BANK19  BANK20  BANK21  BANK22  BANK23  BANK24  BANK25  BANK26  BANK27  BANK28  BANK29  BANK30  BANK3
      +1  BANK32  BANK33  BANK34  BANK35  BANK36
  3282 ;;      Params:         0       0       0       0       0       0       0       0       0       0       0       0       
      +0       0       0       0       0       0       0       0       0       0       0       0       0       0       0       
      +0       0       0       0       0       0
  3283 ;;      Locals:         0       0       0       0       0       0       0       0       0       0       0       0       
      +0       0       0       0       0       0       0       0       0       0       0       0       0       0       0       
      +0       0       0       0       0       0
  3284 ;;      Temps:          0       0       0       0       0       0       0       0       0       0       0       0       
      +0       0       0       0       0       0       0       0       0       0       0       0       0       0       0       
      +0       0       0       0       0       0
  3285 ;;      Totals:         0       0       0       0       0       0       0       0       0       0       0       0       
      +0       0       0       0       0       0       0       0       0       0       0       0       0       0       0       
      +0       0       0       0       0       0
  3286 ;;Total ram usage:        0 bytes
  3287 ;; Hardware stack levels used: 1
  3288 ;; Hardware stack levels required when called: 4
  3289 ;; This function calls:
  3290 ;;		Nothing
  3291 ;; This function is called by:
  3292 ;;		_UART2_Initialize
  3293 ;;		_UART2_Read
  3294 ;; This function uses a non-reentrant model
  3295 ;;
  3296                           
  3297                           	psect	text25
  3298   0013FE                     __ptext25:
  3299                           	callstack 0
  3300   0013FE                     _UART2_DefaultOverrunErrorHandler:
  3301                           	callstack 120
  3302   0013FE  0012               	return		;funcret
  3303   001400                     __end_of_UART2_DefaultOverrunErrorHandler:
  3304                           	callstack 0
  3305                           
  3306 ;; *************** function _UART2_DefaultFramingErrorHandler *****************
  3307 ;; Defined at:
  3308 ;;		line 174 in file "mcc_generated_files/uart2.c"
  3309 ;; Parameters:    Size  Location     Type
  3310 ;;		None
  3311 ;; Auto vars:     Size  Location     Type
  3312 ;;		None
  3313 ;; Return value:  Size  Location     Type
  3314 ;;                  1    wreg      void 
  3315 ;; Registers used:
  3316 ;;		None
  3317 ;; Tracked objects:
  3318 ;;		On entry : 0/0
  3319 ;;		On exit  : 0/0
  3320 ;;		Unchanged: 0/0
  3321 ;; Data sizes:     COMRAM   BANK5   BANK6   BANK7   BANK8   BANK9  BANK10  BANK11  BANK12  BANK13  BANK14  BANK15  BANK1
      +6  BANK17  BANK18  BANK19  BANK20  BANK21  BANK22  BANK23  BANK24  BANK25  BANK26  BANK27  BANK28  BANK29  BANK30  BANK3
      +1  BANK32  BANK33  BANK34  BANK35  BANK36
  3322 ;;      Params:         0       0       0       0       0       0       0       0       0       0       0       0       
      +0       0       0       0       0       0       0       0       0       0       0       0       0       0       0       
      +0       0       0       0       0       0
  3323 ;;      Locals:         0       0       0       0       0       0       0       0       0       0       0       0       
      +0       0       0       0       0       0       0       0       0       0       0       0       0       0       0       
      +0       0       0       0       0       0
  3324 ;;      Temps:          0       0       0       0       0       0       0       0       0       0       0       0       
      +0       0       0       0       0       0       0       0       0       0       0       0       0       0       0       
      +0       0       0       0       0       0
  3325 ;;      Totals:         0       0       0       0       0       0       0       0       0       0       0       0       
      +0       0       0       0       0       0       0       0       0       0       0       0       0       0       0       
      +0       0       0       0       0       0
  3326 ;;Total ram usage:        0 bytes
  3327 ;; Hardware stack levels used: 1
  3328 ;; Hardware stack levels required when called: 4
  3329 ;; This function calls:
  3330 ;;		Nothing
  3331 ;; This function is called by:
  3332 ;;		_UART2_Initialize
  3333 ;;		_UART2_Read
  3334 ;; This function uses a non-reentrant model
  3335 ;;
  3336                           
  3337                           	psect	text26
  3338   001400                     __ptext26:
  3339                           	callstack 0
  3340   001400                     _UART2_DefaultFramingErrorHandler:
  3341                           	callstack 120
  3342   001400  0012               	return		;funcret
  3343   001402                     __end_of_UART2_DefaultFramingErrorHandler:
  3344                           	callstack 0
  3345                           
  3346 ;; *************** function _UART2_DefaultErrorHandler *****************
  3347 ;; Defined at:
  3348 ;;		line 178 in file "mcc_generated_files/uart2.c"
  3349 ;; Parameters:    Size  Location     Type
  3350 ;;		None
  3351 ;; Auto vars:     Size  Location     Type
  3352 ;;		None
  3353 ;; Return value:  Size  Location     Type
  3354 ;;                  1    wreg      void 
  3355 ;; Registers used:
  3356 ;;		None
  3357 ;; Tracked objects:
  3358 ;;		On entry : 0/0
  3359 ;;		On exit  : 0/0
  3360 ;;		Unchanged: 0/0
  3361 ;; Data sizes:     COMRAM   BANK5   BANK6   BANK7   BANK8   BANK9  BANK10  BANK11  BANK12  BANK13  BANK14  BANK15  BANK1
      +6  BANK17  BANK18  BANK19  BANK20  BANK21  BANK22  BANK23  BANK24  BANK25  BANK26  BANK27  BANK28  BANK29  BANK30  BANK3
      +1  BANK32  BANK33  BANK34  BANK35  BANK36
  3362 ;;      Params:         0       0       0       0       0       0       0       0       0       0       0       0       
      +0       0       0       0       0       0       0       0       0       0       0       0       0       0       0       
      +0       0       0       0       0       0
  3363 ;;      Locals:         0       0       0       0       0       0       0       0       0       0       0       0       
      +0       0       0       0       0       0       0       0       0       0       0       0       0       0       0       
      +0       0       0       0       0       0
  3364 ;;      Temps:          0       0       0       0       0       0       0       0       0       0       0       0       
      +0       0       0       0       0       0       0       0       0       0       0       0       0       0       0       
      +0       0       0       0       0       0
  3365 ;;      Totals:         0       0       0       0       0       0       0       0       0       0       0       0       
      +0       0       0       0       0       0       0       0       0       0       0       0       0       0       0       
      +0       0       0       0       0       0
  3366 ;;Total ram usage:        0 bytes
  3367 ;; Hardware stack levels used: 1
  3368 ;; Hardware stack levels required when called: 4
  3369 ;; This function calls:
  3370 ;;		Nothing
  3371 ;; This function is called by:
  3372 ;;		_UART2_Initialize
  3373 ;;		_UART2_Read
  3374 ;; This function uses a non-reentrant model
  3375 ;;
  3376                           
  3377                           	psect	text27
  3378   001402                     __ptext27:
  3379                           	callstack 0
  3380   001402                     _UART2_DefaultErrorHandler:
  3381                           	callstack 120
  3382   001402  0012               	return		;funcret
  3383   001404                     __end_of_UART2_DefaultErrorHandler:
  3384                           	callstack 0
  3385                           
  3386 ;; *************** function _GetFromOtherPacket *****************
  3387 ;; Defined at:
  3388 ;;		line 448 in file "main.c"
  3389 ;; Parameters:    Size  Location     Type
  3390 ;;  TargetDipSW     2    2[COMRAM] PTR unsigned char 
  3391 ;;		 -> main@TargetDipSW(1), 
  3392 ;;  Cmd             2    4[COMRAM] PTR unsigned char 
  3393 ;;		 -> main@DCmd(1), 
  3394 ;;  Data            2    6[COMRAM] PTR unsigned char 
  3395 ;;		 -> main@Buff(16), 
  3396 ;;  Len             2    8[COMRAM] PTR int 
  3397 ;;		 -> main@DataLen(2), 
  3398 ;;  MaxBuffLen      2   10[COMRAM] int 
  3399 ;; Auto vars:     Size  Location     Type
  3400 ;;  i               2   16[COMRAM] int 
  3401 ;;  d               1   19[COMRAM] unsigned char 
  3402 ;;  DataLen         1   18[COMRAM] unsigned char 
  3403 ;;  Checksum        1   15[COMRAM] unsigned char 
  3404 ;; Return value:  Size  Location     Type
  3405 ;;                  1    wreg      _Bool 
  3406 ;; Registers used:
  3407 ;;		wreg, fsr2l, fsr2h, status,2, status,0, pcl, pclath, pclatu, tosl, cstack
  3408 ;; Tracked objects:
  3409 ;;		On entry : 0/0
  3410 ;;		On exit  : 0/0
  3411 ;;		Unchanged: 0/0
  3412 ;; Data sizes:     COMRAM   BANK5   BANK6   BANK7   BANK8   BANK9  BANK10  BANK11  BANK12  BANK13  BANK14  BANK15  BANK1
      +6  BANK17  BANK18  BANK19  BANK20  BANK21  BANK22  BANK23  BANK24  BANK25  BANK26  BANK27  BANK28  BANK29  BANK30  BANK3
      +1  BANK32  BANK33  BANK34  BANK35  BANK36
  3413 ;;      Params:        10       0       0       0       0       0       0       0       0       0       0       0       
      +0       0       0       0       0       0       0       0       0       0       0       0       0       0       0       
      +0       0       0       0       0       0
  3414 ;;      Locals:         5       0       0       0       0       0       0       0       0       0       0       0       
      +0       0       0       0       0       0       0       0       0       0       0       0       0       0       0       
      +0       0       0       0       0       0
  3415 ;;      Temps:          3       0       0       0       0       0       0       0       0       0       0       0       
      +0       0       0       0       0       0       0       0       0       0       0       0       0       0       0       
      +0       0       0       0       0       0
  3416 ;;      Totals:        18       0       0       0       0       0       0       0       0       0       0       0       
      +0       0       0       0       0       0       0       0       0       0       0       0       0       0       0       
      +0       0       0       0       0       0
  3417 ;;Total ram usage:       18 bytes
  3418 ;; Hardware stack levels used: 1
  3419 ;; Hardware stack levels required when called: 6
  3420 ;; This function calls:
  3421 ;;		_TMR0_HasOverflowOccured
  3422 ;;		_TMR0_Initialize
  3423 ;;		_TMR0_StartTimer
  3424 ;;		_UART1_Read
  3425 ;;		_UART1_is_rx_ready
  3426 ;; This function is called by:
  3427 ;;		_main
  3428 ;; This function uses a non-reentrant model
  3429 ;;
  3430                           
  3431                           	psect	text28
  3432   000250                     __ptext28:
  3433                           	callstack 0
  3434   000250                     _GetFromOtherPacket:
  3435                           	callstack 120
  3436   000250                     
  3437                           ;main.c: 448: _Bool GetFromOtherPacket(unsigned char *TargetDipSW,unsigned char *Cmd;mai
      +                          n.c: 449:                             ,unsigned char Data[],int *Len ,int MaxBuffLen);ma
      +                          in.c: 450: {;main.c: 451:     unsigned char d;;main.c: 452:     unsigned char Checksum;;
      +                          main.c: 453:     unsigned char DataLen;;main.c: 454:     int i;;main.c: 456:     if(UART
      +                          1_is_rx_ready()==1){
  3438   000250  EC9B  F009         	call	_UART1_is_rx_ready	;wreg free
  3439   000254  06E8               	decf	wreg,f,c
  3440   000256  A4D8               	btfss	status,2,c
  3441   000258  EF30  F001         	goto	u1911
  3442   00025C  EF32  F001         	goto	u1910
  3443   000260                     u1911:
  3444   000260  EF3E  F001         	goto	l3345
  3445   000264                     u1910:
  3446   000264                     
  3447                           ;main.c: 457:         d=UART1_Read();
  3448   000264  EC24  F007         	call	_UART1_Read	;wreg free
  3449   000268  6E14               	movwf	GetFromOtherPacket@d^(0+1280),c
  3450   00026A                     
  3451                           ;main.c: 458:         if(d!=0x1E){
  3452   00026A  0E1E               	movlw	30
  3453   00026C  1814               	xorwf	GetFromOtherPacket@d^(0+1280),w,c
  3454   00026E  B4D8               	btfsc	status,2,c
  3455   000270  EF3C  F001         	goto	u1921
  3456   000274  EF3E  F001         	goto	u1920
  3457   000278                     u1921:
  3458   000278  EF41  F001         	goto	l1018
  3459   00027C                     u1920:
  3460   00027C                     l3345:
  3461                           
  3462                           ;main.c: 459:             return 0;
  3463   00027C  0E00               	movlw	0
  3464   00027E  EF3A  F002         	goto	l1019
  3465   000282                     l1018:
  3466                           
  3467                           ;main.c: 461:         Checksum=d;
  3468   000282  C514  F510         	movff	GetFromOtherPacket@d,GetFromOtherPacket@Checksum
  3469   000286                     
  3470                           ;main.c: 463:         TMR0_Initialize();
  3471   000286  EC86  F009         	call	_TMR0_Initialize	;wreg free
  3472   00028A                     
  3473                           ;main.c: 464:         TMR0_StartTimer();
  3474   00028A  ECFA  F009         	call	_TMR0_StartTimer	;wreg free
  3475   00028E                     l3353:
  3476                           
  3477                           ;main.c: 466:             if(UART1_is_rx_ready()==1){
  3478   00028E  EC9B  F009         	call	_UART1_is_rx_ready	;wreg free
  3479   000292  06E8               	decf	wreg,f,c
  3480   000294  A4D8               	btfss	status,2,c
  3481   000296  EF4F  F001         	goto	u1931
  3482   00029A  EF51  F001         	goto	u1930
  3483   00029E                     u1931:
  3484   00029E  EF53  F001         	goto	l3357
  3485   0002A2                     u1930:
  3486   0002A2  EF5F  F001         	goto	l3363
  3487   0002A6                     l3357:
  3488                           
  3489                           ;main.c: 469:             if(TMR0_HasOverflowOccured()==1){
  3490   0002A6  ECA5  F009         	call	_TMR0_HasOverflowOccured	;wreg free
  3491   0002AA  06E8               	decf	wreg,f,c
  3492   0002AC  A4D8               	btfss	status,2,c
  3493   0002AE  EF5B  F001         	goto	u1941
  3494   0002B2  EF5D  F001         	goto	u1940
  3495   0002B6                     u1941:
  3496   0002B6  EF47  F001         	goto	l3353
  3497   0002BA                     u1940:
  3498   0002BA  EF3E  F001         	goto	l3345
  3499   0002BE                     l3363:
  3500                           
  3501                           ;main.c: 473:         d=UART1_Read();
  3502   0002BE  EC24  F007         	call	_UART1_Read	;wreg free
  3503   0002C2  6E14               	movwf	GetFromOtherPacket@d^(0+1280),c
  3504   0002C4                     
  3505                           ;main.c: 474:         *TargetDipSW=d;
  3506   0002C4  C503  F4D9         	movff	GetFromOtherPacket@TargetDipSW,fsr2l
  3507   0002C8  C504  F4DA         	movff	GetFromOtherPacket@TargetDipSW+1,fsr2h
  3508   0002CC  C514  F4DF         	movff	GetFromOtherPacket@d,indf2
  3509   0002D0                     
  3510                           ;main.c: 475:         Checksum^=d;
  3511   0002D0  5014               	movf	GetFromOtherPacket@d^(0+1280),w,c
  3512   0002D2  1A10               	xorwf	GetFromOtherPacket@Checksum^(0+1280),f,c
  3513   0002D4                     
  3514                           ;main.c: 477:         TMR0_Initialize();
  3515   0002D4  EC86  F009         	call	_TMR0_Initialize	;wreg free
  3516   0002D8                     
  3517                           ;main.c: 478:         TMR0_StartTimer();
  3518   0002D8  ECFA  F009         	call	_TMR0_StartTimer	;wreg free
  3519   0002DC                     l3373:
  3520                           
  3521                           ;main.c: 480:             if(UART1_is_rx_ready()==1){
  3522   0002DC  EC9B  F009         	call	_UART1_is_rx_ready	;wreg free
  3523   0002E0  06E8               	decf	wreg,f,c
  3524   0002E2  A4D8               	btfss	status,2,c
  3525   0002E4  EF76  F001         	goto	u1951
  3526   0002E8  EF78  F001         	goto	u1950
  3527   0002EC                     u1951:
  3528   0002EC  EF7A  F001         	goto	l3377
  3529   0002F0                     u1950:
  3530   0002F0  EF86  F001         	goto	l3383
  3531   0002F4                     l3377:
  3532                           
  3533                           ;main.c: 483:             if(TMR0_HasOverflowOccured()==1){
  3534   0002F4  ECA5  F009         	call	_TMR0_HasOverflowOccured	;wreg free
  3535   0002F8  06E8               	decf	wreg,f,c
  3536   0002FA  A4D8               	btfss	status,2,c
  3537   0002FC  EF82  F001         	goto	u1961
  3538   000300  EF84  F001         	goto	u1960
  3539   000304                     u1961:
  3540   000304  EF6E  F001         	goto	l3373
  3541   000308                     u1960:
  3542   000308  EF3E  F001         	goto	l3345
  3543   00030C                     l3383:
  3544                           
  3545                           ;main.c: 487:         d=UART1_Read();
  3546   00030C  EC24  F007         	call	_UART1_Read	;wreg free
  3547   000310  6E14               	movwf	GetFromOtherPacket@d^(0+1280),c
  3548   000312                     
  3549                           ;main.c: 488:         *Cmd=d;
  3550   000312  C505  F4D9         	movff	GetFromOtherPacket@Cmd,fsr2l
  3551   000316  C506  F4DA         	movff	GetFromOtherPacket@Cmd+1,fsr2h
  3552   00031A  C514  F4DF         	movff	GetFromOtherPacket@d,indf2
  3553   00031E                     
  3554                           ;main.c: 489:         Checksum^=d;
  3555   00031E  5014               	movf	GetFromOtherPacket@d^(0+1280),w,c
  3556   000320  1A10               	xorwf	GetFromOtherPacket@Checksum^(0+1280),f,c
  3557   000322                     
  3558                           ;main.c: 491:         TMR0_Initialize();
  3559   000322  EC86  F009         	call	_TMR0_Initialize	;wreg free
  3560   000326                     
  3561                           ;main.c: 492:         TMR0_StartTimer();
  3562   000326  ECFA  F009         	call	_TMR0_StartTimer	;wreg free
  3563   00032A                     l3393:
  3564                           
  3565                           ;main.c: 494:             if(UART1_is_rx_ready()==1){
  3566   00032A  EC9B  F009         	call	_UART1_is_rx_ready	;wreg free
  3567   00032E  06E8               	decf	wreg,f,c
  3568   000330  A4D8               	btfss	status,2,c
  3569   000332  EF9D  F001         	goto	u1971
  3570   000336  EF9F  F001         	goto	u1970
  3571   00033A                     u1971:
  3572   00033A  EFA1  F001         	goto	l3397
  3573   00033E                     u1970:
  3574   00033E  EFAD  F001         	goto	l3403
  3575   000342                     l3397:
  3576                           
  3577                           ;main.c: 497:             if(TMR0_HasOverflowOccured()==1){
  3578   000342  ECA5  F009         	call	_TMR0_HasOverflowOccured	;wreg free
  3579   000346  06E8               	decf	wreg,f,c
  3580   000348  A4D8               	btfss	status,2,c
  3581   00034A  EFA9  F001         	goto	u1981
  3582   00034E  EFAB  F001         	goto	u1980
  3583   000352                     u1981:
  3584   000352  EF95  F001         	goto	l3393
  3585   000356                     u1980:
  3586   000356  EF3E  F001         	goto	l3345
  3587   00035A                     l3403:
  3588                           
  3589                           ;main.c: 501:         DataLen=UART1_Read();
  3590   00035A  EC24  F007         	call	_UART1_Read	;wreg free
  3591   00035E  6E13               	movwf	GetFromOtherPacket@DataLen^(0+1280),c
  3592   000360                     
  3593                           ;main.c: 502:         Checksum^=DataLen;
  3594   000360  5013               	movf	GetFromOtherPacket@DataLen^(0+1280),w,c
  3595   000362  1A10               	xorwf	GetFromOtherPacket@Checksum^(0+1280),f,c
  3596   000364                     
  3597                           ;main.c: 504:         for(i=0;i<DataLen && i<MaxBuffLen;i++){
  3598   000364  0E00               	movlw	0
  3599   000366  6E12               	movwf	(GetFromOtherPacket@i+1)^(0+1280),c
  3600   000368  0E00               	movlw	0
  3601   00036A  6E11               	movwf	GetFromOtherPacket@i^(0+1280),c
  3602   00036C  EFE3  F001         	goto	l3431
  3603   000370                     l3409:
  3604                           
  3605                           ;main.c: 505:             TMR0_Initialize();
  3606   000370  EC86  F009         	call	_TMR0_Initialize	;wreg free
  3607   000374                     
  3608                           ;main.c: 506:             TMR0_StartTimer();
  3609   000374  ECFA  F009         	call	_TMR0_StartTimer	;wreg free
  3610   000378                     l3413:
  3611                           
  3612                           ;main.c: 508:                 if(UART1_is_rx_ready()==1){
  3613   000378  EC9B  F009         	call	_UART1_is_rx_ready	;wreg free
  3614   00037C  06E8               	decf	wreg,f,c
  3615   00037E  A4D8               	btfss	status,2,c
  3616   000380  EFC4  F001         	goto	u1991
  3617   000384  EFC6  F001         	goto	u1990
  3618   000388                     u1991:
  3619   000388  EFC8  F001         	goto	l3417
  3620   00038C                     u1990:
  3621   00038C  EFD4  F001         	goto	l3423
  3622   000390                     l3417:
  3623                           
  3624                           ;main.c: 511:                 if(TMR0_HasOverflowOccured()==1){
  3625   000390  ECA5  F009         	call	_TMR0_HasOverflowOccured	;wreg free
  3626   000394  06E8               	decf	wreg,f,c
  3627   000396  A4D8               	btfss	status,2,c
  3628   000398  EFD0  F001         	goto	u2001
  3629   00039C  EFD2  F001         	goto	u2000
  3630   0003A0                     u2001:
  3631   0003A0  EFBC  F001         	goto	l3413
  3632   0003A4                     u2000:
  3633   0003A4  EF3E  F001         	goto	l3345
  3634   0003A8                     l3423:
  3635                           
  3636                           ;main.c: 515:             d=UART1_Read();
  3637   0003A8  EC24  F007         	call	_UART1_Read	;wreg free
  3638   0003AC  6E14               	movwf	GetFromOtherPacket@d^(0+1280),c
  3639   0003AE                     
  3640                           ;main.c: 516:             Data[i]=d;
  3641   0003AE  5011               	movf	GetFromOtherPacket@i^(0+1280),w,c
  3642   0003B0  2407               	addwf	GetFromOtherPacket@Data^(0+1280),w,c
  3643   0003B2  6ED9               	movwf	fsr2l,c
  3644   0003B4  5012               	movf	(GetFromOtherPacket@i+1)^(0+1280),w,c
  3645   0003B6  2008               	addwfc	(GetFromOtherPacket@Data+1)^(0+1280),w,c
  3646   0003B8  6EDA               	movwf	fsr2h,c
  3647   0003BA  C514  F4DF         	movff	GetFromOtherPacket@d,indf2
  3648   0003BE                     
  3649                           ;main.c: 517:             Checksum^=d;
  3650   0003BE  5014               	movf	GetFromOtherPacket@d^(0+1280),w,c
  3651   0003C0  1A10               	xorwf	GetFromOtherPacket@Checksum^(0+1280),f,c
  3652   0003C2                     
  3653                           ;main.c: 518:         }
  3654   0003C2  4A11               	infsnz	GetFromOtherPacket@i^(0+1280),f,c
  3655   0003C4  2A12               	incf	(GetFromOtherPacket@i+1)^(0+1280),f,c
  3656   0003C6                     l3431:
  3657   0003C6  5013               	movf	GetFromOtherPacket@DataLen^(0+1280),w,c
  3658   0003C8  6E0D               	movwf	??_GetFromOtherPacket^(0+1280),c
  3659   0003CA  6A0E               	clrf	(??_GetFromOtherPacket+1)^(0+1280),c
  3660   0003CC  500D               	movf	??_GetFromOtherPacket^(0+1280),w,c
  3661   0003CE  5C11               	subwf	GetFromOtherPacket@i^(0+1280),w,c
  3662   0003D0  5012               	movf	(GetFromOtherPacket@i+1)^(0+1280),w,c
  3663   0003D2  0A80               	xorlw	128
  3664   0003D4  6E0F               	movwf	(??_GetFromOtherPacket+2)^(0+1280),c
  3665   0003D6  500E               	movf	(??_GetFromOtherPacket+1)^(0+1280),w,c
  3666   0003D8  0A80               	xorlw	128
  3667   0003DA  580F               	subwfb	(??_GetFromOtherPacket+2)^(0+1280),w,c
  3668   0003DC  B0D8               	btfsc	status,0,c
  3669   0003DE  EFF3  F001         	goto	u2011
  3670   0003E2  EFF5  F001         	goto	u2010
  3671   0003E6                     u2011:
  3672   0003E6  EF04  F002         	goto	l3435
  3673   0003EA                     u2010:
  3674   0003EA  500B               	movf	GetFromOtherPacket@MaxBuffLen^(0+1280),w,c
  3675   0003EC  5C11               	subwf	GetFromOtherPacket@i^(0+1280),w,c
  3676   0003EE  5012               	movf	(GetFromOtherPacket@i+1)^(0+1280),w,c
  3677   0003F0  0A80               	xorlw	128
  3678   0003F2  6E0D               	movwf	??_GetFromOtherPacket^(0+1280),c
  3679   0003F4  500C               	movf	(GetFromOtherPacket@MaxBuffLen+1)^(0+1280),w,c
  3680   0003F6  0A80               	xorlw	128
  3681   0003F8  580D               	subwfb	??_GetFromOtherPacket^(0+1280),w,c
  3682   0003FA  A0D8               	btfss	status,0,c
  3683   0003FC  EF02  F002         	goto	u2021
  3684   000400  EF04  F002         	goto	u2020
  3685   000404                     u2021:
  3686   000404  EFB8  F001         	goto	l3409
  3687   000408                     u2020:
  3688   000408                     l3435:
  3689                           
  3690                           ;main.c: 520:         TMR0_Initialize();
  3691   000408  EC86  F009         	call	_TMR0_Initialize	;wreg free
  3692   00040C                     
  3693                           ;main.c: 521:         TMR0_StartTimer();
  3694   00040C  ECFA  F009         	call	_TMR0_StartTimer	;wreg free
  3695   000410                     l3439:
  3696                           
  3697                           ;main.c: 523:             if(UART1_is_rx_ready()==1){
  3698   000410  EC9B  F009         	call	_UART1_is_rx_ready	;wreg free
  3699   000414  06E8               	decf	wreg,f,c
  3700   000416  A4D8               	btfss	status,2,c
  3701   000418  EF10  F002         	goto	u2031
  3702   00041C  EF12  F002         	goto	u2030
  3703   000420                     u2031:
  3704   000420  EF14  F002         	goto	l3443
  3705   000424                     u2030:
  3706   000424  EF20  F002         	goto	l3449
  3707   000428                     l3443:
  3708                           
  3709                           ;main.c: 526:             if(TMR0_HasOverflowOccured()==1){
  3710   000428  ECA5  F009         	call	_TMR0_HasOverflowOccured	;wreg free
  3711   00042C  06E8               	decf	wreg,f,c
  3712   00042E  A4D8               	btfss	status,2,c
  3713   000430  EF1C  F002         	goto	u2041
  3714   000434  EF1E  F002         	goto	u2040
  3715   000438                     u2041:
  3716   000438  EF08  F002         	goto	l3439
  3717   00043C                     u2040:
  3718   00043C  EF3E  F001         	goto	l3345
  3719   000440                     l3449:
  3720                           
  3721                           ;main.c: 530:         d=UART1_Read();
  3722   000440  EC24  F007         	call	_UART1_Read	;wreg free
  3723   000444  6E14               	movwf	GetFromOtherPacket@d^(0+1280),c
  3724   000446                     
  3725                           ;main.c: 531:         if(Checksum!=d){
  3726   000446  5014               	movf	GetFromOtherPacket@d^(0+1280),w,c
  3727   000448  1810               	xorwf	GetFromOtherPacket@Checksum^(0+1280),w,c
  3728   00044A  B4D8               	btfsc	status,2,c
  3729   00044C  EF2A  F002         	goto	u2051
  3730   000450  EF2C  F002         	goto	u2050
  3731   000454                     u2051:
  3732   000454  EF2E  F002         	goto	l3457
  3733   000458                     u2050:
  3734   000458  EF3E  F001         	goto	l3345
  3735   00045C                     l3457:
  3736                           
  3737                           ;main.c: 534:         *Len=DataLen;
  3738   00045C  5013               	movf	GetFromOtherPacket@DataLen^(0+1280),w,c
  3739   00045E  6E0D               	movwf	??_GetFromOtherPacket^(0+1280),c
  3740   000460  6A0E               	clrf	(??_GetFromOtherPacket+1)^(0+1280),c
  3741   000462  C509  F4D9         	movff	GetFromOtherPacket@Len,fsr2l
  3742   000466  C50A  F4DA         	movff	GetFromOtherPacket@Len+1,fsr2h
  3743   00046A  C50D  F4DE         	movff	??_GetFromOtherPacket,postinc2
  3744   00046E  C50E  F4DD         	movff	??_GetFromOtherPacket+1,postdec2
  3745   000472                     
  3746                           ;main.c: 535:         return 1;
  3747   000472  0E01               	movlw	1
  3748   000474                     l1019:
  3749   000474  0012               	return		;funcret
  3750   000476                     __end_of_GetFromOtherPacket:
  3751                           	callstack 0
  3752                           
  3753 ;; *************** function _UART1_is_rx_ready *****************
  3754 ;; Defined at:
  3755 ;;		line 126 in file "mcc_generated_files/uart1.c"
  3756 ;; Parameters:    Size  Location     Type
  3757 ;;		None
  3758 ;; Auto vars:     Size  Location     Type
  3759 ;;		None
  3760 ;; Return value:  Size  Location     Type
  3761 ;;                  1    wreg      _Bool 
  3762 ;; Registers used:
  3763 ;;		wreg
  3764 ;; Tracked objects:
  3765 ;;		On entry : 0/0
  3766 ;;		On exit  : 0/0
  3767 ;;		Unchanged: 0/0
  3768 ;; Data sizes:     COMRAM   BANK5   BANK6   BANK7   BANK8   BANK9  BANK10  BANK11  BANK12  BANK13  BANK14  BANK15  BANK1
      +6  BANK17  BANK18  BANK19  BANK20  BANK21  BANK22  BANK23  BANK24  BANK25  BANK26  BANK27  BANK28  BANK29  BANK30  BANK3
      +1  BANK32  BANK33  BANK34  BANK35  BANK36
  3769 ;;      Params:         0       0       0       0       0       0       0       0       0       0       0       0       
      +0       0       0       0       0       0       0       0       0       0       0       0       0       0       0       
      +0       0       0       0       0       0
  3770 ;;      Locals:         0       0       0       0       0       0       0       0       0       0       0       0       
      +0       0       0       0       0       0       0       0       0       0       0       0       0       0       0       
      +0       0       0       0       0       0
  3771 ;;      Temps:          0       0       0       0       0       0       0       0       0       0       0       0       
      +0       0       0       0       0       0       0       0       0       0       0       0       0       0       0       
      +0       0       0       0       0       0
  3772 ;;      Totals:         0       0       0       0       0       0       0       0       0       0       0       0       
      +0       0       0       0       0       0       0       0       0       0       0       0       0       0       0       
      +0       0       0       0       0       0
  3773 ;;Total ram usage:        0 bytes
  3774 ;; Hardware stack levels used: 1
  3775 ;; Hardware stack levels required when called: 4
  3776 ;; This function calls:
  3777 ;;		Nothing
  3778 ;; This function is called by:
  3779 ;;		_GetFromOtherPacket
  3780 ;; This function uses a non-reentrant model
  3781 ;;
  3782                           
  3783                           	psect	text29
  3784   001336                     __ptext29:
  3785                           	callstack 0
  3786   001336                     _UART1_is_rx_ready:
  3787                           	callstack 121
  3788   001336                     
  3789                           ;mcc_generated_files/uart1.c: 128:     return (_Bool)(PIR4bits.U1RXIF);
  3790   001336  B0B2               	btfsc	178,0,c	;volatile
  3791   001338  EFA0  F009         	goto	u11
  3792   00133C  EFA3  F009         	goto	u10
  3793   001340                     u11:
  3794   001340  0E01               	movlw	1
  3795   001342  EFA4  F009         	goto	u16
  3796   001346                     u10:
  3797   001346  0E00               	movlw	0
  3798   001348                     u16:
  3799   001348  0012               	return		;funcret
  3800   00134A                     __end_of_UART1_is_rx_ready:
  3801                           	callstack 0
  3802                           
  3803 ;; *************** function _UART1_Read *****************
  3804 ;; Defined at:
  3805 ;;		line 145 in file "mcc_generated_files/uart1.c"
  3806 ;; Parameters:    Size  Location     Type
  3807 ;;		None
  3808 ;; Auto vars:     Size  Location     Type
  3809 ;;		None
  3810 ;; Return value:  Size  Location     Type
  3811 ;;                  1    wreg      unsigned char 
  3812 ;; Registers used:
  3813 ;;		wreg, status,2, pcl, pclath, pclatu, tosl, cstack
  3814 ;; Tracked objects:
  3815 ;;		On entry : 0/0
  3816 ;;		On exit  : 0/0
  3817 ;;		Unchanged: 0/0
  3818 ;; Data sizes:     COMRAM   BANK5   BANK6   BANK7   BANK8   BANK9  BANK10  BANK11  BANK12  BANK13  BANK14  BANK15  BANK1
      +6  BANK17  BANK18  BANK19  BANK20  BANK21  BANK22  BANK23  BANK24  BANK25  BANK26  BANK27  BANK28  BANK29  BANK30  BANK3
      +1  BANK32  BANK33  BANK34  BANK35  BANK36
  3819 ;;      Params:         0       0       0       0       0       0       0       0       0       0       0       0       
      +0       0       0       0       0       0       0       0       0       0       0       0       0       0       0       
      +0       0       0       0       0       0
  3820 ;;      Locals:         0       0       0       0       0       0       0       0       0       0       0       0       
      +0       0       0       0       0       0       0       0       0       0       0       0       0       0       0       
      +0       0       0       0       0       0
  3821 ;;      Temps:          0       0       0       0       0       0       0       0       0       0       0       0       
      +0       0       0       0       0       0       0       0       0       0       0       0       0       0       0       
      +0       0       0       0       0       0
  3822 ;;      Totals:         0       0       0       0       0       0       0       0       0       0       0       0       
      +0       0       0       0       0       0       0       0       0       0       0       0       0       0       0       
      +0       0       0       0       0       0
  3823 ;;Total ram usage:        0 bytes
  3824 ;; Hardware stack levels used: 1
  3825 ;; Hardware stack levels required when called: 5
  3826 ;; This function calls:
  3827 ;;		Absolute function
  3828 ;;		_UART1_DefaultErrorHandler
  3829 ;;		_UART1_DefaultFramingErrorHandler
  3830 ;;		_UART1_DefaultOverrunErrorHandler
  3831 ;; This function is called by:
  3832 ;;		_GetFromOtherPacket
  3833 ;; This function uses a non-reentrant model
  3834 ;;
  3835                           
  3836                           	psect	text30
  3837   000E48                     __ptext30:
  3838                           	callstack 0
  3839   000E48                     _UART1_Read:
  3840                           	callstack 120
  3841   000E48                     l114:
  3842                           
  3843                           ;mcc_generated_files/uart1.c: 147:     while(!PIR4bits.U1RXIF)
  3844   000E48  A0B2               	btfss	178,0,c	;volatile
  3845   000E4A  EF29  F007         	goto	u41
  3846   000E4E  EF2B  F007         	goto	u40
  3847   000E52                     u41:
  3848   000E52  EF24  F007         	goto	l114
  3849   000E56                     u40:
  3850   000E56                     
  3851                           ;mcc_generated_files/uart1.c: 151:     uart1RxLastError.status = 0;
  3852   000E56  0E00               	movlw	0
  3853   000E58  6E4F               	movwf	_uart1RxLastError^(0+1280),c	;volatile
  3854   000E5A                     
  3855                           ;mcc_generated_files/uart1.c: 153:     if(U1ERRIRbits.FERIF){
  3856   000E5A  0102               	movlb	2	; () banked
  3857   000E5C  A7B2               	btfss	178,3,b	;volatile
  3858   000E5E  EF33  F007         	goto	u51
  3859   000E62  EF35  F007         	goto	u50
  3860   000E66                     u51:
  3861   000E66  EF43  F007         	goto	l1795
  3862   000E6A                     u50:
  3863   000E6A                     
  3864                           ; BSR set to: 2
  3865                           ;mcc_generated_files/uart1.c: 154:         uart1RxLastError.ferr = 1;
  3866   000E6A  824F               	bsf	_uart1RxLastError^(0+1280),1,c	;volatile
  3867   000E6C                     
  3868                           ; BSR set to: 2
  3869                           ;mcc_generated_files/uart1.c: 155:         UART1_FramingErrorHandler();
  3870   000E6C  D802               	call	u68
  3871   000E6E  EF43  F007         	goto	u69
  3872   000E72                     u68:
  3873   000E72  0005               	push	
  3874   000E74  6EFA               	movwf	pclath,c
  3875   000E76  504B               	movf	_UART1_FramingErrorHandler^(0+1280),w,c
  3876   000E78  6EFD               	movwf	tosl,c
  3877   000E7A  504C               	movf	(_UART1_FramingErrorHandler+1)^(0+1280),w,c
  3878   000E7C  6EFE               	movwf	tosh,c
  3879   000E7E  504D               	movf	(_UART1_FramingErrorHandler+2)^(0+1280),w,c
  3880   000E80  6EFF               	movwf	tosu,c
  3881   000E82  50FA               	movf	pclath,w,c
  3882   000E84  0012               	return		;indir
  3883   000E86                     u69:
  3884   000E86                     l1795:
  3885                           
  3886                           ;mcc_generated_files/uart1.c: 158:     if(U1ERRIRbits.RXFOIF){
  3887   000E86  0102               	movlb	2	; () banked
  3888   000E88  A3B2               	btfss	178,1,b	;volatile
  3889   000E8A  EF49  F007         	goto	u71
  3890   000E8E  EF4B  F007         	goto	u70
  3891   000E92                     u71:
  3892   000E92  EF59  F007         	goto	l1801
  3893   000E96                     u70:
  3894   000E96                     
  3895                           ; BSR set to: 2
  3896                           ;mcc_generated_files/uart1.c: 159:         uart1RxLastError.oerr = 1;
  3897   000E96  844F               	bsf	_uart1RxLastError^(0+1280),2,c	;volatile
  3898   000E98                     
  3899                           ; BSR set to: 2
  3900                           ;mcc_generated_files/uart1.c: 160:         UART1_OverrunErrorHandler();
  3901   000E98  D802               	call	u88
  3902   000E9A  EF59  F007         	goto	u89
  3903   000E9E                     u88:
  3904   000E9E  0005               	push	
  3905   000EA0  6EFA               	movwf	pclath,c
  3906   000EA2  5048               	movf	_UART1_OverrunErrorHandler^(0+1280),w,c
  3907   000EA4  6EFD               	movwf	tosl,c
  3908   000EA6  5049               	movf	(_UART1_OverrunErrorHandler+1)^(0+1280),w,c
  3909   000EA8  6EFE               	movwf	tosh,c
  3910   000EAA  504A               	movf	(_UART1_OverrunErrorHandler+2)^(0+1280),w,c
  3911   000EAC  6EFF               	movwf	tosu,c
  3912   000EAE  50FA               	movf	pclath,w,c
  3913   000EB0  0012               	return		;indir
  3914   000EB2                     u89:
  3915   000EB2                     l1801:
  3916                           
  3917                           ;mcc_generated_files/uart1.c: 163:     if(uart1RxLastError.status){
  3918   000EB2  504F               	movf	_uart1RxLastError^(0+1280),w,c	;volatile
  3919   000EB4  B4D8               	btfsc	status,2,c
  3920   000EB6  EF5F  F007         	goto	u91
  3921   000EBA  EF61  F007         	goto	u90
  3922   000EBE                     u91:
  3923   000EBE  EF6E  F007         	goto	l1805
  3924   000EC2                     u90:
  3925   000EC2                     
  3926                           ;mcc_generated_files/uart1.c: 164:         UART1_ErrorHandler();
  3927   000EC2  D802               	call	u108
  3928   000EC4  EF6E  F007         	goto	u109
  3929   000EC8                     u108:
  3930   000EC8  0005               	push	
  3931   000ECA  6EFA               	movwf	pclath,c
  3932   000ECC  5045               	movf	_UART1_ErrorHandler^(0+1280),w,c
  3933   000ECE  6EFD               	movwf	tosl,c
  3934   000ED0  5046               	movf	(_UART1_ErrorHandler+1)^(0+1280),w,c
  3935   000ED2  6EFE               	movwf	tosh,c
  3936   000ED4  5047               	movf	(_UART1_ErrorHandler+2)^(0+1280),w,c
  3937   000ED6  6EFF               	movwf	tosu,c
  3938   000ED8  50FA               	movf	pclath,w,c
  3939   000EDA  0012               	return		;indir
  3940   000EDC                     u109:
  3941   000EDC                     l1805:
  3942                           
  3943                           ;mcc_generated_files/uart1.c: 167:     return U1RXB;
  3944   000EDC  0102               	movlb	2	; () banked
  3945   000EDE  51A1               	movf	161,w,b	;volatile
  3946   000EE0                     
  3947                           ; BSR set to: 2
  3948   000EE0  0012               	return		;funcret
  3949   000EE2                     __end_of_UART1_Read:
  3950                           	callstack 0
  3951                           
  3952 ;; *************** function _UART1_DefaultOverrunErrorHandler *****************
  3953 ;; Defined at:
  3954 ;;		line 185 in file "mcc_generated_files/uart1.c"
  3955 ;; Parameters:    Size  Location     Type
  3956 ;;		None
  3957 ;; Auto vars:     Size  Location     Type
  3958 ;;		None
  3959 ;; Return value:  Size  Location     Type
  3960 ;;                  1    wreg      void 
  3961 ;; Registers used:
  3962 ;;		None
  3963 ;; Tracked objects:
  3964 ;;		On entry : 0/0
  3965 ;;		On exit  : 0/0
  3966 ;;		Unchanged: 0/0
  3967 ;; Data sizes:     COMRAM   BANK5   BANK6   BANK7   BANK8   BANK9  BANK10  BANK11  BANK12  BANK13  BANK14  BANK15  BANK1
      +6  BANK17  BANK18  BANK19  BANK20  BANK21  BANK22  BANK23  BANK24  BANK25  BANK26  BANK27  BANK28  BANK29  BANK30  BANK3
      +1  BANK32  BANK33  BANK34  BANK35  BANK36
  3968 ;;      Params:         0       0       0       0       0       0       0       0       0       0       0       0       
      +0       0       0       0       0       0       0       0       0       0       0       0       0       0       0       
      +0       0       0       0       0       0
  3969 ;;      Locals:         0       0       0       0       0       0       0       0       0       0       0       0       
      +0       0       0       0       0       0       0       0       0       0       0       0       0       0       0       
      +0       0       0       0       0       0
  3970 ;;      Temps:          0       0       0       0       0       0       0       0       0       0       0       0       
      +0       0       0       0       0       0       0       0       0       0       0       0       0       0       0       
      +0       0       0       0       0       0
  3971 ;;      Totals:         0       0       0       0       0       0       0       0       0       0       0       0       
      +0       0       0       0       0       0       0       0       0       0       0       0       0       0       0       
      +0       0       0       0       0       0
  3972 ;;Total ram usage:        0 bytes
  3973 ;; Hardware stack levels used: 1
  3974 ;; Hardware stack levels required when called: 4
  3975 ;; This function calls:
  3976 ;;		Nothing
  3977 ;; This function is called by:
  3978 ;;		_UART1_Initialize
  3979 ;;		_UART1_Read
  3980 ;; This function uses a non-reentrant model
  3981 ;;
  3982                           
  3983                           	psect	text31
  3984   001404                     __ptext31:
  3985                           	callstack 0
  3986   001404                     _UART1_DefaultOverrunErrorHandler:
  3987                           	callstack 120
  3988   001404  0012               	return		;funcret
  3989   001406                     __end_of_UART1_DefaultOverrunErrorHandler:
  3990                           	callstack 0
  3991                           
  3992 ;; *************** function _UART1_DefaultFramingErrorHandler *****************
  3993 ;; Defined at:
  3994 ;;		line 183 in file "mcc_generated_files/uart1.c"
  3995 ;; Parameters:    Size  Location     Type
  3996 ;;		None
  3997 ;; Auto vars:     Size  Location     Type
  3998 ;;		None
  3999 ;; Return value:  Size  Location     Type
  4000 ;;                  1    wreg      void 
  4001 ;; Registers used:
  4002 ;;		None
  4003 ;; Tracked objects:
  4004 ;;		On entry : 0/0
  4005 ;;		On exit  : 0/0
  4006 ;;		Unchanged: 0/0
  4007 ;; Data sizes:     COMRAM   BANK5   BANK6   BANK7   BANK8   BANK9  BANK10  BANK11  BANK12  BANK13  BANK14  BANK15  BANK1
      +6  BANK17  BANK18  BANK19  BANK20  BANK21  BANK22  BANK23  BANK24  BANK25  BANK26  BANK27  BANK28  BANK29  BANK30  BANK3
      +1  BANK32  BANK33  BANK34  BANK35  BANK36
  4008 ;;      Params:         0       0       0       0       0       0       0       0       0       0       0       0       
      +0       0       0       0       0       0       0       0       0       0       0       0       0       0       0       
      +0       0       0       0       0       0
  4009 ;;      Locals:         0       0       0       0       0       0       0       0       0       0       0       0       
      +0       0       0       0       0       0       0       0       0       0       0       0       0       0       0       
      +0       0       0       0       0       0
  4010 ;;      Temps:          0       0       0       0       0       0       0       0       0       0       0       0       
      +0       0       0       0       0       0       0       0       0       0       0       0       0       0       0       
      +0       0       0       0       0       0
  4011 ;;      Totals:         0       0       0       0       0       0       0       0       0       0       0       0       
      +0       0       0       0       0       0       0       0       0       0       0       0       0       0       0       
      +0       0       0       0       0       0
  4012 ;;Total ram usage:        0 bytes
  4013 ;; Hardware stack levels used: 1
  4014 ;; Hardware stack levels required when called: 4
  4015 ;; This function calls:
  4016 ;;		Nothing
  4017 ;; This function is called by:
  4018 ;;		_UART1_Initialize
  4019 ;;		_UART1_Read
  4020 ;; This function uses a non-reentrant model
  4021 ;;
  4022                           
  4023                           	psect	text32
  4024   001406                     __ptext32:
  4025                           	callstack 0
  4026   001406                     _UART1_DefaultFramingErrorHandler:
  4027                           	callstack 120
  4028   001406  0012               	return		;funcret
  4029   001408                     __end_of_UART1_DefaultFramingErrorHandler:
  4030                           	callstack 0
  4031                           
  4032 ;; *************** function _UART1_DefaultErrorHandler *****************
  4033 ;; Defined at:
  4034 ;;		line 187 in file "mcc_generated_files/uart1.c"
  4035 ;; Parameters:    Size  Location     Type
  4036 ;;		None
  4037 ;; Auto vars:     Size  Location     Type
  4038 ;;		None
  4039 ;; Return value:  Size  Location     Type
  4040 ;;                  1    wreg      void 
  4041 ;; Registers used:
  4042 ;;		None
  4043 ;; Tracked objects:
  4044 ;;		On entry : 0/0
  4045 ;;		On exit  : 0/0
  4046 ;;		Unchanged: 0/0
  4047 ;; Data sizes:     COMRAM   BANK5   BANK6   BANK7   BANK8   BANK9  BANK10  BANK11  BANK12  BANK13  BANK14  BANK15  BANK1
      +6  BANK17  BANK18  BANK19  BANK20  BANK21  BANK22  BANK23  BANK24  BANK25  BANK26  BANK27  BANK28  BANK29  BANK30  BANK3
      +1  BANK32  BANK33  BANK34  BANK35  BANK36
  4048 ;;      Params:         0       0       0       0       0       0       0       0       0       0       0       0       
      +0       0       0       0       0       0       0       0       0       0       0       0       0       0       0       
      +0       0       0       0       0       0
  4049 ;;      Locals:         0       0       0       0       0       0       0       0       0       0       0       0       
      +0       0       0       0       0       0       0       0       0       0       0       0       0       0       0       
      +0       0       0       0       0       0
  4050 ;;      Temps:          0       0       0       0       0       0       0       0       0       0       0       0       
      +0       0       0       0       0       0       0       0       0       0       0       0       0       0       0       
      +0       0       0       0       0       0
  4051 ;;      Totals:         0       0       0       0       0       0       0       0       0       0       0       0       
      +0       0       0       0       0       0       0       0       0       0       0       0       0       0       0       
      +0       0       0       0       0       0
  4052 ;;Total ram usage:        0 bytes
  4053 ;; Hardware stack levels used: 1
  4054 ;; Hardware stack levels required when called: 4
  4055 ;; This function calls:
  4056 ;;		Nothing
  4057 ;; This function is called by:
  4058 ;;		_UART1_Initialize
  4059 ;;		_UART1_Read
  4060 ;; This function uses a non-reentrant model
  4061 ;;
  4062                           
  4063                           	psect	text33
  4064   001408                     __ptext33:
  4065                           	callstack 0
  4066   001408                     _UART1_DefaultErrorHandler:
  4067                           	callstack 120
  4068   001408  0012               	return		;funcret
  4069   00140A                     __end_of_UART1_DefaultErrorHandler:
  4070                           	callstack 0
  4071                           
  4072 ;; *************** function _FPGA_SetBuff *****************
  4073 ;; Defined at:
  4074 ;;		line 161 in file "main.c"
  4075 ;; Parameters:    Size  Location     Type
  4076 ;;  Cmd             2    4[COMRAM] int 
  4077 ;;  data            2    6[COMRAM] PTR unsigned char 
  4078 ;;		 -> main@Buff(16), 
  4079 ;;  DataLen         2    8[COMRAM] int 
  4080 ;; Auto vars:     Size  Location     Type
  4081 ;;  i               2   11[COMRAM] int 
  4082 ;; Return value:  Size  Location     Type
  4083 ;;                  1    wreg      void 
  4084 ;; Registers used:
  4085 ;;		wreg, fsr2l, fsr2h, status,2, status,0, cstack
  4086 ;; Tracked objects:
  4087 ;;		On entry : 0/0
  4088 ;;		On exit  : 0/0
  4089 ;;		Unchanged: 0/0
  4090 ;; Data sizes:     COMRAM   BANK5   BANK6   BANK7   BANK8   BANK9  BANK10  BANK11  BANK12  BANK13  BANK14  BANK15  BANK1
      +6  BANK17  BANK18  BANK19  BANK20  BANK21  BANK22  BANK23  BANK24  BANK25  BANK26  BANK27  BANK28  BANK29  BANK30  BANK3
      +1  BANK32  BANK33  BANK34  BANK35  BANK36
  4091 ;;      Params:         6       0       0       0       0       0       0       0       0       0       0       0       
      +0       0       0       0       0       0       0       0       0       0       0       0       0       0       0       
      +0       0       0       0       0       0
  4092 ;;      Locals:         2       0       0       0       0       0       0       0       0       0       0       0       
      +0       0       0       0       0       0       0       0       0       0       0       0       0       0       0       
      +0       0       0       0       0       0
  4093 ;;      Temps:          1       0       0       0       0       0       0       0       0       0       0       0       
      +0       0       0       0       0       0       0       0       0       0       0       0       0       0       0       
      +0       0       0       0       0       0
  4094 ;;      Totals:         9       0       0       0       0       0       0       0       0       0       0       0       
      +0       0       0       0       0       0       0       0       0       0       0       0       0       0       0       
      +0       0       0       0       0       0
  4095 ;;Total ram usage:        9 bytes
  4096 ;; Hardware stack levels used: 1
  4097 ;; Hardware stack levels required when called: 5
  4098 ;; This function calls:
  4099 ;;		_FPGA_CLK
  4100 ;;		_FPGA_CS
  4101 ;;		_FPGA_SetCmd
  4102 ;;		_FPGA_SetData
  4103 ;;		_FPGA_SetRW
  4104 ;; This function is called by:
  4105 ;;		_main
  4106 ;; This function uses a non-reentrant model
  4107 ;;
  4108                           
  4109                           	psect	text34
  4110   000D0C                     __ptext34:
  4111                           	callstack 0
  4112   000D0C                     _FPGA_SetBuff:
  4113                           	callstack 121
  4114   000D0C                     
  4115                           ;main.c: 161: void FPGA_SetBuff(int Cmd ,unsigned char data[] ,int DataLen);main.c: 162:
      +                           {;main.c: 163:     int i;;main.c: 165:     FPGA_SetCmd(Cmd);
  4116   000D0C  C505  F503         	movff	FPGA_SetBuff@Cmd,FPGA_SetCmd@Cmd
  4117   000D10  C506  F504         	movff	FPGA_SetBuff@Cmd+1,FPGA_SetCmd@Cmd+1
  4118   000D14  EC4C  F008         	call	_FPGA_SetCmd	;wreg free
  4119   000D18                     
  4120                           ;main.c: 166:     FPGA_SetRW(0);
  4121   000D18  0E00               	movlw	0
  4122   000D1A  6E04               	movwf	(FPGA_SetRW@d+1)^(0+1280),c
  4123   000D1C  0E00               	movlw	0
  4124   000D1E  6E03               	movwf	FPGA_SetRW@d^(0+1280),c
  4125   000D20  EC4C  F009         	call	_FPGA_SetRW	;wreg free
  4126   000D24                     
  4127                           ;main.c: 167:     FPGA_CS(1);
  4128   000D24  0E00               	movlw	0
  4129   000D26  6E04               	movwf	(FPGA_CS@d+1)^(0+1280),c
  4130   000D28  0E01               	movlw	1
  4131   000D2A  6E03               	movwf	FPGA_CS@d^(0+1280),c
  4132   000D2C  EC58  F009         	call	_FPGA_CS	;wreg free
  4133   000D30                     
  4134                           ;main.c: 168:     for(i=0;i<DataLen;i++){
  4135   000D30  0E00               	movlw	0
  4136   000D32  6E0D               	movwf	(FPGA_SetBuff@i+1)^(0+1280),c
  4137   000D34  0E00               	movlw	0
  4138   000D36  6E0C               	movwf	FPGA_SetBuff@i^(0+1280),c
  4139   000D38  EFB5  F006         	goto	l3021
  4140   000D3C                     l3013:
  4141                           
  4142                           ;main.c: 169:         FPGA_SetData(data[i]);
  4143   000D3C  500C               	movf	FPGA_SetBuff@i^(0+1280),w,c
  4144   000D3E  2407               	addwf	FPGA_SetBuff@data^(0+1280),w,c
  4145   000D40  6ED9               	movwf	fsr2l,c
  4146   000D42  500D               	movf	(FPGA_SetBuff@i+1)^(0+1280),w,c
  4147   000D44  2008               	addwfc	(FPGA_SetBuff@data+1)^(0+1280),w,c
  4148   000D46  6EDA               	movwf	fsr2h,c
  4149   000D48  50DF               	movf	indf2,w,c
  4150   000D4A  EC2C  F006         	call	_FPGA_SetData
  4151   000D4E                     
  4152                           ;main.c: 170:         FPGA_CLK(1);
  4153   000D4E  0E00               	movlw	0
  4154   000D50  6E04               	movwf	(FPGA_CLK@d+1)^(0+1280),c
  4155   000D52  0E01               	movlw	1
  4156   000D54  6E03               	movwf	FPGA_CLK@d^(0+1280),c
  4157   000D56  EC64  F009         	call	_FPGA_CLK	;wreg free
  4158   000D5A                     
  4159                           ;main.c: 171:         FPGA_CLK(0);
  4160   000D5A  0E00               	movlw	0
  4161   000D5C  6E04               	movwf	(FPGA_CLK@d+1)^(0+1280),c
  4162   000D5E  0E00               	movlw	0
  4163   000D60  6E03               	movwf	FPGA_CLK@d^(0+1280),c
  4164   000D62  EC64  F009         	call	_FPGA_CLK	;wreg free
  4165   000D66                     
  4166                           ;main.c: 172:     }
  4167   000D66  4A0C               	infsnz	FPGA_SetBuff@i^(0+1280),f,c
  4168   000D68  2A0D               	incf	(FPGA_SetBuff@i+1)^(0+1280),f,c
  4169   000D6A                     l3021:
  4170   000D6A  5009               	movf	FPGA_SetBuff@DataLen^(0+1280),w,c
  4171   000D6C  5C0C               	subwf	FPGA_SetBuff@i^(0+1280),w,c
  4172   000D6E  500D               	movf	(FPGA_SetBuff@i+1)^(0+1280),w,c
  4173   000D70  0A80               	xorlw	128
  4174   000D72  6E0B               	movwf	??_FPGA_SetBuff^(0+1280),c
  4175   000D74  500A               	movf	(FPGA_SetBuff@DataLen+1)^(0+1280),w,c
  4176   000D76  0A80               	xorlw	128
  4177   000D78  580B               	subwfb	??_FPGA_SetBuff^(0+1280),w,c
  4178   000D7A  A0D8               	btfss	status,0,c
  4179   000D7C  EFC2  F006         	goto	u1531
  4180   000D80  EFC4  F006         	goto	u1530
  4181   000D84                     u1531:
  4182   000D84  EF9E  F006         	goto	l3013
  4183   000D88                     u1530:
  4184   000D88                     
  4185                           ;main.c: 173:     FPGA_CS(0);
  4186   000D88  0E00               	movlw	0
  4187   000D8A  6E04               	movwf	(FPGA_CS@d+1)^(0+1280),c
  4188   000D8C  0E00               	movlw	0
  4189   000D8E  6E03               	movwf	FPGA_CS@d^(0+1280),c
  4190   000D90  EC58  F009         	call	_FPGA_CS	;wreg free
  4191                           
  4192                           ;main.c: 174:     FPGA_CLK(1);
  4193   000D94  0E00               	movlw	0
  4194   000D96  6E04               	movwf	(FPGA_CLK@d+1)^(0+1280),c
  4195   000D98  0E01               	movlw	1
  4196   000D9A  6E03               	movwf	FPGA_CLK@d^(0+1280),c
  4197   000D9C  EC64  F009         	call	_FPGA_CLK	;wreg free
  4198                           
  4199                           ;main.c: 175:     FPGA_CLK(0);
  4200   000DA0  0E00               	movlw	0
  4201   000DA2  6E04               	movwf	(FPGA_CLK@d+1)^(0+1280),c
  4202   000DA4  0E00               	movlw	0
  4203   000DA6  6E03               	movwf	FPGA_CLK@d^(0+1280),c
  4204   000DA8  EC64  F009         	call	_FPGA_CLK	;wreg free
  4205   000DAC  0012               	return		;funcret
  4206   000DAE                     __end_of_FPGA_SetBuff:
  4207                           	callstack 0
  4208                           
  4209 ;; *************** function _FPGA_SetData *****************
  4210 ;; Defined at:
  4211 ;;		line 92 in file "main.c"
  4212 ;; Parameters:    Size  Location     Type
  4213 ;;  d               1    wreg     unsigned char 
  4214 ;; Auto vars:     Size  Location     Type
  4215 ;;  d               1    2[COMRAM] unsigned char 
  4216 ;; Return value:  Size  Location     Type
  4217 ;;                  1    wreg      void 
  4218 ;; Registers used:
  4219 ;;		wreg
  4220 ;; Tracked objects:
  4221 ;;		On entry : 0/0
  4222 ;;		On exit  : 0/0
  4223 ;;		Unchanged: 0/0
  4224 ;; Data sizes:     COMRAM   BANK5   BANK6   BANK7   BANK8   BANK9  BANK10  BANK11  BANK12  BANK13  BANK14  BANK15  BANK1
      +6  BANK17  BANK18  BANK19  BANK20  BANK21  BANK22  BANK23  BANK24  BANK25  BANK26  BANK27  BANK28  BANK29  BANK30  BANK3
      +1  BANK32  BANK33  BANK34  BANK35  BANK36
  4225 ;;      Params:         0       0       0       0       0       0       0       0       0       0       0       0       
      +0       0       0       0       0       0       0       0       0       0       0       0       0       0       0       
      +0       0       0       0       0       0
  4226 ;;      Locals:         1       0       0       0       0       0       0       0       0       0       0       0       
      +0       0       0       0       0       0       0       0       0       0       0       0       0       0       0       
      +0       0       0       0       0       0
  4227 ;;      Temps:          0       0       0       0       0       0       0       0       0       0       0       0       
      +0       0       0       0       0       0       0       0       0       0       0       0       0       0       0       
      +0       0       0       0       0       0
  4228 ;;      Totals:         1       0       0       0       0       0       0       0       0       0       0       0       
      +0       0       0       0       0       0       0       0       0       0       0       0       0       0       0       
      +0       0       0       0       0       0
  4229 ;;Total ram usage:        1 bytes
  4230 ;; Hardware stack levels used: 1
  4231 ;; Hardware stack levels required when called: 4
  4232 ;; This function calls:
  4233 ;;		Nothing
  4234 ;; This function is called by:
  4235 ;;		_FPGA_SetBuff
  4236 ;; This function uses a non-reentrant model
  4237 ;;
  4238                           
  4239                           	psect	text35
  4240   000C58                     __ptext35:
  4241                           	callstack 0
  4242   000C58                     _FPGA_SetData:
  4243                           	callstack 121
  4244                           
  4245                           ;incstack = 0
  4246                           ;FPGA_SetData@d stored from wreg
  4247   000C58  6E03               	movwf	FPGA_SetData@d^(0+1280),c
  4248   000C5A                     
  4249                           ;main.c: 92: void FPGA_SetData(unsigned char d);main.c: 93: {;main.c: 94:     if((d&0x01
      +                          )!=0)
  4250   000C5A  A003               	btfss	FPGA_SetData@d^(0+1280),0,c
  4251   000C5C  EF32  F006         	goto	u371
  4252   000C60  EF34  F006         	goto	u370
  4253   000C64                     u371:
  4254   000C64  EF37  F006         	goto	l844
  4255   000C68                     u370:
  4256   000C68  80C0               	bsf	192,0,c	;volatile
  4257   000C6A  EF38  F006         	goto	l1947
  4258   000C6E                     l844:
  4259   000C6E  90C0               	bcf	192,0,c	;volatile
  4260   000C70                     l1947:
  4261                           
  4262                           ;main.c: 98:     if((d&0x02)!=0)
  4263   000C70  A203               	btfss	FPGA_SetData@d^(0+1280),1,c
  4264   000C72  EF3D  F006         	goto	u381
  4265   000C76  EF3F  F006         	goto	u380
  4266   000C7A                     u381:
  4267   000C7A  EF42  F006         	goto	l850
  4268   000C7E                     u380:
  4269   000C7E  82C0               	bsf	192,1,c	;volatile
  4270   000C80  EF43  F006         	goto	l1949
  4271   000C84                     l850:
  4272   000C84  92C0               	bcf	192,1,c	;volatile
  4273   000C86                     l1949:
  4274                           
  4275                           ;main.c: 102:     if((d&0x04)!=0)
  4276   000C86  A403               	btfss	FPGA_SetData@d^(0+1280),2,c
  4277   000C88  EF48  F006         	goto	u391
  4278   000C8C  EF4A  F006         	goto	u390
  4279   000C90                     u391:
  4280   000C90  EF4D  F006         	goto	l856
  4281   000C94                     u390:
  4282   000C94  84C0               	bsf	192,2,c	;volatile
  4283   000C96  EF4E  F006         	goto	l1951
  4284   000C9A                     l856:
  4285   000C9A  94C0               	bcf	192,2,c	;volatile
  4286   000C9C                     l1951:
  4287                           
  4288                           ;main.c: 106:     if((d&0x08)!=0)
  4289   000C9C  A603               	btfss	FPGA_SetData@d^(0+1280),3,c
  4290   000C9E  EF53  F006         	goto	u401
  4291   000CA2  EF55  F006         	goto	u400
  4292   000CA6                     u401:
  4293   000CA6  EF58  F006         	goto	l862
  4294   000CAA                     u400:
  4295   000CAA  86C0               	bsf	192,3,c	;volatile
  4296   000CAC  EF59  F006         	goto	l1953
  4297   000CB0                     l862:
  4298   000CB0  96C0               	bcf	192,3,c	;volatile
  4299   000CB2                     l1953:
  4300                           
  4301                           ;main.c: 110:     if((d&0x10)!=0)
  4302   000CB2  A803               	btfss	FPGA_SetData@d^(0+1280),4,c
  4303   000CB4  EF5E  F006         	goto	u411
  4304   000CB8  EF60  F006         	goto	u410
  4305   000CBC                     u411:
  4306   000CBC  EF63  F006         	goto	l868
  4307   000CC0                     u410:
  4308   000CC0  88C0               	bsf	192,4,c	;volatile
  4309   000CC2  EF64  F006         	goto	l1955
  4310   000CC6                     l868:
  4311   000CC6  98C0               	bcf	192,4,c	;volatile
  4312   000CC8                     l1955:
  4313                           
  4314                           ;main.c: 114:     if((d&0x20)!=0)
  4315   000CC8  AA03               	btfss	FPGA_SetData@d^(0+1280),5,c
  4316   000CCA  EF69  F006         	goto	u421
  4317   000CCE  EF6B  F006         	goto	u420
  4318   000CD2                     u421:
  4319   000CD2  EF6E  F006         	goto	l874
  4320   000CD6                     u420:
  4321   000CD6  8AC0               	bsf	192,5,c	;volatile
  4322   000CD8  EF6F  F006         	goto	l1957
  4323   000CDC                     l874:
  4324   000CDC  9AC0               	bcf	192,5,c	;volatile
  4325   000CDE                     l1957:
  4326                           
  4327                           ;main.c: 118:     if((d&0x40)!=0)
  4328   000CDE  AC03               	btfss	FPGA_SetData@d^(0+1280),6,c
  4329   000CE0  EF74  F006         	goto	u431
  4330   000CE4  EF76  F006         	goto	u430
  4331   000CE8                     u431:
  4332   000CE8  EF79  F006         	goto	l880
  4333   000CEC                     u430:
  4334   000CEC  8ABE               	bsf	190,5,c	;volatile
  4335   000CEE  EF7A  F006         	goto	l1959
  4336   000CF2                     l880:
  4337   000CF2  9ABE               	bcf	190,5,c	;volatile
  4338   000CF4                     l1959:
  4339                           
  4340                           ;main.c: 122:     if((d&0x80)!=0)
  4341   000CF4  AE03               	btfss	FPGA_SetData@d^(0+1280),7,c
  4342   000CF6  EF7F  F006         	goto	u441
  4343   000CFA  EF81  F006         	goto	u440
  4344   000CFE                     u441:
  4345   000CFE  EF84  F006         	goto	l886
  4346   000D02                     u440:
  4347   000D02  8CBE               	bsf	190,6,c	;volatile
  4348   000D04  EF85  F006         	goto	l888
  4349   000D08                     l886:
  4350   000D08  9CBE               	bcf	190,6,c	;volatile
  4351   000D0A                     l888:
  4352   000D0A  0012               	return		;funcret
  4353   000D0C                     __end_of_FPGA_SetData:
  4354                           	callstack 0
  4355                           
  4356 ;; *************** function _FPGA_GetBuff *****************
  4357 ;; Defined at:
  4358 ;;		line 143 in file "main.c"
  4359 ;; Parameters:    Size  Location     Type
  4360 ;;  Cmd             2   17[COMRAM] int 
  4361 ;;  data            2   19[COMRAM] PTR unsigned char 
  4362 ;;		 -> main@Buff(16), 
  4363 ;;  DataLen         2   21[COMRAM] int 
  4364 ;; Auto vars:     Size  Location     Type
  4365 ;;  i               2   24[COMRAM] int 
  4366 ;; Return value:  Size  Location     Type
  4367 ;;                  1    wreg      void 
  4368 ;; Registers used:
  4369 ;;		wreg, fsr2l, fsr2h, status,2, status,0, cstack
  4370 ;; Tracked objects:
  4371 ;;		On entry : 0/0
  4372 ;;		On exit  : 0/0
  4373 ;;		Unchanged: 0/0
  4374 ;; Data sizes:     COMRAM   BANK5   BANK6   BANK7   BANK8   BANK9  BANK10  BANK11  BANK12  BANK13  BANK14  BANK15  BANK1
      +6  BANK17  BANK18  BANK19  BANK20  BANK21  BANK22  BANK23  BANK24  BANK25  BANK26  BANK27  BANK28  BANK29  BANK30  BANK3
      +1  BANK32  BANK33  BANK34  BANK35  BANK36
  4375 ;;      Params:         6       0       0       0       0       0       0       0       0       0       0       0       
      +0       0       0       0       0       0       0       0       0       0       0       0       0       0       0       
      +0       0       0       0       0       0
  4376 ;;      Locals:         2       0       0       0       0       0       0       0       0       0       0       0       
      +0       0       0       0       0       0       0       0       0       0       0       0       0       0       0       
      +0       0       0       0       0       0
  4377 ;;      Temps:          1       0       0       0       0       0       0       0       0       0       0       0       
      +0       0       0       0       0       0       0       0       0       0       0       0       0       0       0       
      +0       0       0       0       0       0
  4378 ;;      Totals:         9       0       0       0       0       0       0       0       0       0       0       0       
      +0       0       0       0       0       0       0       0       0       0       0       0       0       0       0       
      +0       0       0       0       0       0
  4379 ;;Total ram usage:        9 bytes
  4380 ;; Hardware stack levels used: 1
  4381 ;; Hardware stack levels required when called: 5
  4382 ;; This function calls:
  4383 ;;		_FPGA_CLK
  4384 ;;		_FPGA_CS
  4385 ;;		_FPGA_GetData
  4386 ;;		_FPGA_SetCmd
  4387 ;;		_FPGA_SetRW
  4388 ;; This function is called by:
  4389 ;;		_main
  4390 ;; This function uses a non-reentrant model
  4391 ;;
  4392                           
  4393                           	psect	text36
  4394   000B9E                     __ptext36:
  4395                           	callstack 0
  4396   000B9E                     _FPGA_GetBuff:
  4397                           	callstack 121
  4398   000B9E                     
  4399                           ;main.c: 143: void FPGA_GetBuff(int Cmd ,unsigned char data[] ,int DataLen);main.c: 144:
      +                           {;main.c: 145:     int i;;main.c: 147:     FPGA_CLK(1);
  4400   000B9E  0E00               	movlw	0
  4401   000BA0  6E04               	movwf	(FPGA_CLK@d+1)^(0+1280),c
  4402   000BA2  0E01               	movlw	1
  4403   000BA4  6E03               	movwf	FPGA_CLK@d^(0+1280),c
  4404   000BA6  EC64  F009         	call	_FPGA_CLK	;wreg free
  4405                           
  4406                           ;main.c: 148:     FPGA_CLK(0);
  4407   000BAA  0E00               	movlw	0
  4408   000BAC  6E04               	movwf	(FPGA_CLK@d+1)^(0+1280),c
  4409   000BAE  0E00               	movlw	0
  4410   000BB0  6E03               	movwf	FPGA_CLK@d^(0+1280),c
  4411   000BB2  EC64  F009         	call	_FPGA_CLK	;wreg free
  4412   000BB6                     
  4413                           ;main.c: 149:     FPGA_SetCmd(Cmd);
  4414   000BB6  C512  F503         	movff	FPGA_GetBuff@Cmd,FPGA_SetCmd@Cmd
  4415   000BBA  C513  F504         	movff	FPGA_GetBuff@Cmd+1,FPGA_SetCmd@Cmd+1
  4416   000BBE  EC4C  F008         	call	_FPGA_SetCmd	;wreg free
  4417   000BC2                     
  4418                           ;main.c: 150:     FPGA_SetRW(1);
  4419   000BC2  0E00               	movlw	0
  4420   000BC4  6E04               	movwf	(FPGA_SetRW@d+1)^(0+1280),c
  4421   000BC6  0E01               	movlw	1
  4422   000BC8  6E03               	movwf	FPGA_SetRW@d^(0+1280),c
  4423   000BCA  EC4C  F009         	call	_FPGA_SetRW	;wreg free
  4424   000BCE                     
  4425                           ;main.c: 151:     FPGA_CS(1);
  4426   000BCE  0E00               	movlw	0
  4427   000BD0  6E04               	movwf	(FPGA_CS@d+1)^(0+1280),c
  4428   000BD2  0E01               	movlw	1
  4429   000BD4  6E03               	movwf	FPGA_CS@d^(0+1280),c
  4430   000BD6  EC58  F009         	call	_FPGA_CS	;wreg free
  4431                           
  4432                           ;main.c: 152:     for(i=0;i<DataLen;i++){
  4433   000BDA  0E00               	movlw	0
  4434   000BDC  6E1A               	movwf	(FPGA_GetBuff@i+1)^(0+1280),c
  4435   000BDE  0E00               	movlw	0
  4436   000BE0  6E19               	movwf	FPGA_GetBuff@i^(0+1280),c
  4437   000BE2  EF0A  F006         	goto	l3001
  4438   000BE6                     l2995:
  4439                           
  4440                           ;main.c: 153:         FPGA_CLK(1);
  4441   000BE6  0E00               	movlw	0
  4442   000BE8  6E04               	movwf	(FPGA_CLK@d+1)^(0+1280),c
  4443   000BEA  0E01               	movlw	1
  4444   000BEC  6E03               	movwf	FPGA_CLK@d^(0+1280),c
  4445   000BEE  EC64  F009         	call	_FPGA_CLK	;wreg free
  4446                           
  4447                           ;main.c: 154:         FPGA_CLK(0);
  4448   000BF2  0E00               	movlw	0
  4449   000BF4  6E04               	movwf	(FPGA_CLK@d+1)^(0+1280),c
  4450   000BF6  0E00               	movlw	0
  4451   000BF8  6E03               	movwf	FPGA_CLK@d^(0+1280),c
  4452   000BFA  EC64  F009         	call	_FPGA_CLK	;wreg free
  4453   000BFE                     
  4454                           ;main.c: 155:         data[i]=FPGA_GetData();
  4455   000BFE  5019               	movf	FPGA_GetBuff@i^(0+1280),w,c
  4456   000C00  2414               	addwf	FPGA_GetBuff@data^(0+1280),w,c
  4457   000C02  6ED9               	movwf	fsr2l,c
  4458   000C04  501A               	movf	(FPGA_GetBuff@i+1)^(0+1280),w,c
  4459   000C06  2015               	addwfc	(FPGA_GetBuff@data+1)^(0+1280),w,c
  4460   000C08  6EDA               	movwf	fsr2h,c
  4461   000C0A  ECE2  F004         	call	_FPGA_GetData	;wreg free
  4462   000C0E  6EDF               	movwf	indf2,c
  4463   000C10                     
  4464                           ;main.c: 156:     }
  4465   000C10  4A19               	infsnz	FPGA_GetBuff@i^(0+1280),f,c
  4466   000C12  2A1A               	incf	(FPGA_GetBuff@i+1)^(0+1280),f,c
  4467   000C14                     l3001:
  4468   000C14  5016               	movf	FPGA_GetBuff@DataLen^(0+1280),w,c
  4469   000C16  5C19               	subwf	FPGA_GetBuff@i^(0+1280),w,c
  4470   000C18  501A               	movf	(FPGA_GetBuff@i+1)^(0+1280),w,c
  4471   000C1A  0A80               	xorlw	128
  4472   000C1C  6E18               	movwf	??_FPGA_GetBuff^(0+1280),c
  4473   000C1E  5017               	movf	(FPGA_GetBuff@DataLen+1)^(0+1280),w,c
  4474   000C20  0A80               	xorlw	128
  4475   000C22  5818               	subwfb	??_FPGA_GetBuff^(0+1280),w,c
  4476   000C24  A0D8               	btfss	status,0,c
  4477   000C26  EF17  F006         	goto	u1521
  4478   000C2A  EF19  F006         	goto	u1520
  4479   000C2E                     u1521:
  4480   000C2E  EFF3  F005         	goto	l2995
  4481   000C32                     u1520:
  4482   000C32                     
  4483                           ;main.c: 157:     FPGA_CS(0);
  4484   000C32  0E00               	movlw	0
  4485   000C34  6E04               	movwf	(FPGA_CS@d+1)^(0+1280),c
  4486   000C36  0E00               	movlw	0
  4487   000C38  6E03               	movwf	FPGA_CS@d^(0+1280),c
  4488   000C3A  EC58  F009         	call	_FPGA_CS	;wreg free
  4489                           
  4490                           ;main.c: 158:     FPGA_CLK(1);
  4491   000C3E  0E00               	movlw	0
  4492   000C40  6E04               	movwf	(FPGA_CLK@d+1)^(0+1280),c
  4493   000C42  0E01               	movlw	1
  4494   000C44  6E03               	movwf	FPGA_CLK@d^(0+1280),c
  4495   000C46  EC64  F009         	call	_FPGA_CLK	;wreg free
  4496                           
  4497                           ;main.c: 159:     FPGA_CLK(0);
  4498   000C4A  0E00               	movlw	0
  4499   000C4C  6E04               	movwf	(FPGA_CLK@d+1)^(0+1280),c
  4500   000C4E  0E00               	movlw	0
  4501   000C50  6E03               	movwf	FPGA_CLK@d^(0+1280),c
  4502   000C52  EC64  F009         	call	_FPGA_CLK	;wreg free
  4503   000C56  0012               	return		;funcret
  4504   000C58                     __end_of_FPGA_GetBuff:
  4505                           	callstack 0
  4506                           
  4507 ;; *************** function _FPGA_SetRW *****************
  4508 ;; Defined at:
  4509 ;;		line 84 in file "main.c"
  4510 ;; Parameters:    Size  Location     Type
  4511 ;;  d               2    2[COMRAM] int 
  4512 ;; Auto vars:     Size  Location     Type
  4513 ;;		None
  4514 ;; Return value:  Size  Location     Type
  4515 ;;                  1    wreg      void 
  4516 ;; Registers used:
  4517 ;;		None
  4518 ;; Tracked objects:
  4519 ;;		On entry : 0/0
  4520 ;;		On exit  : 0/0
  4521 ;;		Unchanged: 0/0
  4522 ;; Data sizes:     COMRAM   BANK5   BANK6   BANK7   BANK8   BANK9  BANK10  BANK11  BANK12  BANK13  BANK14  BANK15  BANK1
      +6  BANK17  BANK18  BANK19  BANK20  BANK21  BANK22  BANK23  BANK24  BANK25  BANK26  BANK27  BANK28  BANK29  BANK30  BANK3
      +1  BANK32  BANK33  BANK34  BANK35  BANK36
  4523 ;;      Params:         2       0       0       0       0       0       0       0       0       0       0       0       
      +0       0       0       0       0       0       0       0       0       0       0       0       0       0       0       
      +0       0       0       0       0       0
  4524 ;;      Locals:         0       0       0       0       0       0       0       0       0       0       0       0       
      +0       0       0       0       0       0       0       0       0       0       0       0       0       0       0       
      +0       0       0       0       0       0
  4525 ;;      Temps:          0       0       0       0       0       0       0       0       0       0       0       0       
      +0       0       0       0       0       0       0       0       0       0       0       0       0       0       0       
      +0       0       0       0       0       0
  4526 ;;      Totals:         2       0       0       0       0       0       0       0       0       0       0       0       
      +0       0       0       0       0       0       0       0       0       0       0       0       0       0       0       
      +0       0       0       0       0       0
  4527 ;;Total ram usage:        2 bytes
  4528 ;; Hardware stack levels used: 1
  4529 ;; Hardware stack levels required when called: 4
  4530 ;; This function calls:
  4531 ;;		Nothing
  4532 ;; This function is called by:
  4533 ;;		_FPGA_GetBuff
  4534 ;;		_FPGA_SetBuff
  4535 ;;		_main
  4536 ;; This function uses a non-reentrant model
  4537 ;;
  4538                           
  4539                           	psect	text37
  4540   001298                     __ptext37:
  4541                           	callstack 0
  4542   001298                     _FPGA_SetRW:
  4543                           	callstack 122
  4544   001298                     
  4545                           ;main.c: 84: void FPGA_SetRW(int d);main.c: 85: {;main.c: 86:     if((d&0x01)!=0)
  4546   001298  A003               	btfss	FPGA_SetRW@d^(0+1280),0,c
  4547   00129A  EF51  F009         	goto	u1431
  4548   00129E  EF53  F009         	goto	u1430
  4549   0012A2                     u1431:
  4550   0012A2  EF56  F009         	goto	l835
  4551   0012A6                     u1430:
  4552   0012A6  82C3               	bsf	195,1,c	;volatile
  4553   0012A8  EF57  F009         	goto	l837
  4554   0012AC                     l835:
  4555   0012AC  92C3               	bcf	195,1,c	;volatile
  4556   0012AE                     l837:
  4557   0012AE  0012               	return		;funcret
  4558   0012B0                     __end_of_FPGA_SetRW:
  4559                           	callstack 0
  4560                           
  4561 ;; *************** function _FPGA_SetCmd *****************
  4562 ;; Defined at:
  4563 ;;		line 50 in file "main.c"
  4564 ;; Parameters:    Size  Location     Type
  4565 ;;  Cmd             2    2[COMRAM] int 
  4566 ;; Auto vars:     Size  Location     Type
  4567 ;;		None
  4568 ;; Return value:  Size  Location     Type
  4569 ;;                  1    wreg      void 
  4570 ;; Registers used:
  4571 ;;		None
  4572 ;; Tracked objects:
  4573 ;;		On entry : 0/0
  4574 ;;		On exit  : 0/0
  4575 ;;		Unchanged: 0/0
  4576 ;; Data sizes:     COMRAM   BANK5   BANK6   BANK7   BANK8   BANK9  BANK10  BANK11  BANK12  BANK13  BANK14  BANK15  BANK1
      +6  BANK17  BANK18  BANK19  BANK20  BANK21  BANK22  BANK23  BANK24  BANK25  BANK26  BANK27  BANK28  BANK29  BANK30  BANK3
      +1  BANK32  BANK33  BANK34  BANK35  BANK36
  4577 ;;      Params:         2       0       0       0       0       0       0       0       0       0       0       0       
      +0       0       0       0       0       0       0       0       0       0       0       0       0       0       0       
      +0       0       0       0       0       0
  4578 ;;      Locals:         0       0       0       0       0       0       0       0       0       0       0       0       
      +0       0       0       0       0       0       0       0       0       0       0       0       0       0       0       
      +0       0       0       0       0       0
  4579 ;;      Temps:          0       0       0       0       0       0       0       0       0       0       0       0       
      +0       0       0       0       0       0       0       0       0       0       0       0       0       0       0       
      +0       0       0       0       0       0
  4580 ;;      Totals:         2       0       0       0       0       0       0       0       0       0       0       0       
      +0       0       0       0       0       0       0       0       0       0       0       0       0       0       0       
      +0       0       0       0       0       0
  4581 ;;Total ram usage:        2 bytes
  4582 ;; Hardware stack levels used: 1
  4583 ;; Hardware stack levels required when called: 4
  4584 ;; This function calls:
  4585 ;;		Nothing
  4586 ;; This function is called by:
  4587 ;;		_FPGA_GetBuff
  4588 ;;		_FPGA_SetBuff
  4589 ;; This function uses a non-reentrant model
  4590 ;;
  4591                           
  4592                           	psect	text38
  4593   001098                     __ptext38:
  4594                           	callstack 0
  4595   001098                     _FPGA_SetCmd:
  4596                           	callstack 121
  4597   001098                     
  4598                           ;main.c: 50: void FPGA_SetCmd(int Cmd);main.c: 51: {;main.c: 52:     if((Cmd&0x01)!=0)
  4599   001098  A003               	btfss	FPGA_SetCmd@Cmd^(0+1280),0,c
  4600   00109A  EF51  F008         	goto	u1371
  4601   00109E  EF53  F008         	goto	u1370
  4602   0010A2                     u1371:
  4603   0010A2  EF56  F008         	goto	l790
  4604   0010A6                     u1370:
  4605   0010A6  84C3               	bsf	195,2,c	;volatile
  4606   0010A8  EF57  F008         	goto	l789
  4607   0010AC                     l790:
  4608   0010AC  94C3               	bcf	195,2,c	;volatile
  4609   0010AE                     l789:
  4610                           
  4611                           ;main.c: 56:     if((Cmd&0x02)!=0)
  4612   0010AE  A203               	btfss	FPGA_SetCmd@Cmd^(0+1280),1,c
  4613   0010B0  EF5C  F008         	goto	u1381
  4614   0010B4  EF5E  F008         	goto	u1380
  4615   0010B8                     u1381:
  4616   0010B8  EF61  F008         	goto	l796
  4617   0010BC                     u1380:
  4618   0010BC  86C3               	bsf	195,3,c	;volatile
  4619   0010BE  EF62  F008         	goto	l795
  4620   0010C2                     l796:
  4621   0010C2  96C3               	bcf	195,3,c	;volatile
  4622   0010C4                     l795:
  4623                           
  4624                           ;main.c: 60:     if((Cmd&0x04)!=0)
  4625   0010C4  A403               	btfss	FPGA_SetCmd@Cmd^(0+1280),2,c
  4626   0010C6  EF67  F008         	goto	u1391
  4627   0010CA  EF69  F008         	goto	u1390
  4628   0010CE                     u1391:
  4629   0010CE  EF6C  F008         	goto	l802
  4630   0010D2                     u1390:
  4631   0010D2  88C3               	bsf	195,4,c	;volatile
  4632   0010D4  EF6D  F008         	goto	l801
  4633   0010D8                     l802:
  4634   0010D8  98C3               	bcf	195,4,c	;volatile
  4635   0010DA                     l801:
  4636                           
  4637                           ;main.c: 64:     if((Cmd&0x08)!=0)
  4638   0010DA  A603               	btfss	FPGA_SetCmd@Cmd^(0+1280),3,c
  4639   0010DC  EF72  F008         	goto	u1401
  4640   0010E0  EF74  F008         	goto	u1400
  4641   0010E4                     u1401:
  4642   0010E4  EF77  F008         	goto	l808
  4643   0010E8                     u1400:
  4644   0010E8  8AC3               	bsf	195,5,c	;volatile
  4645   0010EA  EF78  F008         	goto	l810
  4646   0010EE                     l808:
  4647   0010EE  9AC3               	bcf	195,5,c	;volatile
  4648   0010F0                     l810:
  4649   0010F0  0012               	return		;funcret
  4650   0010F2                     __end_of_FPGA_SetCmd:
  4651                           	callstack 0
  4652                           
  4653 ;; *************** function _FPGA_GetData *****************
  4654 ;; Defined at:
  4655 ;;		line 127 in file "main.c"
  4656 ;; Parameters:    Size  Location     Type
  4657 ;;		None
  4658 ;; Auto vars:     Size  Location     Type
  4659 ;;  d               1   16[COMRAM] unsigned char 
  4660 ;; Return value:  Size  Location     Type
  4661 ;;                  1    wreg      unsigned char 
  4662 ;; Registers used:
  4663 ;;		wreg, status,2, status,0
  4664 ;; Tracked objects:
  4665 ;;		On entry : 0/0
  4666 ;;		On exit  : 0/0
  4667 ;;		Unchanged: 0/0
  4668 ;; Data sizes:     COMRAM   BANK5   BANK6   BANK7   BANK8   BANK9  BANK10  BANK11  BANK12  BANK13  BANK14  BANK15  BANK1
      +6  BANK17  BANK18  BANK19  BANK20  BANK21  BANK22  BANK23  BANK24  BANK25  BANK26  BANK27  BANK28  BANK29  BANK30  BANK3
      +1  BANK32  BANK33  BANK34  BANK35  BANK36
  4669 ;;      Params:         0       0       0       0       0       0       0       0       0       0       0       0       
      +0       0       0       0       0       0       0       0       0       0       0       0       0       0       0       
      +0       0       0       0       0       0
  4670 ;;      Locals:        15       0       0       0       0       0       0       0       0       0       0       0       
      +0       0       0       0       0       0       0       0       0       0       0       0       0       0       0       
      +0       0       0       0       0       0
  4671 ;;      Temps:          0       0       0       0       0       0       0       0       0       0       0       0       
      +0       0       0       0       0       0       0       0       0       0       0       0       0       0       0       
      +0       0       0       0       0       0
  4672 ;;      Totals:        15       0       0       0       0       0       0       0       0       0       0       0       
      +0       0       0       0       0       0       0       0       0       0       0       0       0       0       0       
      +0       0       0       0       0       0
  4673 ;;Total ram usage:       15 bytes
  4674 ;; Hardware stack levels used: 1
  4675 ;; Hardware stack levels required when called: 4
  4676 ;; This function calls:
  4677 ;;		Nothing
  4678 ;; This function is called by:
  4679 ;;		_FPGA_GetBuff
  4680 ;; This function uses a non-reentrant model
  4681 ;;
  4682                           
  4683                           	psect	text39
  4684   0009C4                     __ptext39:
  4685                           	callstack 0
  4686   0009C4                     _FPGA_GetData:
  4687                           	callstack 121
  4688   0009C4                     
  4689                           ;main.c: 131:     d=((PORTDbits.RD0!=0)?0x01:0)
  4690   0009C4  BED1               	btfsc	209,7,c	;volatile
  4691   0009C6  EFE7  F004         	goto	u1441
  4692   0009CA  EFE9  F004         	goto	u1440
  4693   0009CE                     u1441:
  4694   0009CE  EFEF  F004         	goto	l2925
  4695   0009D2                     u1440:
  4696   0009D2  0E00               	movlw	0
  4697   0009D4  6E04               	movwf	(_FPGA_GetData$1662+1)^(0+1280),c
  4698   0009D6  0E00               	movlw	0
  4699   0009D8  6E03               	movwf	_FPGA_GetData$1662^(0+1280),c
  4700   0009DA  EFF3  F004         	goto	l2927
  4701   0009DE                     l2925:
  4702   0009DE  0E00               	movlw	0
  4703   0009E0  6E04               	movwf	(_FPGA_GetData$1662+1)^(0+1280),c
  4704   0009E2  0E80               	movlw	128
  4705   0009E4  6E03               	movwf	_FPGA_GetData$1662^(0+1280),c
  4706   0009E6                     l2927:
  4707   0009E6  BCD1               	btfsc	209,6,c	;volatile
  4708   0009E8  EFF8  F004         	goto	u1451
  4709   0009EC  EFFA  F004         	goto	u1450
  4710   0009F0                     u1451:
  4711   0009F0  EF00  F005         	goto	l2931
  4712   0009F4                     u1450:
  4713   0009F4  0E00               	movlw	0
  4714   0009F6  6E06               	movwf	(_FPGA_GetData$1663+1)^(0+1280),c
  4715   0009F8  0E00               	movlw	0
  4716   0009FA  6E05               	movwf	_FPGA_GetData$1663^(0+1280),c
  4717   0009FC  EF04  F005         	goto	l2933
  4718   000A00                     l2931:
  4719   000A00  0E00               	movlw	0
  4720   000A02  6E06               	movwf	(_FPGA_GetData$1663+1)^(0+1280),c
  4721   000A04  0E40               	movlw	64
  4722   000A06  6E05               	movwf	_FPGA_GetData$1663^(0+1280),c
  4723   000A08                     l2933:
  4724   000A08  BAD1               	btfsc	209,5,c	;volatile
  4725   000A0A  EF09  F005         	goto	u1461
  4726   000A0E  EF0B  F005         	goto	u1460
  4727   000A12                     u1461:
  4728   000A12  EF11  F005         	goto	l2937
  4729   000A16                     u1460:
  4730   000A16  0E00               	movlw	0
  4731   000A18  6E08               	movwf	(_FPGA_GetData$1664+1)^(0+1280),c
  4732   000A1A  0E00               	movlw	0
  4733   000A1C  6E07               	movwf	_FPGA_GetData$1664^(0+1280),c
  4734   000A1E  EF15  F005         	goto	l2939
  4735   000A22                     l2937:
  4736   000A22  0E00               	movlw	0
  4737   000A24  6E08               	movwf	(_FPGA_GetData$1664+1)^(0+1280),c
  4738   000A26  0E20               	movlw	32
  4739   000A28  6E07               	movwf	_FPGA_GetData$1664^(0+1280),c
  4740   000A2A                     l2939:
  4741   000A2A  B8D1               	btfsc	209,4,c	;volatile
  4742   000A2C  EF1A  F005         	goto	u1471
  4743   000A30  EF1C  F005         	goto	u1470
  4744   000A34                     u1471:
  4745   000A34  EF22  F005         	goto	l2943
  4746   000A38                     u1470:
  4747   000A38  0E00               	movlw	0
  4748   000A3A  6E0A               	movwf	(_FPGA_GetData$1665+1)^(0+1280),c
  4749   000A3C  0E00               	movlw	0
  4750   000A3E  6E09               	movwf	_FPGA_GetData$1665^(0+1280),c
  4751   000A40  EF26  F005         	goto	l2945
  4752   000A44                     l2943:
  4753   000A44  0E00               	movlw	0
  4754   000A46  6E0A               	movwf	(_FPGA_GetData$1665+1)^(0+1280),c
  4755   000A48  0E10               	movlw	16
  4756   000A4A  6E09               	movwf	_FPGA_GetData$1665^(0+1280),c
  4757   000A4C                     l2945:
  4758   000A4C  B6D1               	btfsc	209,3,c	;volatile
  4759   000A4E  EF2B  F005         	goto	u1481
  4760   000A52  EF2D  F005         	goto	u1480
  4761   000A56                     u1481:
  4762   000A56  EF33  F005         	goto	l2949
  4763   000A5A                     u1480:
  4764   000A5A  0E00               	movlw	0
  4765   000A5C  6E0C               	movwf	(_FPGA_GetData$1666+1)^(0+1280),c
  4766   000A5E  0E00               	movlw	0
  4767   000A60  6E0B               	movwf	_FPGA_GetData$1666^(0+1280),c
  4768   000A62  EF37  F005         	goto	l2951
  4769   000A66                     l2949:
  4770   000A66  0E00               	movlw	0
  4771   000A68  6E0C               	movwf	(_FPGA_GetData$1666+1)^(0+1280),c
  4772   000A6A  0E08               	movlw	8
  4773   000A6C  6E0B               	movwf	_FPGA_GetData$1666^(0+1280),c
  4774   000A6E                     l2951:
  4775   000A6E  B4D1               	btfsc	209,2,c	;volatile
  4776   000A70  EF3C  F005         	goto	u1491
  4777   000A74  EF3E  F005         	goto	u1490
  4778   000A78                     u1491:
  4779   000A78  EF44  F005         	goto	l2955
  4780   000A7C                     u1490:
  4781   000A7C  0E00               	movlw	0
  4782   000A7E  6E0E               	movwf	(_FPGA_GetData$1667+1)^(0+1280),c
  4783   000A80  0E00               	movlw	0
  4784   000A82  6E0D               	movwf	_FPGA_GetData$1667^(0+1280),c
  4785   000A84  EF48  F005         	goto	l2957
  4786   000A88                     l2955:
  4787   000A88  0E00               	movlw	0
  4788   000A8A  6E0E               	movwf	(_FPGA_GetData$1667+1)^(0+1280),c
  4789   000A8C  0E04               	movlw	4
  4790   000A8E  6E0D               	movwf	_FPGA_GetData$1667^(0+1280),c
  4791   000A90                     l2957:
  4792   000A90  B2D1               	btfsc	209,1,c	;volatile
  4793   000A92  EF4D  F005         	goto	u1501
  4794   000A96  EF4F  F005         	goto	u1500
  4795   000A9A                     u1501:
  4796   000A9A  EF55  F005         	goto	l2961
  4797   000A9E                     u1500:
  4798   000A9E  0E00               	movlw	0
  4799   000AA0  6E10               	movwf	(_FPGA_GetData$1668+1)^(0+1280),c
  4800   000AA2  0E00               	movlw	0
  4801   000AA4  6E0F               	movwf	_FPGA_GetData$1668^(0+1280),c
  4802   000AA6  EF59  F005         	goto	l2963
  4803   000AAA                     l2961:
  4804   000AAA  0E00               	movlw	0
  4805   000AAC  6E10               	movwf	(_FPGA_GetData$1668+1)^(0+1280),c
  4806   000AAE  0E02               	movlw	2
  4807   000AB0  6E0F               	movwf	_FPGA_GetData$1668^(0+1280),c
  4808   000AB2                     l2963:
  4809   000AB2  B0D1               	btfsc	209,0,c	;volatile
  4810   000AB4  EF5E  F005         	goto	u1511
  4811   000AB8  EF61  F005         	goto	u1510
  4812   000ABC                     u1511:
  4813   000ABC  0E01               	movlw	1
  4814   000ABE  EF62  F005         	goto	u1516
  4815   000AC2                     u1510:
  4816   000AC2  0E00               	movlw	0
  4817   000AC4                     u1516:
  4818   000AC4  240F               	addwf	_FPGA_GetData$1668^(0+1280),w,c
  4819   000AC6  240D               	addwf	_FPGA_GetData$1667^(0+1280),w,c
  4820   000AC8  240B               	addwf	_FPGA_GetData$1666^(0+1280),w,c
  4821   000ACA  2409               	addwf	_FPGA_GetData$1665^(0+1280),w,c
  4822   000ACC  2407               	addwf	_FPGA_GetData$1664^(0+1280),w,c
  4823   000ACE  2405               	addwf	_FPGA_GetData$1663^(0+1280),w,c
  4824   000AD0  2403               	addwf	_FPGA_GetData$1662^(0+1280),w,c
  4825   000AD2  6E11               	movwf	FPGA_GetData@d^(0+1280),c
  4826   000AD4                     
  4827                           ;main.c: 140:     return d;
  4828   000AD4  5011               	movf	FPGA_GetData@d^(0+1280),w,c
  4829   000AD6  0012               	return		;funcret
  4830   000AD8                     __end_of_FPGA_GetData:
  4831                           	callstack 0
  4832                           
  4833 ;; *************** function _FPGA_CS *****************
  4834 ;; Defined at:
  4835 ;;		line 77 in file "main.c"
  4836 ;; Parameters:    Size  Location     Type
  4837 ;;  d               2    2[COMRAM] int 
  4838 ;; Auto vars:     Size  Location     Type
  4839 ;;		None
  4840 ;; Return value:  Size  Location     Type
  4841 ;;                  1    wreg      void 
  4842 ;; Registers used:
  4843 ;;		None
  4844 ;; Tracked objects:
  4845 ;;		On entry : 0/0
  4846 ;;		On exit  : 0/0
  4847 ;;		Unchanged: 0/0
  4848 ;; Data sizes:     COMRAM   BANK5   BANK6   BANK7   BANK8   BANK9  BANK10  BANK11  BANK12  BANK13  BANK14  BANK15  BANK1
      +6  BANK17  BANK18  BANK19  BANK20  BANK21  BANK22  BANK23  BANK24  BANK25  BANK26  BANK27  BANK28  BANK29  BANK30  BANK3
      +1  BANK32  BANK33  BANK34  BANK35  BANK36
  4849 ;;      Params:         2       0       0       0       0       0       0       0       0       0       0       0       
      +0       0       0       0       0       0       0       0       0       0       0       0       0       0       0       
      +0       0       0       0       0       0
  4850 ;;      Locals:         0       0       0       0       0       0       0       0       0       0       0       0       
      +0       0       0       0       0       0       0       0       0       0       0       0       0       0       0       
      +0       0       0       0       0       0
  4851 ;;      Temps:          0       0       0       0       0       0       0       0       0       0       0       0       
      +0       0       0       0       0       0       0       0       0       0       0       0       0       0       0       
      +0       0       0       0       0       0
  4852 ;;      Totals:         2       0       0       0       0       0       0       0       0       0       0       0       
      +0       0       0       0       0       0       0       0       0       0       0       0       0       0       0       
      +0       0       0       0       0       0
  4853 ;;Total ram usage:        2 bytes
  4854 ;; Hardware stack levels used: 1
  4855 ;; Hardware stack levels required when called: 4
  4856 ;; This function calls:
  4857 ;;		Nothing
  4858 ;; This function is called by:
  4859 ;;		_FPGA_GetBuff
  4860 ;;		_FPGA_SetBuff
  4861 ;;		_main
  4862 ;; This function uses a non-reentrant model
  4863 ;;
  4864                           
  4865                           	psect	text40
  4866   0012B0                     __ptext40:
  4867                           	callstack 0
  4868   0012B0                     _FPGA_CS:
  4869                           	callstack 121
  4870   0012B0                     
  4871                           ;main.c: 77: void FPGA_CS(int d);main.c: 78: {;main.c: 79:     if((d&0x01)!=0)
  4872   0012B0  A003               	btfss	FPGA_CS@d^(0+1280),0,c
  4873   0012B2  EF5D  F009         	goto	u1421
  4874   0012B6  EF5F  F009         	goto	u1420
  4875   0012BA                     u1421:
  4876   0012BA  EF62  F009         	goto	l826
  4877   0012BE                     u1420:
  4878   0012BE  80C3               	bsf	195,0,c	;volatile
  4879   0012C0  EF63  F009         	goto	l828
  4880   0012C4                     l826:
  4881   0012C4  90C3               	bcf	195,0,c	;volatile
  4882   0012C6                     l828:
  4883   0012C6  0012               	return		;funcret
  4884   0012C8                     __end_of_FPGA_CS:
  4885                           	callstack 0
  4886                           
  4887 ;; *************** function _FPGA_CLK *****************
  4888 ;; Defined at:
  4889 ;;		line 70 in file "main.c"
  4890 ;; Parameters:    Size  Location     Type
  4891 ;;  d               2    2[COMRAM] int 
  4892 ;; Auto vars:     Size  Location     Type
  4893 ;;		None
  4894 ;; Return value:  Size  Location     Type
  4895 ;;                  1    wreg      void 
  4896 ;; Registers used:
  4897 ;;		None
  4898 ;; Tracked objects:
  4899 ;;		On entry : 0/0
  4900 ;;		On exit  : 0/0
  4901 ;;		Unchanged: 0/0
  4902 ;; Data sizes:     COMRAM   BANK5   BANK6   BANK7   BANK8   BANK9  BANK10  BANK11  BANK12  BANK13  BANK14  BANK15  BANK1
      +6  BANK17  BANK18  BANK19  BANK20  BANK21  BANK22  BANK23  BANK24  BANK25  BANK26  BANK27  BANK28  BANK29  BANK30  BANK3
      +1  BANK32  BANK33  BANK34  BANK35  BANK36
  4903 ;;      Params:         2       0       0       0       0       0       0       0       0       0       0       0       
      +0       0       0       0       0       0       0       0       0       0       0       0       0       0       0       
      +0       0       0       0       0       0
  4904 ;;      Locals:         0       0       0       0       0       0       0       0       0       0       0       0       
      +0       0       0       0       0       0       0       0       0       0       0       0       0       0       0       
      +0       0       0       0       0       0
  4905 ;;      Temps:          0       0       0       0       0       0       0       0       0       0       0       0       
      +0       0       0       0       0       0       0       0       0       0       0       0       0       0       0       
      +0       0       0       0       0       0
  4906 ;;      Totals:         2       0       0       0       0       0       0       0       0       0       0       0       
      +0       0       0       0       0       0       0       0       0       0       0       0       0       0       0       
      +0       0       0       0       0       0
  4907 ;;Total ram usage:        2 bytes
  4908 ;; Hardware stack levels used: 1
  4909 ;; Hardware stack levels required when called: 4
  4910 ;; This function calls:
  4911 ;;		Nothing
  4912 ;; This function is called by:
  4913 ;;		_FPGA_GetBuff
  4914 ;;		_FPGA_SetBuff
  4915 ;;		_main
  4916 ;; This function uses a non-reentrant model
  4917 ;;
  4918                           
  4919                           	psect	text41
  4920   0012C8                     __ptext41:
  4921                           	callstack 0
  4922   0012C8                     _FPGA_CLK:
  4923                           	callstack 121
  4924   0012C8                     
  4925                           ;main.c: 70: void FPGA_CLK(int d);main.c: 71: {;main.c: 72:     if((d&0x01)!=0)
  4926   0012C8  A003               	btfss	FPGA_CLK@d^(0+1280),0,c
  4927   0012CA  EF69  F009         	goto	u1411
  4928   0012CE  EF6B  F009         	goto	u1410
  4929   0012D2                     u1411:
  4930   0012D2  EF6E  F009         	goto	l817
  4931   0012D6                     u1410:
  4932   0012D6  8CC3               	bsf	195,6,c	;volatile
  4933   0012D8  EF6F  F009         	goto	l819
  4934   0012DC                     l817:
  4935   0012DC  9CC3               	bcf	195,6,c	;volatile
  4936   0012DE                     l819:
  4937   0012DE  0012               	return		;funcret
  4938   0012E0                     __end_of_FPGA_CLK:
  4939                           	callstack 0
  4940                           
  4941 ;; *************** function _DiliverOtherPacket *****************
  4942 ;; Defined at:
  4943 ;;		line 356 in file "main.c"
  4944 ;; Parameters:    Size  Location     Type
  4945 ;;  TargetDipSW     1    wreg     unsigned char 
  4946 ;;  Cmd             1    3[COMRAM] unsigned char 
  4947 ;;  Data            2    4[COMRAM] PTR unsigned char 
  4948 ;;		 -> main@Buff(16), 
  4949 ;;  DataLen         1    6[COMRAM] unsigned char 
  4950 ;; Auto vars:     Size  Location     Type
  4951 ;;  TargetDipSW     1   10[COMRAM] unsigned char 
  4952 ;;  i               2   11[COMRAM] int 
  4953 ;;  d               1   14[COMRAM] unsigned char 
  4954 ;;  Checksum        1   13[COMRAM] unsigned char 
  4955 ;; Return value:  Size  Location     Type
  4956 ;;                  1    wreg      _Bool 
  4957 ;; Registers used:
  4958 ;;		wreg, fsr2l, fsr2h, status,2, status,0, cstack
  4959 ;; Tracked objects:
  4960 ;;		On entry : 0/0
  4961 ;;		On exit  : 0/0
  4962 ;;		Unchanged: 0/0
  4963 ;; Data sizes:     COMRAM   BANK5   BANK6   BANK7   BANK8   BANK9  BANK10  BANK11  BANK12  BANK13  BANK14  BANK15  BANK1
      +6  BANK17  BANK18  BANK19  BANK20  BANK21  BANK22  BANK23  BANK24  BANK25  BANK26  BANK27  BANK28  BANK29  BANK30  BANK3
      +1  BANK32  BANK33  BANK34  BANK35  BANK36
  4964 ;;      Params:         4       0       0       0       0       0       0       0       0       0       0       0       
      +0       0       0       0       0       0       0       0       0       0       0       0       0       0       0       
      +0       0       0       0       0       0
  4965 ;;      Locals:         5       0       0       0       0       0       0       0       0       0       0       0       
      +0       0       0       0       0       0       0       0       0       0       0       0       0       0       0       
      +0       0       0       0       0       0
  4966 ;;      Temps:          3       0       0       0       0       0       0       0       0       0       0       0       
      +0       0       0       0       0       0       0       0       0       0       0       0       0       0       0       
      +0       0       0       0       0       0
  4967 ;;      Totals:        12       0       0       0       0       0       0       0       0       0       0       0       
      +0       0       0       0       0       0       0       0       0       0       0       0       0       0       0       
      +0       0       0       0       0       0
  4968 ;;Total ram usage:       12 bytes
  4969 ;; Hardware stack levels used: 1
  4970 ;; Hardware stack levels required when called: 5
  4971 ;; This function calls:
  4972 ;;		_TMR0_HasOverflowOccured
  4973 ;;		_TMR0_Initialize
  4974 ;;		_TMR0_StartTimer
  4975 ;;		_UART1_Write
  4976 ;;		_UART1_is_tx_ready
  4977 ;; This function is called by:
  4978 ;;		_main
  4979 ;; This function uses a non-reentrant model
  4980 ;;
  4981                           
  4982                           	psect	text42
  4983   000476                     __ptext42:
  4984                           	callstack 0
  4985   000476                     _DiliverOtherPacket:
  4986                           	callstack 121
  4987                           
  4988                           ;incstack = 0
  4989                           ;DiliverOtherPacket@TargetDipSW stored from wreg
  4990   000476  6E0B               	movwf	DiliverOtherPacket@TargetDipSW^(0+1280),c
  4991   000478                     
  4992                           ;main.c: 356: _Bool DiliverOtherPacket(unsigned char TargetDipSW,unsigned char Cmd,unsig
      +                          ned char Data[],unsigned char DataLen);main.c: 357: {;main.c: 358:     unsigned char d;;
      +                          main.c: 359:     unsigned char Checksum;;main.c: 360:     int i;;main.c: 362:     TMR0_I
      +                          nitialize();
  4993   000478  EC86  F009         	call	_TMR0_Initialize	;wreg free
  4994   00047C                     
  4995                           ;main.c: 363:     TMR0_StartTimer();
  4996   00047C  ECFA  F009         	call	_TMR0_StartTimer	;wreg free
  4997   000480                     l3225:
  4998                           
  4999                           ;main.c: 365:         if(UART1_is_tx_ready()==1){
  5000   000480  ECF8  F008         	call	_UART1_is_tx_ready	;wreg free
  5001   000484  06E8               	decf	wreg,f,c
  5002   000486  A4D8               	btfss	status,2,c
  5003   000488  EF48  F002         	goto	u1781
  5004   00048C  EF4A  F002         	goto	u1780
  5005   000490                     u1781:
  5006   000490  EF4C  F002         	goto	l3229
  5007   000494                     u1780:
  5008   000494  EF59  F002         	goto	l3235
  5009   000498                     l3229:
  5010                           
  5011                           ;main.c: 368:         if(TMR0_HasOverflowOccured()==1){
  5012   000498  ECA5  F009         	call	_TMR0_HasOverflowOccured	;wreg free
  5013   00049C  06E8               	decf	wreg,f,c
  5014   00049E  A4D8               	btfss	status,2,c
  5015   0004A0  EF54  F002         	goto	u1791
  5016   0004A4  EF56  F002         	goto	u1790
  5017   0004A8                     u1791:
  5018   0004A8  EF40  F002         	goto	l3225
  5019   0004AC                     u1790:
  5020   0004AC                     l3231:
  5021                           
  5022                           ;main.c: 369:             return 0;
  5023   0004AC  0E00               	movlw	0
  5024   0004AE  EF2A  F003         	goto	l991
  5025   0004B2                     l3235:
  5026   0004B2                     
  5027                           ;main.c: 373:     UART1_Write(d);
  5028   0004B2  0E1E               	movlw	30
  5029   0004B4  EC7B  F009         	call	_UART1_Write
  5030   0004B8                     
  5031                           ;main.c: 374:     Checksum=d;
  5032   0004B8  0E1E               	movlw	30
  5033   0004BA  6E0E               	movwf	DiliverOtherPacket@Checksum^(0+1280),c
  5034   0004BC                     
  5035                           ;main.c: 376:     TMR0_Initialize();
  5036   0004BC  EC86  F009         	call	_TMR0_Initialize	;wreg free
  5037   0004C0                     
  5038                           ;main.c: 377:     TMR0_StartTimer();
  5039   0004C0  ECFA  F009         	call	_TMR0_StartTimer	;wreg free
  5040   0004C4                     l992:
  5041                           
  5042                           ;main.c: 379:         if(UART1_is_tx_ready()==1){
  5043   0004C4  ECF8  F008         	call	_UART1_is_tx_ready	;wreg free
  5044   0004C8  06E8               	decf	wreg,f,c
  5045   0004CA  A4D8               	btfss	status,2,c
  5046   0004CC  EF6A  F002         	goto	u1801
  5047   0004D0  EF6C  F002         	goto	u1800
  5048   0004D4                     u1801:
  5049   0004D4  EF6E  F002         	goto	l3247
  5050   0004D8                     u1800:
  5051   0004D8  EF7A  F002         	goto	l994
  5052   0004DC                     l3247:
  5053                           
  5054                           ;main.c: 382:         if(TMR0_HasOverflowOccured()==1){
  5055   0004DC  ECA5  F009         	call	_TMR0_HasOverflowOccured	;wreg free
  5056   0004E0  06E8               	decf	wreg,f,c
  5057   0004E2  A4D8               	btfss	status,2,c
  5058   0004E4  EF76  F002         	goto	u1811
  5059   0004E8  EF78  F002         	goto	u1810
  5060   0004EC                     u1811:
  5061   0004EC  EF62  F002         	goto	l992
  5062   0004F0                     u1810:
  5063   0004F0  EF56  F002         	goto	l3231
  5064   0004F4                     l994:
  5065                           
  5066                           ;main.c: 386:     d=TargetDipSW;
  5067   0004F4  C50B  F50F         	movff	DiliverOtherPacket@TargetDipSW,DiliverOtherPacket@d
  5068   0004F8                     
  5069                           ;main.c: 387:     UART1_Write(d);
  5070   0004F8  500F               	movf	DiliverOtherPacket@d^(0+1280),w,c
  5071   0004FA  EC7B  F009         	call	_UART1_Write
  5072   0004FE                     
  5073                           ;main.c: 388:     Checksum^=d;
  5074   0004FE  500F               	movf	DiliverOtherPacket@d^(0+1280),w,c
  5075   000500  1A0E               	xorwf	DiliverOtherPacket@Checksum^(0+1280),f,c
  5076   000502                     
  5077                           ;main.c: 390:     TMR0_Initialize();
  5078   000502  EC86  F009         	call	_TMR0_Initialize	;wreg free
  5079   000506                     
  5080                           ;main.c: 391:     TMR0_StartTimer();
  5081   000506  ECFA  F009         	call	_TMR0_StartTimer	;wreg free
  5082   00050A                     l3261:
  5083                           
  5084                           ;main.c: 393:         if(UART1_is_tx_ready()==1){
  5085   00050A  ECF8  F008         	call	_UART1_is_tx_ready	;wreg free
  5086   00050E  06E8               	decf	wreg,f,c
  5087   000510  A4D8               	btfss	status,2,c
  5088   000512  EF8D  F002         	goto	u1821
  5089   000516  EF8F  F002         	goto	u1820
  5090   00051A                     u1821:
  5091   00051A  EF91  F002         	goto	l3265
  5092   00051E                     u1820:
  5093   00051E  EF9D  F002         	goto	l998
  5094   000522                     l3265:
  5095                           
  5096                           ;main.c: 396:         if(TMR0_HasOverflowOccured()==1){
  5097   000522  ECA5  F009         	call	_TMR0_HasOverflowOccured	;wreg free
  5098   000526  06E8               	decf	wreg,f,c
  5099   000528  A4D8               	btfss	status,2,c
  5100   00052A  EF99  F002         	goto	u1831
  5101   00052E  EF9B  F002         	goto	u1830
  5102   000532                     u1831:
  5103   000532  EF85  F002         	goto	l3261
  5104   000536                     u1830:
  5105   000536  EF56  F002         	goto	l3231
  5106   00053A                     l998:
  5107                           
  5108                           ;main.c: 400:     d=Cmd;
  5109   00053A  C504  F50F         	movff	DiliverOtherPacket@Cmd,DiliverOtherPacket@d
  5110   00053E                     
  5111                           ;main.c: 401:     UART1_Write(d);
  5112   00053E  500F               	movf	DiliverOtherPacket@d^(0+1280),w,c
  5113   000540  EC7B  F009         	call	_UART1_Write
  5114   000544                     
  5115                           ;main.c: 402:     Checksum^=d;
  5116   000544  500F               	movf	DiliverOtherPacket@d^(0+1280),w,c
  5117   000546  1A0E               	xorwf	DiliverOtherPacket@Checksum^(0+1280),f,c
  5118   000548                     
  5119                           ;main.c: 404:     TMR0_Initialize();
  5120   000548  EC86  F009         	call	_TMR0_Initialize	;wreg free
  5121   00054C                     
  5122                           ;main.c: 405:     TMR0_StartTimer();
  5123   00054C  ECFA  F009         	call	_TMR0_StartTimer	;wreg free
  5124   000550                     l3279:
  5125                           
  5126                           ;main.c: 407:         if(UART1_is_tx_ready()==1){
  5127   000550  ECF8  F008         	call	_UART1_is_tx_ready	;wreg free
  5128   000554  06E8               	decf	wreg,f,c
  5129   000556  A4D8               	btfss	status,2,c
  5130   000558  EFB0  F002         	goto	u1841
  5131   00055C  EFB2  F002         	goto	u1840
  5132   000560                     u1841:
  5133   000560  EFB4  F002         	goto	l3283
  5134   000564                     u1840:
  5135   000564  EFC0  F002         	goto	l1002
  5136   000568                     l3283:
  5137                           
  5138                           ;main.c: 410:         if(TMR0_HasOverflowOccured()==1){
  5139   000568  ECA5  F009         	call	_TMR0_HasOverflowOccured	;wreg free
  5140   00056C  06E8               	decf	wreg,f,c
  5141   00056E  A4D8               	btfss	status,2,c
  5142   000570  EFBC  F002         	goto	u1851
  5143   000574  EFBE  F002         	goto	u1850
  5144   000578                     u1851:
  5145   000578  EFA8  F002         	goto	l3279
  5146   00057C                     u1850:
  5147   00057C  EF56  F002         	goto	l3231
  5148   000580                     l1002:
  5149                           
  5150                           ;main.c: 414:     d=DataLen;
  5151   000580  C507  F50F         	movff	DiliverOtherPacket@DataLen,DiliverOtherPacket@d
  5152   000584                     
  5153                           ;main.c: 415:     UART1_Write(d);
  5154   000584  500F               	movf	DiliverOtherPacket@d^(0+1280),w,c
  5155   000586  EC7B  F009         	call	_UART1_Write
  5156   00058A                     
  5157                           ;main.c: 416:     Checksum^=d;
  5158   00058A  500F               	movf	DiliverOtherPacket@d^(0+1280),w,c
  5159   00058C  1A0E               	xorwf	DiliverOtherPacket@Checksum^(0+1280),f,c
  5160   00058E                     
  5161                           ;main.c: 418:     for(i=0;i<DataLen;i++){
  5162   00058E  0E00               	movlw	0
  5163   000590  6E0D               	movwf	(DiliverOtherPacket@i+1)^(0+1280),c
  5164   000592  0E00               	movlw	0
  5165   000594  6E0C               	movwf	DiliverOtherPacket@i^(0+1280),c
  5166   000596  EFF8  F002         	goto	l3317
  5167   00059A                     l3295:
  5168                           
  5169                           ;main.c: 419:         TMR0_Initialize();
  5170   00059A  EC86  F009         	call	_TMR0_Initialize	;wreg free
  5171   00059E                     
  5172                           ;main.c: 420:         TMR0_StartTimer();
  5173   00059E  ECFA  F009         	call	_TMR0_StartTimer	;wreg free
  5174   0005A2                     l3299:
  5175                           
  5176                           ;main.c: 422:             if(UART1_is_tx_ready()==1){
  5177   0005A2  ECF8  F008         	call	_UART1_is_tx_ready	;wreg free
  5178   0005A6  06E8               	decf	wreg,f,c
  5179   0005A8  A4D8               	btfss	status,2,c
  5180   0005AA  EFD9  F002         	goto	u1861
  5181   0005AE  EFDB  F002         	goto	u1860
  5182   0005B2                     u1861:
  5183   0005B2  EFDD  F002         	goto	l3303
  5184   0005B6                     u1860:
  5185   0005B6  EFE9  F002         	goto	l3309
  5186   0005BA                     l3303:
  5187                           
  5188                           ;main.c: 425:             if(TMR0_HasOverflowOccured()==1){
  5189   0005BA  ECA5  F009         	call	_TMR0_HasOverflowOccured	;wreg free
  5190   0005BE  06E8               	decf	wreg,f,c
  5191   0005C0  A4D8               	btfss	status,2,c
  5192   0005C2  EFE5  F002         	goto	u1871
  5193   0005C6  EFE7  F002         	goto	u1870
  5194   0005CA                     u1871:
  5195   0005CA  EFD1  F002         	goto	l3299
  5196   0005CE                     u1870:
  5197   0005CE  EF56  F002         	goto	l3231
  5198   0005D2                     l3309:
  5199                           
  5200                           ;main.c: 429:         d=Data[i];
  5201   0005D2  500C               	movf	DiliverOtherPacket@i^(0+1280),w,c
  5202   0005D4  2405               	addwf	DiliverOtherPacket@Data^(0+1280),w,c
  5203   0005D6  6ED9               	movwf	fsr2l,c
  5204   0005D8  500D               	movf	(DiliverOtherPacket@i+1)^(0+1280),w,c
  5205   0005DA  2006               	addwfc	(DiliverOtherPacket@Data+1)^(0+1280),w,c
  5206   0005DC  6EDA               	movwf	fsr2h,c
  5207   0005DE  50DF               	movf	indf2,w,c
  5208   0005E0  6E0F               	movwf	DiliverOtherPacket@d^(0+1280),c
  5209   0005E2                     
  5210                           ;main.c: 430:         UART1_Write(d);
  5211   0005E2  500F               	movf	DiliverOtherPacket@d^(0+1280),w,c
  5212   0005E4  EC7B  F009         	call	_UART1_Write
  5213   0005E8                     
  5214                           ;main.c: 431:         Checksum^=d;
  5215   0005E8  500F               	movf	DiliverOtherPacket@d^(0+1280),w,c
  5216   0005EA  1A0E               	xorwf	DiliverOtherPacket@Checksum^(0+1280),f,c
  5217   0005EC                     
  5218                           ;main.c: 432:     }
  5219   0005EC  4A0C               	infsnz	DiliverOtherPacket@i^(0+1280),f,c
  5220   0005EE  2A0D               	incf	(DiliverOtherPacket@i+1)^(0+1280),f,c
  5221   0005F0                     l3317:
  5222   0005F0  5007               	movf	DiliverOtherPacket@DataLen^(0+1280),w,c
  5223   0005F2  6E08               	movwf	??_DiliverOtherPacket^(0+1280),c
  5224   0005F4  6A09               	clrf	(??_DiliverOtherPacket+1)^(0+1280),c
  5225   0005F6  5008               	movf	??_DiliverOtherPacket^(0+1280),w,c
  5226   0005F8  5C0C               	subwf	DiliverOtherPacket@i^(0+1280),w,c
  5227   0005FA  500D               	movf	(DiliverOtherPacket@i+1)^(0+1280),w,c
  5228   0005FC  0A80               	xorlw	128
  5229   0005FE  6E0A               	movwf	(??_DiliverOtherPacket+2)^(0+1280),c
  5230   000600  5009               	movf	(??_DiliverOtherPacket+1)^(0+1280),w,c
  5231   000602  0A80               	xorlw	128
  5232   000604  580A               	subwfb	(??_DiliverOtherPacket+2)^(0+1280),w,c
  5233   000606  A0D8               	btfss	status,0,c
  5234   000608  EF08  F003         	goto	u1881
  5235   00060C  EF0A  F003         	goto	u1880
  5236   000610                     u1881:
  5237   000610  EFCD  F002         	goto	l3295
  5238   000614                     u1880:
  5239   000614                     
  5240                           ;main.c: 434:     TMR0_Initialize();
  5241   000614  EC86  F009         	call	_TMR0_Initialize	;wreg free
  5242   000618                     
  5243                           ;main.c: 435:     TMR0_StartTimer();
  5244   000618  ECFA  F009         	call	_TMR0_StartTimer	;wreg free
  5245   00061C                     l3323:
  5246                           
  5247                           ;main.c: 437:         if(UART1_is_tx_ready()==1){
  5248   00061C  ECF8  F008         	call	_UART1_is_tx_ready	;wreg free
  5249   000620  06E8               	decf	wreg,f,c
  5250   000622  A4D8               	btfss	status,2,c
  5251   000624  EF16  F003         	goto	u1891
  5252   000628  EF18  F003         	goto	u1890
  5253   00062C                     u1891:
  5254   00062C  EF1A  F003         	goto	l3327
  5255   000630                     u1890:
  5256   000630  EF26  F003         	goto	l3333
  5257   000634                     l3327:
  5258                           
  5259                           ;main.c: 440:         if(TMR0_HasOverflowOccured()==1){
  5260   000634  ECA5  F009         	call	_TMR0_HasOverflowOccured	;wreg free
  5261   000638  06E8               	decf	wreg,f,c
  5262   00063A  A4D8               	btfss	status,2,c
  5263   00063C  EF22  F003         	goto	u1901
  5264   000640  EF24  F003         	goto	u1900
  5265   000644                     u1901:
  5266   000644  EF0E  F003         	goto	l3323
  5267   000648                     u1900:
  5268   000648  EF56  F002         	goto	l3231
  5269   00064C                     l3333:
  5270                           
  5271                           ;main.c: 444:     UART1_Write(Checksum);
  5272   00064C  500E               	movf	DiliverOtherPacket@Checksum^(0+1280),w,c
  5273   00064E  EC7B  F009         	call	_UART1_Write
  5274   000652                     
  5275                           ;main.c: 445:     return 1;
  5276   000652  0E01               	movlw	1
  5277   000654                     l991:
  5278   000654  0012               	return		;funcret
  5279   000656                     __end_of_DiliverOtherPacket:
  5280                           	callstack 0
  5281                           
  5282 ;; *************** function _UART1_is_tx_ready *****************
  5283 ;; Defined at:
  5284 ;;		line 131 in file "mcc_generated_files/uart1.c"
  5285 ;; Parameters:    Size  Location     Type
  5286 ;;		None
  5287 ;; Auto vars:     Size  Location     Type
  5288 ;;		None
  5289 ;; Return value:  Size  Location     Type
  5290 ;;                  1    wreg      _Bool 
  5291 ;; Registers used:
  5292 ;;		wreg, status,2
  5293 ;; Tracked objects:
  5294 ;;		On entry : 0/0
  5295 ;;		On exit  : 0/0
  5296 ;;		Unchanged: 0/0
  5297 ;; Data sizes:     COMRAM   BANK5   BANK6   BANK7   BANK8   BANK9  BANK10  BANK11  BANK12  BANK13  BANK14  BANK15  BANK1
      +6  BANK17  BANK18  BANK19  BANK20  BANK21  BANK22  BANK23  BANK24  BANK25  BANK26  BANK27  BANK28  BANK29  BANK30  BANK3
      +1  BANK32  BANK33  BANK34  BANK35  BANK36
  5298 ;;      Params:         0       0       0       0       0       0       0       0       0       0       0       0       
      +0       0       0       0       0       0       0       0       0       0       0       0       0       0       0       
      +0       0       0       0       0       0
  5299 ;;      Locals:         1       0       0       0       0       0       0       0       0       0       0       0       
      +0       0       0       0       0       0       0       0       0       0       0       0       0       0       0       
      +0       0       0       0       0       0
  5300 ;;      Temps:          0       0       0       0       0       0       0       0       0       0       0       0       
      +0       0       0       0       0       0       0       0       0       0       0       0       0       0       0       
      +0       0       0       0       0       0
  5301 ;;      Totals:         1       0       0       0       0       0       0       0       0       0       0       0       
      +0       0       0       0       0       0       0       0       0       0       0       0       0       0       0       
      +0       0       0       0       0       0
  5302 ;;Total ram usage:        1 bytes
  5303 ;; Hardware stack levels used: 1
  5304 ;; Hardware stack levels required when called: 4
  5305 ;; This function calls:
  5306 ;;		Nothing
  5307 ;; This function is called by:
  5308 ;;		_DiliverOtherPacket
  5309 ;; This function uses a non-reentrant model
  5310 ;;
  5311                           
  5312                           	psect	text43
  5313   0011F0                     __ptext43:
  5314                           	callstack 0
  5315   0011F0                     _UART1_is_tx_ready:
  5316                           	callstack 121
  5317   0011F0                     
  5318                           ;mcc_generated_files/uart1.c: 133:     return (_Bool)(PIR4bits.U1TXIF && U1CON0bits.TXEN
      +                          );
  5319   0011F0  0E00               	movlw	0
  5320   0011F2  6E03               	movwf	_UART1_is_tx_ready$447^(0+1280),c
  5321   0011F4  A2B2               	btfss	178,1,c	;volatile
  5322   0011F6  EFFF  F008         	goto	u1331
  5323   0011FA  EF01  F009         	goto	u1330
  5324   0011FE                     u1331:
  5325   0011FE  EF0B  F009         	goto	l104
  5326   001202                     u1330:
  5327   001202  0102               	movlb	2	; () banked
  5328   001204  ABAB               	btfss	171,5,b	;volatile
  5329   001206  EF07  F009         	goto	u1341
  5330   00120A  EF09  F009         	goto	u1340
  5331   00120E                     u1341:
  5332   00120E  EF0B  F009         	goto	l104
  5333   001212                     u1340:
  5334   001212                     
  5335                           ; BSR set to: 2
  5336   001212  0E01               	movlw	1
  5337   001214  6E03               	movwf	_UART1_is_tx_ready$447^(0+1280),c
  5338   001216                     l104:
  5339   001216  5003               	movf	_UART1_is_tx_ready$447^(0+1280),w,c
  5340   001218  0012               	return		;funcret
  5341   00121A                     __end_of_UART1_is_tx_ready:
  5342                           	callstack 0
  5343                           
  5344 ;; *************** function _UART1_Write *****************
  5345 ;; Defined at:
  5346 ;;		line 170 in file "mcc_generated_files/uart1.c"
  5347 ;; Parameters:    Size  Location     Type
  5348 ;;  txData          1    wreg     unsigned char 
  5349 ;; Auto vars:     Size  Location     Type
  5350 ;;  txData          1    2[COMRAM] unsigned char 
  5351 ;; Return value:  Size  Location     Type
  5352 ;;                  1    wreg      void 
  5353 ;; Registers used:
  5354 ;;		wreg
  5355 ;; Tracked objects:
  5356 ;;		On entry : 0/0
  5357 ;;		On exit  : 0/0
  5358 ;;		Unchanged: 0/0
  5359 ;; Data sizes:     COMRAM   BANK5   BANK6   BANK7   BANK8   BANK9  BANK10  BANK11  BANK12  BANK13  BANK14  BANK15  BANK1
      +6  BANK17  BANK18  BANK19  BANK20  BANK21  BANK22  BANK23  BANK24  BANK25  BANK26  BANK27  BANK28  BANK29  BANK30  BANK3
      +1  BANK32  BANK33  BANK34  BANK35  BANK36
  5360 ;;      Params:         0       0       0       0       0       0       0       0       0       0       0       0       
      +0       0       0       0       0       0       0       0       0       0       0       0       0       0       0       
      +0       0       0       0       0       0
  5361 ;;      Locals:         1       0       0       0       0       0       0       0       0       0       0       0       
      +0       0       0       0       0       0       0       0       0       0       0       0       0       0       0       
      +0       0       0       0       0       0
  5362 ;;      Temps:          0       0       0       0       0       0       0       0       0       0       0       0       
      +0       0       0       0       0       0       0       0       0       0       0       0       0       0       0       
      +0       0       0       0       0       0
  5363 ;;      Totals:         1       0       0       0       0       0       0       0       0       0       0       0       
      +0       0       0       0       0       0       0       0       0       0       0       0       0       0       0       
      +0       0       0       0       0       0
  5364 ;;Total ram usage:        1 bytes
  5365 ;; Hardware stack levels used: 1
  5366 ;; Hardware stack levels required when called: 4
  5367 ;; This function calls:
  5368 ;;		Nothing
  5369 ;; This function is called by:
  5370 ;;		_DiliverOtherPacket
  5371 ;; This function uses a non-reentrant model
  5372 ;;
  5373                           
  5374                           	psect	text44
  5375   0012F6                     __ptext44:
  5376                           	callstack 0
  5377   0012F6                     _UART1_Write:
  5378                           	callstack 121
  5379                           
  5380                           ;incstack = 0
  5381                           ;UART1_Write@txData stored from wreg
  5382   0012F6  6E03               	movwf	UART1_Write@txData^(0+1280),c
  5383   0012F8                     l123:
  5384                           
  5385                           ;mcc_generated_files/uart1.c: 172:     while(0 == PIR4bits.U1TXIF)
  5386   0012F8  A2B2               	btfss	178,1,c	;volatile
  5387   0012FA  EF81  F009         	goto	u111
  5388   0012FE  EF83  F009         	goto	u110
  5389   001302                     u111:
  5390   001302  EF7C  F009         	goto	l123
  5391   001306                     u110:
  5392   001306                     
  5393                           ;mcc_generated_files/uart1.c: 176:     U1TXB = txData;
  5394   001306  C503  F2A3         	movff	UART1_Write@txData,675	;volatile
  5395   00130A  0012               	return		;funcret
  5396   00130C                     __end_of_UART1_Write:
  5397                           	callstack 0
  5398                           
  5399 ;; *************** function _TMR0_StartTimer *****************
  5400 ;; Defined at:
  5401 ;;		line 80 in file "mcc_generated_files/tmr0.c"
  5402 ;; Parameters:    Size  Location     Type
  5403 ;;		None
  5404 ;; Auto vars:     Size  Location     Type
  5405 ;;		None
  5406 ;; Return value:  Size  Location     Type
  5407 ;;                  1    wreg      void 
  5408 ;; Registers used:
  5409 ;;		None
  5410 ;; Tracked objects:
  5411 ;;		On entry : 0/0
  5412 ;;		On exit  : 0/0
  5413 ;;		Unchanged: 0/0
  5414 ;; Data sizes:     COMRAM   BANK5   BANK6   BANK7   BANK8   BANK9  BANK10  BANK11  BANK12  BANK13  BANK14  BANK15  BANK1
      +6  BANK17  BANK18  BANK19  BANK20  BANK21  BANK22  BANK23  BANK24  BANK25  BANK26  BANK27  BANK28  BANK29  BANK30  BANK3
      +1  BANK32  BANK33  BANK34  BANK35  BANK36
  5415 ;;      Params:         0       0       0       0       0       0       0       0       0       0       0       0       
      +0       0       0       0       0       0       0       0       0       0       0       0       0       0       0       
      +0       0       0       0       0       0
  5416 ;;      Locals:         0       0       0       0       0       0       0       0       0       0       0       0       
      +0       0       0       0       0       0       0       0       0       0       0       0       0       0       0       
      +0       0       0       0       0       0
  5417 ;;      Temps:          0       0       0       0       0       0       0       0       0       0       0       0       
      +0       0       0       0       0       0       0       0       0       0       0       0       0       0       0       
      +0       0       0       0       0       0
  5418 ;;      Totals:         0       0       0       0       0       0       0       0       0       0       0       0       
      +0       0       0       0       0       0       0       0       0       0       0       0       0       0       0       
      +0       0       0       0       0       0
  5419 ;;Total ram usage:        0 bytes
  5420 ;; Hardware stack levels used: 1
  5421 ;; Hardware stack levels required when called: 4
  5422 ;; This function calls:
  5423 ;;		Nothing
  5424 ;; This function is called by:
  5425 ;;		_GetRPIPacket
  5426 ;;		_SendRPIPacket
  5427 ;;		_DiliverOtherPacket
  5428 ;;		_GetFromOtherPacket
  5429 ;; This function uses a non-reentrant model
  5430 ;;
  5431                           
  5432                           	psect	text45
  5433   0013F4                     __ptext45:
  5434                           	callstack 0
  5435   0013F4                     _TMR0_StartTimer:
  5436                           	callstack 121
  5437   0013F4                     
  5438                           ;mcc_generated_files/tmr0.c: 83:     T0CON0bits.T0EN = 1;
  5439   0013F4  0103               	movlb	3	; () banked
  5440   0013F6  8F1A               	bsf	26,7,b	;volatile
  5441   0013F8                     
  5442                           ; BSR set to: 3
  5443   0013F8  0012               	return		;funcret
  5444   0013FA                     __end_of_TMR0_StartTimer:
  5445                           	callstack 0
  5446                           
  5447 ;; *************** function _TMR0_Initialize *****************
  5448 ;; Defined at:
  5449 ;;		line 60 in file "mcc_generated_files/tmr0.c"
  5450 ;; Parameters:    Size  Location     Type
  5451 ;;		None
  5452 ;; Auto vars:     Size  Location     Type
  5453 ;;		None
  5454 ;; Return value:  Size  Location     Type
  5455 ;;                  1    wreg      void 
  5456 ;; Registers used:
  5457 ;;		wreg, status,2
  5458 ;; Tracked objects:
  5459 ;;		On entry : 0/0
  5460 ;;		On exit  : 0/0
  5461 ;;		Unchanged: 0/0
  5462 ;; Data sizes:     COMRAM   BANK5   BANK6   BANK7   BANK8   BANK9  BANK10  BANK11  BANK12  BANK13  BANK14  BANK15  BANK1
      +6  BANK17  BANK18  BANK19  BANK20  BANK21  BANK22  BANK23  BANK24  BANK25  BANK26  BANK27  BANK28  BANK29  BANK30  BANK3
      +1  BANK32  BANK33  BANK34  BANK35  BANK36
  5463 ;;      Params:         0       0       0       0       0       0       0       0       0       0       0       0       
      +0       0       0       0       0       0       0       0       0       0       0       0       0       0       0       
      +0       0       0       0       0       0
  5464 ;;      Locals:         0       0       0       0       0       0       0       0       0       0       0       0       
      +0       0       0       0       0       0       0       0       0       0       0       0       0       0       0       
      +0       0       0       0       0       0
  5465 ;;      Temps:          0       0       0       0       0       0       0       0       0       0       0       0       
      +0       0       0       0       0       0       0       0       0       0       0       0       0       0       0       
      +0       0       0       0       0       0
  5466 ;;      Totals:         0       0       0       0       0       0       0       0       0       0       0       0       
      +0       0       0       0       0       0       0       0       0       0       0       0       0       0       0       
      +0       0       0       0       0       0
  5467 ;;Total ram usage:        0 bytes
  5468 ;; Hardware stack levels used: 1
  5469 ;; Hardware stack levels required when called: 4
  5470 ;; This function calls:
  5471 ;;		Nothing
  5472 ;; This function is called by:
  5473 ;;		_SYSTEM_Initialize
  5474 ;;		_GetRPIPacket
  5475 ;;		_SendRPIPacket
  5476 ;;		_DiliverOtherPacket
  5477 ;;		_GetFromOtherPacket
  5478 ;; This function uses a non-reentrant model
  5479 ;;
  5480                           
  5481                           	psect	text46
  5482   00130C                     __ptext46:
  5483                           	callstack 0
  5484   00130C                     _TMR0_Initialize:
  5485                           	callstack 121
  5486   00130C                     
  5487                           ;mcc_generated_files/tmr0.c: 65:     T0CON1 = 0x84;
  5488   00130C  0E84               	movlw	132
  5489   00130E  0103               	movlb	3	; () banked
  5490   001310  6F1B               	movwf	27,b	;volatile
  5491                           
  5492                           ;mcc_generated_files/tmr0.c: 68:     TMR0H = 0xC1;
  5493   001312  0EC1               	movlw	193
  5494   001314  6F19               	movwf	25,b	;volatile
  5495                           
  5496                           ;mcc_generated_files/tmr0.c: 71:     TMR0L = 0x00;
  5497   001316  0E00               	movlw	0
  5498   001318  6F18               	movwf	24,b	;volatile
  5499   00131A                     
  5500                           ; BSR set to: 3
  5501                           ;mcc_generated_files/tmr0.c: 74:     PIR3bits.TMR0IF = 0;
  5502   00131A  9EB1               	bcf	177,7,c	;volatile
  5503                           
  5504                           ;mcc_generated_files/tmr0.c: 77:     T0CON0 = 0x89;
  5505   00131C  0E89               	movlw	137
  5506   00131E  6F1A               	movwf	26,b	;volatile
  5507   001320                     
  5508                           ; BSR set to: 3
  5509   001320  0012               	return		;funcret
  5510   001322                     __end_of_TMR0_Initialize:
  5511                           	callstack 0
  5512                           
  5513 ;; *************** function _TMR0_HasOverflowOccured *****************
  5514 ;; Defined at:
  5515 ;;		line 114 in file "mcc_generated_files/tmr0.c"
  5516 ;; Parameters:    Size  Location     Type
  5517 ;;		None
  5518 ;; Auto vars:     Size  Location     Type
  5519 ;;		None
  5520 ;; Return value:  Size  Location     Type
  5521 ;;                  1    wreg      _Bool 
  5522 ;; Registers used:
  5523 ;;		wreg
  5524 ;; Tracked objects:
  5525 ;;		On entry : 0/0
  5526 ;;		On exit  : 0/0
  5527 ;;		Unchanged: 0/0
  5528 ;; Data sizes:     COMRAM   BANK5   BANK6   BANK7   BANK8   BANK9  BANK10  BANK11  BANK12  BANK13  BANK14  BANK15  BANK1
      +6  BANK17  BANK18  BANK19  BANK20  BANK21  BANK22  BANK23  BANK24  BANK25  BANK26  BANK27  BANK28  BANK29  BANK30  BANK3
      +1  BANK32  BANK33  BANK34  BANK35  BANK36
  5529 ;;      Params:         0       0       0       0       0       0       0       0       0       0       0       0       
      +0       0       0       0       0       0       0       0       0       0       0       0       0       0       0       
      +0       0       0       0       0       0
  5530 ;;      Locals:         0       0       0       0       0       0       0       0       0       0       0       0       
      +0       0       0       0       0       0       0       0       0       0       0       0       0       0       0       
      +0       0       0       0       0       0
  5531 ;;      Temps:          0       0       0       0       0       0       0       0       0       0       0       0       
      +0       0       0       0       0       0       0       0       0       0       0       0       0       0       0       
      +0       0       0       0       0       0
  5532 ;;      Totals:         0       0       0       0       0       0       0       0       0       0       0       0       
      +0       0       0       0       0       0       0       0       0       0       0       0       0       0       0       
      +0       0       0       0       0       0
  5533 ;;Total ram usage:        0 bytes
  5534 ;; Hardware stack levels used: 1
  5535 ;; Hardware stack levels required when called: 4
  5536 ;; This function calls:
  5537 ;;		Nothing
  5538 ;; This function is called by:
  5539 ;;		_GetRPIPacket
  5540 ;;		_SendRPIPacket
  5541 ;;		_DiliverOtherPacket
  5542 ;;		_GetFromOtherPacket
  5543 ;; This function uses a non-reentrant model
  5544 ;;
  5545                           
  5546                           	psect	text47
  5547   00134A                     __ptext47:
  5548                           	callstack 0
  5549   00134A                     _TMR0_HasOverflowOccured:
  5550                           	callstack 121
  5551   00134A                     
  5552                           ;mcc_generated_files/tmr0.c: 117:     return(PIR3bits.TMR0IF);
  5553   00134A  BEB1               	btfsc	177,7,c	;volatile
  5554   00134C  EFAA  F009         	goto	u291
  5555   001350  EFAD  F009         	goto	u290
  5556   001354                     u291:
  5557   001354  0E01               	movlw	1
  5558   001356  EFAE  F009         	goto	u296
  5559   00135A                     u290:
  5560   00135A  0E00               	movlw	0
  5561   00135C                     u296:
  5562   00135C  0012               	return		;funcret
  5563   00135E                     __end_of_TMR0_HasOverflowOccured:
  5564                           	callstack 0
  5565                           
  5566 ;; *************** function _INTERRUPT_InterruptManager *****************
  5567 ;; Defined at:
  5568 ;;		line 58 in file "mcc_generated_files/interrupt_manager.c"
  5569 ;; Parameters:    Size  Location     Type
  5570 ;;		None
  5571 ;; Auto vars:     Size  Location     Type
  5572 ;;		None
  5573 ;; Return value:  Size  Location     Type
  5574 ;;                  1    wreg      void 
  5575 ;; Registers used:
  5576 ;;		wreg, status,2, status,0, pcl, pclath, pclatu, tosl, cstack
  5577 ;; Tracked objects:
  5578 ;;		On entry : 0/0
  5579 ;;		On exit  : 0/0
  5580 ;;		Unchanged: 0/0
  5581 ;; Data sizes:     COMRAM   BANK5   BANK6   BANK7   BANK8   BANK9  BANK10  BANK11  BANK12  BANK13  BANK14  BANK15  BANK1
      +6  BANK17  BANK18  BANK19  BANK20  BANK21  BANK22  BANK23  BANK24  BANK25  BANK26  BANK27  BANK28  BANK29  BANK30  BANK3
      +1  BANK32  BANK33  BANK34  BANK35  BANK36
  5582 ;;      Params:         0       0       0       0       0       0       0       0       0       0       0       0       
      +0       0       0       0       0       0       0       0       0       0       0       0       0       0       0       
      +0       0       0       0       0       0
  5583 ;;      Locals:         0       0       0       0       0       0       0       0       0       0       0       0       
      +0       0       0       0       0       0       0       0       0       0       0       0       0       0       0       
      +0       0       0       0       0       0
  5584 ;;      Temps:          2       0       0       0       0       0       0       0       0       0       0       0       
      +0       0       0       0       0       0       0       0       0       0       0       0       0       0       0       
      +0       0       0       0       0       0
  5585 ;;      Totals:         2       0       0       0       0       0       0       0       0       0       0       0       
      +0       0       0       0       0       0       0       0       0       0       0       0       0       0       0       
      +0       0       0       0       0       0
  5586 ;;Total ram usage:        2 bytes
  5587 ;; Hardware stack levels used: 1
  5588 ;; Hardware stack levels required when called: 3
  5589 ;; This function calls:
  5590 ;;		_INT0_ISR
  5591 ;;		_INT1_ISR
  5592 ;;		_INT2_ISR
  5593 ;; This function is called by:
  5594 ;;		Interrupt level 2
  5595 ;; This function uses a non-reentrant model
  5596 ;;
  5597                           
  5598                           	psect	text48
  5599   000EE2                     __ptext48:
  5600                           	callstack 0
  5601   000EE2                     _INTERRUPT_InterruptManager:
  5602                           	callstack 120
  5603                           
  5604                           ;incstack = 0
  5605   000EE2  C4FA F501          	movff	pclath,??_INTERRUPT_InterruptManager
  5606   000EE6  C4FB F502          	movff	pclatu,??_INTERRUPT_InterruptManager+1
  5607   000EEA                     
  5608                           ;mcc_generated_files/interrupt_manager.c: 61:     if(PIE1bits.INT0IE == 1 && PIR1bits.IN
      +                          T0IF == 1)
  5609   000EEA  A09F               	btfss	159,0,c	;volatile
  5610   000EEC  EF7A  F007         	goto	i2u111_41
  5611   000EF0  EF7C  F007         	goto	i2u111_40
  5612   000EF4                     i2u111_41:
  5613   000EF4  EF87  F007         	goto	i2l28
  5614   000EF8                     i2u111_40:
  5615   000EF8  A0AF               	btfss	175,0,c	;volatile
  5616   000EFA  EF81  F007         	goto	i2u112_41
  5617   000EFE  EF83  F007         	goto	i2u112_40
  5618   000F02                     i2u112_41:
  5619   000F02  EF87  F007         	goto	i2l28
  5620   000F06                     i2u112_40:
  5621   000F06                     
  5622                           ;mcc_generated_files/interrupt_manager.c: 62:     {;mcc_generated_files/interrupt_manage
      +                          r.c: 63:         INT0_ISR();
  5623   000F06  ECF6  F009         	call	_INT0_ISR	;wreg free
  5624                           
  5625                           ;mcc_generated_files/interrupt_manager.c: 64:     }
  5626   000F0A  EFAB  F007         	goto	i2l34
  5627   000F0E                     i2l28:
  5628   000F0E  A0A4               	btfss	164,0,c	;volatile
  5629   000F10  EF8C  F007         	goto	i2u113_41
  5630   000F14  EF8E  F007         	goto	i2u113_40
  5631   000F18                     i2u113_41:
  5632   000F18  EF99  F007         	goto	i2l30
  5633   000F1C                     i2u113_40:
  5634   000F1C  A0B4               	btfss	180,0,c	;volatile
  5635   000F1E  EF93  F007         	goto	i2u114_41
  5636   000F22  EF95  F007         	goto	i2u114_40
  5637   000F26                     i2u114_41:
  5638   000F26  EF99  F007         	goto	i2l30
  5639   000F2A                     i2u114_40:
  5640   000F2A                     
  5641                           ;mcc_generated_files/interrupt_manager.c: 66:     {;mcc_generated_files/interrupt_manage
      +                          r.c: 67:         INT1_ISR();
  5642   000F2A  ECF2  F009         	call	_INT1_ISR	;wreg free
  5643                           
  5644                           ;mcc_generated_files/interrupt_manager.c: 68:     }
  5645   000F2E  EFAB  F007         	goto	i2l34
  5646   000F32                     i2l30:
  5647   000F32  A0A8               	btfss	168,0,c	;volatile
  5648   000F34  EF9E  F007         	goto	i2u115_41
  5649   000F38  EFA0  F007         	goto	i2u115_40
  5650   000F3C                     i2u115_41:
  5651   000F3C  EFAB  F007         	goto	i2l31
  5652   000F40                     i2u115_40:
  5653   000F40  A0B8               	btfss	184,0,c	;volatile
  5654   000F42  EFA5  F007         	goto	i2u116_41
  5655   000F46  EFA7  F007         	goto	i2u116_40
  5656   000F4A                     i2u116_41:
  5657   000F4A  EFAB  F007         	goto	i2l31
  5658   000F4E                     i2u116_40:
  5659   000F4E                     
  5660                           ;mcc_generated_files/interrupt_manager.c: 70:     {;mcc_generated_files/interrupt_manage
      +                          r.c: 71:         INT2_ISR();
  5661   000F4E  ECEE  F009         	call	_INT2_ISR	;wreg free
  5662                           
  5663                           ;mcc_generated_files/interrupt_manager.c: 72:     }
  5664   000F52  EFAB  F007         	goto	i2l34
  5665   000F56                     i2l31:
  5666   000F56                     i2l34:
  5667   000F56  C502  F4FB         	movff	??_INTERRUPT_InterruptManager+1,pclatu
  5668   000F5A  C501  F4FA         	movff	??_INTERRUPT_InterruptManager,pclath
  5669   000F5E  0011               	retfie		f
  5670   000F60                     __end_of_INTERRUPT_InterruptManager:
  5671                           	callstack 0
  5672                           
  5673 ;; *************** function _INT2_ISR *****************
  5674 ;; Defined at:
  5675 ;;		line 86 in file "mcc_generated_files/ext_int.c"
  5676 ;; Parameters:    Size  Location     Type
  5677 ;;		None
  5678 ;; Auto vars:     Size  Location     Type
  5679 ;;		None
  5680 ;; Return value:  Size  Location     Type
  5681 ;;                  1    wreg      void 
  5682 ;; Registers used:
  5683 ;;		wreg, status,2, status,0, pcl, pclath, pclatu, tosl, cstack
  5684 ;; Tracked objects:
  5685 ;;		On entry : 0/0
  5686 ;;		On exit  : 0/0
  5687 ;;		Unchanged: 0/0
  5688 ;; Data sizes:     COMRAM   BANK5   BANK6   BANK7   BANK8   BANK9  BANK10  BANK11  BANK12  BANK13  BANK14  BANK15  BANK1
      +6  BANK17  BANK18  BANK19  BANK20  BANK21  BANK22  BANK23  BANK24  BANK25  BANK26  BANK27  BANK28  BANK29  BANK30  BANK3
      +1  BANK32  BANK33  BANK34  BANK35  BANK36
  5689 ;;      Params:         0       0       0       0       0       0       0       0       0       0       0       0       
      +0       0       0       0       0       0       0       0       0       0       0       0       0       0       0       
      +0       0       0       0       0       0
  5690 ;;      Locals:         0       0       0       0       0       0       0       0       0       0       0       0       
      +0       0       0       0       0       0       0       0       0       0       0       0       0       0       0       
      +0       0       0       0       0       0
  5691 ;;      Temps:          0       0       0       0       0       0       0       0       0       0       0       0       
      +0       0       0       0       0       0       0       0       0       0       0       0       0       0       0       
      +0       0       0       0       0       0
  5692 ;;      Totals:         0       0       0       0       0       0       0       0       0       0       0       0       
      +0       0       0       0       0       0       0       0       0       0       0       0       0       0       0       
      +0       0       0       0       0       0
  5693 ;;Total ram usage:        0 bytes
  5694 ;; Hardware stack levels used: 1
  5695 ;; Hardware stack levels required when called: 2
  5696 ;; This function calls:
  5697 ;;		_INT2_CallBack
  5698 ;; This function is called by:
  5699 ;;		_INTERRUPT_InterruptManager
  5700 ;; This function uses a non-reentrant model
  5701 ;;
  5702                           
  5703                           	psect	text49
  5704   0013DC                     __ptext49:
  5705                           	callstack 0
  5706   0013DC                     _INT2_ISR:
  5707                           	callstack 120
  5708   0013DC                     
  5709                           ;mcc_generated_files/ext_int.c: 88:     (PIR10bits.INT2IF = 0);
  5710   0013DC  90B8               	bcf	184,0,c	;volatile
  5711   0013DE                     
  5712                           ;mcc_generated_files/ext_int.c: 91:     INT2_CallBack();
  5713   0013DE  EC9B  F008         	call	_INT2_CallBack	;wreg free
  5714   0013E2  0012               	return		;funcret
  5715   0013E4                     __end_of_INT2_ISR:
  5716                           	callstack 0
  5717                           
  5718 ;; *************** function _INT2_CallBack *****************
  5719 ;; Defined at:
  5720 ;;		line 95 in file "mcc_generated_files/ext_int.c"
  5721 ;; Parameters:    Size  Location     Type
  5722 ;;		None
  5723 ;; Auto vars:     Size  Location     Type
  5724 ;;		None
  5725 ;; Return value:  Size  Location     Type
  5726 ;;                  1    wreg      void 
  5727 ;; Registers used:
  5728 ;;		wreg, status,2, status,0, pcl, pclath, pclatu, tosl, cstack
  5729 ;; Tracked objects:
  5730 ;;		On entry : 0/0
  5731 ;;		On exit  : 0/0
  5732 ;;		Unchanged: 0/0
  5733 ;; Data sizes:     COMRAM   BANK5   BANK6   BANK7   BANK8   BANK9  BANK10  BANK11  BANK12  BANK13  BANK14  BANK15  BANK1
      +6  BANK17  BANK18  BANK19  BANK20  BANK21  BANK22  BANK23  BANK24  BANK25  BANK26  BANK27  BANK28  BANK29  BANK30  BANK3
      +1  BANK32  BANK33  BANK34  BANK35  BANK36
  5734 ;;      Params:         0       0       0       0       0       0       0       0       0       0       0       0       
      +0       0       0       0       0       0       0       0       0       0       0       0       0       0       0       
      +0       0       0       0       0       0
  5735 ;;      Locals:         0       0       0       0       0       0       0       0       0       0       0       0       
      +0       0       0       0       0       0       0       0       0       0       0       0       0       0       0       
      +0       0       0       0       0       0
  5736 ;;      Temps:          0       0       0       0       0       0       0       0       0       0       0       0       
      +0       0       0       0       0       0       0       0       0       0       0       0       0       0       0       
      +0       0       0       0       0       0
  5737 ;;      Totals:         0       0       0       0       0       0       0       0       0       0       0       0       
      +0       0       0       0       0       0       0       0       0       0       0       0       0       0       0       
      +0       0       0       0       0       0
  5738 ;;Total ram usage:        0 bytes
  5739 ;; Hardware stack levels used: 1
  5740 ;; Hardware stack levels required when called: 1
  5741 ;; This function calls:
  5742 ;;		Absolute function
  5743 ;;		_INT2_DefaultInterruptHandler
  5744 ;; This function is called by:
  5745 ;;		_INT2_ISR
  5746 ;; This function uses a non-reentrant model
  5747 ;;
  5748                           
  5749                           	psect	text50
  5750   001136                     __ptext50:
  5751                           	callstack 0
  5752   001136                     _INT2_CallBack:
  5753                           	callstack 120
  5754   001136                     
  5755                           ;mcc_generated_files/ext_int.c: 98:     if(INT2_InterruptHandler)
  5756   001136  503C               	movf	_INT2_InterruptHandler^(0+1280),w,c
  5757   001138  103D               	iorwf	(_INT2_InterruptHandler+1)^(0+1280),w,c
  5758   00113A  103E               	iorwf	(_INT2_InterruptHandler+2)^(0+1280),w,c
  5759   00113C  B4D8               	btfsc	status,2,c
  5760   00113E  EFA3  F008         	goto	i2u16_41
  5761   001142  EFA5  F008         	goto	i2u16_40
  5762   001146                     i2u16_41:
  5763   001146  EFB2  F008         	goto	i2l203
  5764   00114A                     i2u16_40:
  5765   00114A                     
  5766                           ;mcc_generated_files/ext_int.c: 99:     {;mcc_generated_files/ext_int.c: 100:         IN
      +                          T2_InterruptHandler();
  5767   00114A  D802               	call	i2u17_48
  5768   00114C  EFB2  F008         	goto	i2u17_49
  5769   001150                     i2u17_48:
  5770   001150  0005               	push	
  5771   001152  6EFA               	movwf	pclath,c
  5772   001154  503C               	movf	_INT2_InterruptHandler^(0+1280),w,c
  5773   001156  6EFD               	movwf	tosl,c
  5774   001158  503D               	movf	(_INT2_InterruptHandler+1)^(0+1280),w,c
  5775   00115A  6EFE               	movwf	tosh,c
  5776   00115C  503E               	movf	(_INT2_InterruptHandler+2)^(0+1280),w,c
  5777   00115E  6EFF               	movwf	tosu,c
  5778   001160  50FA               	movf	pclath,w,c
  5779   001162  0012               	return		;indir
  5780   001164                     i2u17_49:
  5781   001164                     i2l203:
  5782   001164  0012               	return		;funcret
  5783   001166                     __end_of_INT2_CallBack:
  5784                           	callstack 0
  5785                           
  5786 ;; *************** function _INT2_DefaultInterruptHandler *****************
  5787 ;; Defined at:
  5788 ;;		line 108 in file "mcc_generated_files/ext_int.c"
  5789 ;; Parameters:    Size  Location     Type
  5790 ;;		None
  5791 ;; Auto vars:     Size  Location     Type
  5792 ;;		None
  5793 ;; Return value:  Size  Location     Type
  5794 ;;                  1    wreg      void 
  5795 ;; Registers used:
  5796 ;;		None
  5797 ;; Tracked objects:
  5798 ;;		On entry : 0/0
  5799 ;;		On exit  : 0/0
  5800 ;;		Unchanged: 0/0
  5801 ;; Data sizes:     COMRAM   BANK5   BANK6   BANK7   BANK8   BANK9  BANK10  BANK11  BANK12  BANK13  BANK14  BANK15  BANK1
      +6  BANK17  BANK18  BANK19  BANK20  BANK21  BANK22  BANK23  BANK24  BANK25  BANK26  BANK27  BANK28  BANK29  BANK30  BANK3
      +1  BANK32  BANK33  BANK34  BANK35  BANK36
  5802 ;;      Params:         0       0       0       0       0       0       0       0       0       0       0       0       
      +0       0       0       0       0       0       0       0       0       0       0       0       0       0       0       
      +0       0       0       0       0       0
  5803 ;;      Locals:         0       0       0       0       0       0       0       0       0       0       0       0       
      +0       0       0       0       0       0       0       0       0       0       0       0       0       0       0       
      +0       0       0       0       0       0
  5804 ;;      Temps:          0       0       0       0       0       0       0       0       0       0       0       0       
      +0       0       0       0       0       0       0       0       0       0       0       0       0       0       0       
      +0       0       0       0       0       0
  5805 ;;      Totals:         0       0       0       0       0       0       0       0       0       0       0       0       
      +0       0       0       0       0       0       0       0       0       0       0       0       0       0       0       
      +0       0       0       0       0       0
  5806 ;;Total ram usage:        0 bytes
  5807 ;; Hardware stack levels used: 1
  5808 ;; This function calls:
  5809 ;;		Nothing
  5810 ;; This function is called by:
  5811 ;;		_EXT_INT_Initialize
  5812 ;;		_INT2_CallBack
  5813 ;; This function uses a non-reentrant model
  5814 ;;
  5815                           
  5816                           	psect	text51
  5817   00140A                     __ptext51:
  5818                           	callstack 0
  5819   00140A                     _INT2_DefaultInterruptHandler:
  5820                           	callstack 120
  5821   00140A  0012               	return		;funcret
  5822   00140C                     __end_of_INT2_DefaultInterruptHandler:
  5823                           	callstack 0
  5824                           
  5825 ;; *************** function _INT1_ISR *****************
  5826 ;; Defined at:
  5827 ;;		line 60 in file "mcc_generated_files/ext_int.c"
  5828 ;; Parameters:    Size  Location     Type
  5829 ;;		None
  5830 ;; Auto vars:     Size  Location     Type
  5831 ;;		None
  5832 ;; Return value:  Size  Location     Type
  5833 ;;                  1    wreg      void 
  5834 ;; Registers used:
  5835 ;;		wreg, status,2, status,0, pcl, pclath, pclatu, tosl, cstack
  5836 ;; Tracked objects:
  5837 ;;		On entry : 0/0
  5838 ;;		On exit  : 0/0
  5839 ;;		Unchanged: 0/0
  5840 ;; Data sizes:     COMRAM   BANK5   BANK6   BANK7   BANK8   BANK9  BANK10  BANK11  BANK12  BANK13  BANK14  BANK15  BANK1
      +6  BANK17  BANK18  BANK19  BANK20  BANK21  BANK22  BANK23  BANK24  BANK25  BANK26  BANK27  BANK28  BANK29  BANK30  BANK3
      +1  BANK32  BANK33  BANK34  BANK35  BANK36
  5841 ;;      Params:         0       0       0       0       0       0       0       0       0       0       0       0       
      +0       0       0       0       0       0       0       0       0       0       0       0       0       0       0       
      +0       0       0       0       0       0
  5842 ;;      Locals:         0       0       0       0       0       0       0       0       0       0       0       0       
      +0       0       0       0       0       0       0       0       0       0       0       0       0       0       0       
      +0       0       0       0       0       0
  5843 ;;      Temps:          0       0       0       0       0       0       0       0       0       0       0       0       
      +0       0       0       0       0       0       0       0       0       0       0       0       0       0       0       
      +0       0       0       0       0       0
  5844 ;;      Totals:         0       0       0       0       0       0       0       0       0       0       0       0       
      +0       0       0       0       0       0       0       0       0       0       0       0       0       0       0       
      +0       0       0       0       0       0
  5845 ;;Total ram usage:        0 bytes
  5846 ;; Hardware stack levels used: 1
  5847 ;; Hardware stack levels required when called: 2
  5848 ;; This function calls:
  5849 ;;		_INT1_CallBack
  5850 ;; This function is called by:
  5851 ;;		_INTERRUPT_InterruptManager
  5852 ;; This function uses a non-reentrant model
  5853 ;;
  5854                           
  5855                           	psect	text52
  5856   0013E4                     __ptext52:
  5857                           	callstack 0
  5858   0013E4                     _INT1_ISR:
  5859                           	callstack 120
  5860   0013E4                     
  5861                           ;mcc_generated_files/ext_int.c: 62:     (PIR6bits.INT1IF = 0);
  5862   0013E4  90B4               	bcf	180,0,c	;volatile
  5863   0013E6                     
  5864                           ;mcc_generated_files/ext_int.c: 65:     INT1_CallBack();
  5865   0013E6  ECB3  F008         	call	_INT1_CallBack	;wreg free
  5866   0013EA  0012               	return		;funcret
  5867   0013EC                     __end_of_INT1_ISR:
  5868                           	callstack 0
  5869                           
  5870 ;; *************** function _INT1_CallBack *****************
  5871 ;; Defined at:
  5872 ;;		line 69 in file "mcc_generated_files/ext_int.c"
  5873 ;; Parameters:    Size  Location     Type
  5874 ;;		None
  5875 ;; Auto vars:     Size  Location     Type
  5876 ;;		None
  5877 ;; Return value:  Size  Location     Type
  5878 ;;                  1    wreg      void 
  5879 ;; Registers used:
  5880 ;;		wreg, status,2, status,0, pcl, pclath, pclatu, tosl, cstack
  5881 ;; Tracked objects:
  5882 ;;		On entry : 0/0
  5883 ;;		On exit  : 0/0
  5884 ;;		Unchanged: 0/0
  5885 ;; Data sizes:     COMRAM   BANK5   BANK6   BANK7   BANK8   BANK9  BANK10  BANK11  BANK12  BANK13  BANK14  BANK15  BANK1
      +6  BANK17  BANK18  BANK19  BANK20  BANK21  BANK22  BANK23  BANK24  BANK25  BANK26  BANK27  BANK28  BANK29  BANK30  BANK3
      +1  BANK32  BANK33  BANK34  BANK35  BANK36
  5886 ;;      Params:         0       0       0       0       0       0       0       0       0       0       0       0       
      +0       0       0       0       0       0       0       0       0       0       0       0       0       0       0       
      +0       0       0       0       0       0
  5887 ;;      Locals:         0       0       0       0       0       0       0       0       0       0       0       0       
      +0       0       0       0       0       0       0       0       0       0       0       0       0       0       0       
      +0       0       0       0       0       0
  5888 ;;      Temps:          0       0       0       0       0       0       0       0       0       0       0       0       
      +0       0       0       0       0       0       0       0       0       0       0       0       0       0       0       
      +0       0       0       0       0       0
  5889 ;;      Totals:         0       0       0       0       0       0       0       0       0       0       0       0       
      +0       0       0       0       0       0       0       0       0       0       0       0       0       0       0       
      +0       0       0       0       0       0
  5890 ;;Total ram usage:        0 bytes
  5891 ;; Hardware stack levels used: 1
  5892 ;; Hardware stack levels required when called: 1
  5893 ;; This function calls:
  5894 ;;		Absolute function
  5895 ;;		_INT1_DefaultInterruptHandler
  5896 ;; This function is called by:
  5897 ;;		_INT1_ISR
  5898 ;; This function uses a non-reentrant model
  5899 ;;
  5900                           
  5901                           	psect	text53
  5902   001166                     __ptext53:
  5903                           	callstack 0
  5904   001166                     _INT1_CallBack:
  5905                           	callstack 120
  5906   001166                     
  5907                           ;mcc_generated_files/ext_int.c: 72:     if(INT1_InterruptHandler)
  5908   001166  503F               	movf	_INT1_InterruptHandler^(0+1280),w,c
  5909   001168  1040               	iorwf	(_INT1_InterruptHandler+1)^(0+1280),w,c
  5910   00116A  1041               	iorwf	(_INT1_InterruptHandler+2)^(0+1280),w,c
  5911   00116C  B4D8               	btfsc	status,2,c
  5912   00116E  EFBB  F008         	goto	i2u14_41
  5913   001172  EFBD  F008         	goto	i2u14_40
  5914   001176                     i2u14_41:
  5915   001176  EFCA  F008         	goto	i2l190
  5916   00117A                     i2u14_40:
  5917   00117A                     
  5918                           ;mcc_generated_files/ext_int.c: 73:     {;mcc_generated_files/ext_int.c: 74:         INT
      +                          1_InterruptHandler();
  5919   00117A  D802               	call	i2u15_48
  5920   00117C  EFCA  F008         	goto	i2u15_49
  5921   001180                     i2u15_48:
  5922   001180  0005               	push	
  5923   001182  6EFA               	movwf	pclath,c
  5924   001184  503F               	movf	_INT1_InterruptHandler^(0+1280),w,c
  5925   001186  6EFD               	movwf	tosl,c
  5926   001188  5040               	movf	(_INT1_InterruptHandler+1)^(0+1280),w,c
  5927   00118A  6EFE               	movwf	tosh,c
  5928   00118C  5041               	movf	(_INT1_InterruptHandler+2)^(0+1280),w,c
  5929   00118E  6EFF               	movwf	tosu,c
  5930   001190  50FA               	movf	pclath,w,c
  5931   001192  0012               	return		;indir
  5932   001194                     i2u15_49:
  5933   001194                     i2l190:
  5934   001194  0012               	return		;funcret
  5935   001196                     __end_of_INT1_CallBack:
  5936                           	callstack 0
  5937                           
  5938 ;; *************** function _INT1_DefaultInterruptHandler *****************
  5939 ;; Defined at:
  5940 ;;		line 82 in file "mcc_generated_files/ext_int.c"
  5941 ;; Parameters:    Size  Location     Type
  5942 ;;		None
  5943 ;; Auto vars:     Size  Location     Type
  5944 ;;		None
  5945 ;; Return value:  Size  Location     Type
  5946 ;;                  1    wreg      void 
  5947 ;; Registers used:
  5948 ;;		None
  5949 ;; Tracked objects:
  5950 ;;		On entry : 0/0
  5951 ;;		On exit  : 0/0
  5952 ;;		Unchanged: 0/0
  5953 ;; Data sizes:     COMRAM   BANK5   BANK6   BANK7   BANK8   BANK9  BANK10  BANK11  BANK12  BANK13  BANK14  BANK15  BANK1
      +6  BANK17  BANK18  BANK19  BANK20  BANK21  BANK22  BANK23  BANK24  BANK25  BANK26  BANK27  BANK28  BANK29  BANK30  BANK3
      +1  BANK32  BANK33  BANK34  BANK35  BANK36
  5954 ;;      Params:         0       0       0       0       0       0       0       0       0       0       0       0       
      +0       0       0       0       0       0       0       0       0       0       0       0       0       0       0       
      +0       0       0       0       0       0
  5955 ;;      Locals:         0       0       0       0       0       0       0       0       0       0       0       0       
      +0       0       0       0       0       0       0       0       0       0       0       0       0       0       0       
      +0       0       0       0       0       0
  5956 ;;      Temps:          0       0       0       0       0       0       0       0       0       0       0       0       
      +0       0       0       0       0       0       0       0       0       0       0       0       0       0       0       
      +0       0       0       0       0       0
  5957 ;;      Totals:         0       0       0       0       0       0       0       0       0       0       0       0       
      +0       0       0       0       0       0       0       0       0       0       0       0       0       0       0       
      +0       0       0       0       0       0
  5958 ;;Total ram usage:        0 bytes
  5959 ;; Hardware stack levels used: 1
  5960 ;; This function calls:
  5961 ;;		Nothing
  5962 ;; This function is called by:
  5963 ;;		_EXT_INT_Initialize
  5964 ;;		_INT1_CallBack
  5965 ;; This function uses a non-reentrant model
  5966 ;;
  5967                           
  5968                           	psect	text54
  5969   00140C                     __ptext54:
  5970                           	callstack 0
  5971   00140C                     _INT1_DefaultInterruptHandler:
  5972                           	callstack 120
  5973   00140C  0012               	return		;funcret
  5974   00140E                     __end_of_INT1_DefaultInterruptHandler:
  5975                           	callstack 0
  5976                           
  5977 ;; *************** function _INT0_ISR *****************
  5978 ;; Defined at:
  5979 ;;		line 34 in file "mcc_generated_files/ext_int.c"
  5980 ;; Parameters:    Size  Location     Type
  5981 ;;		None
  5982 ;; Auto vars:     Size  Location     Type
  5983 ;;		None
  5984 ;; Return value:  Size  Location     Type
  5985 ;;                  1    wreg      void 
  5986 ;; Registers used:
  5987 ;;		wreg, status,2, status,0, pcl, pclath, pclatu, tosl, cstack
  5988 ;; Tracked objects:
  5989 ;;		On entry : 0/0
  5990 ;;		On exit  : 0/0
  5991 ;;		Unchanged: 0/0
  5992 ;; Data sizes:     COMRAM   BANK5   BANK6   BANK7   BANK8   BANK9  BANK10  BANK11  BANK12  BANK13  BANK14  BANK15  BANK1
      +6  BANK17  BANK18  BANK19  BANK20  BANK21  BANK22  BANK23  BANK24  BANK25  BANK26  BANK27  BANK28  BANK29  BANK30  BANK3
      +1  BANK32  BANK33  BANK34  BANK35  BANK36
  5993 ;;      Params:         0       0       0       0       0       0       0       0       0       0       0       0       
      +0       0       0       0       0       0       0       0       0       0       0       0       0       0       0       
      +0       0       0       0       0       0
  5994 ;;      Locals:         0       0       0       0       0       0       0       0       0       0       0       0       
      +0       0       0       0       0       0       0       0       0       0       0       0       0       0       0       
      +0       0       0       0       0       0
  5995 ;;      Temps:          0       0       0       0       0       0       0       0       0       0       0       0       
      +0       0       0       0       0       0       0       0       0       0       0       0       0       0       0       
      +0       0       0       0       0       0
  5996 ;;      Totals:         0       0       0       0       0       0       0       0       0       0       0       0       
      +0       0       0       0       0       0       0       0       0       0       0       0       0       0       0       
      +0       0       0       0       0       0
  5997 ;;Total ram usage:        0 bytes
  5998 ;; Hardware stack levels used: 1
  5999 ;; Hardware stack levels required when called: 2
  6000 ;; This function calls:
  6001 ;;		_INT0_CallBack
  6002 ;; This function is called by:
  6003 ;;		_INTERRUPT_InterruptManager
  6004 ;; This function uses a non-reentrant model
  6005 ;;
  6006                           
  6007                           	psect	text55
  6008   0013EC                     __ptext55:
  6009                           	callstack 0
  6010   0013EC                     _INT0_ISR:
  6011                           	callstack 120
  6012   0013EC                     
  6013                           ;mcc_generated_files/ext_int.c: 36:     (PIR1bits.INT0IF = 0);
  6014   0013EC  90AF               	bcf	175,0,c	;volatile
  6015   0013EE                     
  6016                           ;mcc_generated_files/ext_int.c: 39:     INT0_CallBack();
  6017   0013EE  ECCB  F008         	call	_INT0_CallBack	;wreg free
  6018   0013F2  0012               	return		;funcret
  6019   0013F4                     __end_of_INT0_ISR:
  6020                           	callstack 0
  6021                           
  6022 ;; *************** function _INT0_CallBack *****************
  6023 ;; Defined at:
  6024 ;;		line 43 in file "mcc_generated_files/ext_int.c"
  6025 ;; Parameters:    Size  Location     Type
  6026 ;;		None
  6027 ;; Auto vars:     Size  Location     Type
  6028 ;;		None
  6029 ;; Return value:  Size  Location     Type
  6030 ;;                  1    wreg      void 
  6031 ;; Registers used:
  6032 ;;		wreg, status,2, status,0, pcl, pclath, pclatu, tosl, cstack
  6033 ;; Tracked objects:
  6034 ;;		On entry : 0/0
  6035 ;;		On exit  : 0/0
  6036 ;;		Unchanged: 0/0
  6037 ;; Data sizes:     COMRAM   BANK5   BANK6   BANK7   BANK8   BANK9  BANK10  BANK11  BANK12  BANK13  BANK14  BANK15  BANK1
      +6  BANK17  BANK18  BANK19  BANK20  BANK21  BANK22  BANK23  BANK24  BANK25  BANK26  BANK27  BANK28  BANK29  BANK30  BANK3
      +1  BANK32  BANK33  BANK34  BANK35  BANK36
  6038 ;;      Params:         0       0       0       0       0       0       0       0       0       0       0       0       
      +0       0       0       0       0       0       0       0       0       0       0       0       0       0       0       
      +0       0       0       0       0       0
  6039 ;;      Locals:         0       0       0       0       0       0       0       0       0       0       0       0       
      +0       0       0       0       0       0       0       0       0       0       0       0       0       0       0       
      +0       0       0       0       0       0
  6040 ;;      Temps:          0       0       0       0       0       0       0       0       0       0       0       0       
      +0       0       0       0       0       0       0       0       0       0       0       0       0       0       0       
      +0       0       0       0       0       0
  6041 ;;      Totals:         0       0       0       0       0       0       0       0       0       0       0       0       
      +0       0       0       0       0       0       0       0       0       0       0       0       0       0       0       
      +0       0       0       0       0       0
  6042 ;;Total ram usage:        0 bytes
  6043 ;; Hardware stack levels used: 1
  6044 ;; Hardware stack levels required when called: 1
  6045 ;; This function calls:
  6046 ;;		Absolute function
  6047 ;;		_INT0_DefaultInterruptHandler
  6048 ;; This function is called by:
  6049 ;;		_INT0_ISR
  6050 ;; This function uses a non-reentrant model
  6051 ;;
  6052                           
  6053                           	psect	text56
  6054   001196                     __ptext56:
  6055                           	callstack 0
  6056   001196                     _INT0_CallBack:
  6057                           	callstack 120
  6058   001196                     
  6059                           ;mcc_generated_files/ext_int.c: 46:     if(INT0_InterruptHandler)
  6060   001196  5042               	movf	_INT0_InterruptHandler^(0+1280),w,c
  6061   001198  1043               	iorwf	(_INT0_InterruptHandler+1)^(0+1280),w,c
  6062   00119A  1044               	iorwf	(_INT0_InterruptHandler+2)^(0+1280),w,c
  6063   00119C  B4D8               	btfsc	status,2,c
  6064   00119E  EFD3  F008         	goto	i2u12_41
  6065   0011A2  EFD5  F008         	goto	i2u12_40
  6066   0011A6                     i2u12_41:
  6067   0011A6  EFE2  F008         	goto	i2l177
  6068   0011AA                     i2u12_40:
  6069   0011AA                     
  6070                           ;mcc_generated_files/ext_int.c: 47:     {;mcc_generated_files/ext_int.c: 48:         INT
      +                          0_InterruptHandler();
  6071   0011AA  D802               	call	i2u13_48
  6072   0011AC  EFE2  F008         	goto	i2u13_49
  6073   0011B0                     i2u13_48:
  6074   0011B0  0005               	push	
  6075   0011B2  6EFA               	movwf	pclath,c
  6076   0011B4  5042               	movf	_INT0_InterruptHandler^(0+1280),w,c
  6077   0011B6  6EFD               	movwf	tosl,c
  6078   0011B8  5043               	movf	(_INT0_InterruptHandler+1)^(0+1280),w,c
  6079   0011BA  6EFE               	movwf	tosh,c
  6080   0011BC  5044               	movf	(_INT0_InterruptHandler+2)^(0+1280),w,c
  6081   0011BE  6EFF               	movwf	tosu,c
  6082   0011C0  50FA               	movf	pclath,w,c
  6083   0011C2  0012               	return		;indir
  6084   0011C4                     i2u13_49:
  6085   0011C4                     i2l177:
  6086   0011C4  0012               	return		;funcret
  6087   0011C6                     __end_of_INT0_CallBack:
  6088                           	callstack 0
  6089                           
  6090 ;; *************** function _INT0_DefaultInterruptHandler *****************
  6091 ;; Defined at:
  6092 ;;		line 56 in file "mcc_generated_files/ext_int.c"
  6093 ;; Parameters:    Size  Location     Type
  6094 ;;		None
  6095 ;; Auto vars:     Size  Location     Type
  6096 ;;		None
  6097 ;; Return value:  Size  Location     Type
  6098 ;;                  1    wreg      void 
  6099 ;; Registers used:
  6100 ;;		None
  6101 ;; Tracked objects:
  6102 ;;		On entry : 0/0
  6103 ;;		On exit  : 0/0
  6104 ;;		Unchanged: 0/0
  6105 ;; Data sizes:     COMRAM   BANK5   BANK6   BANK7   BANK8   BANK9  BANK10  BANK11  BANK12  BANK13  BANK14  BANK15  BANK1
      +6  BANK17  BANK18  BANK19  BANK20  BANK21  BANK22  BANK23  BANK24  BANK25  BANK26  BANK27  BANK28  BANK29  BANK30  BANK3
      +1  BANK32  BANK33  BANK34  BANK35  BANK36
  6106 ;;      Params:         0       0       0       0       0       0       0       0       0       0       0       0       
      +0       0       0       0       0       0       0       0       0       0       0       0       0       0       0       
      +0       0       0       0       0       0
  6107 ;;      Locals:         0       0       0       0       0       0       0       0       0       0       0       0       
      +0       0       0       0       0       0       0       0       0       0       0       0       0       0       0       
      +0       0       0       0       0       0
  6108 ;;      Temps:          0       0       0       0       0       0       0       0       0       0       0       0       
      +0       0       0       0       0       0       0       0       0       0       0       0       0       0       0       
      +0       0       0       0       0       0
  6109 ;;      Totals:         0       0       0       0       0       0       0       0       0       0       0       0       
      +0       0       0       0       0       0       0       0       0       0       0       0       0       0       0       
      +0       0       0       0       0       0
  6110 ;;Total ram usage:        0 bytes
  6111 ;; Hardware stack levels used: 1
  6112 ;; This function calls:
  6113 ;;		Nothing
  6114 ;; This function is called by:
  6115 ;;		_EXT_INT_Initialize
  6116 ;;		_INT0_CallBack
  6117 ;; This function uses a non-reentrant model
  6118 ;;
  6119                           
  6120                           	psect	text57
  6121   00140E                     __ptext57:
  6122                           	callstack 0
  6123   00140E                     _INT0_DefaultInterruptHandler:
  6124                           	callstack 120
  6125   00140E  0012               	return		;funcret
  6126   001410                     __end_of_INT0_DefaultInterruptHandler:
  6127                           	callstack 0
  6128                           
  6129                           ;
  6130                           ; Interrupt Vector Table @ 0x8
  6131                           ;
  6132                           
  6133                           	psect	ivt0x8
  6134   000008                     __pivt0x8:
  6135                           	callstack 0
  6136   000008                     ivt0x8_base:
  6137                           	callstack 0
  6138                           
  6139                           ; high-priority vector
  6140   000008  EF71  F007         	goto	_INTERRUPT_InterruptManager
  6141   000018                     	org	16
  6142                           
  6143                           ; low-priority vector
  6144   000018  00FF               	reset	
  6145   000000                     
  6146                           	psect	text58
  6147   000000                     __ptext58:
  6148                           	callstack 0
  6149   000000                     
  6150                           	psect	rparam
  6151   000000                     
  6152                           	psect	idloc
  6153                           
  6154                           ;Config register IDLOC0 @ 0x200000
  6155                           ;	unspecified, using default values
  6156   200000                     	org	2097152
  6157   200000  0FFF               	dw	4095
  6158                           
  6159                           ;Config register IDLOC1 @ 0x200002
  6160                           ;	unspecified, using default values
  6161   200002                     	org	2097154
  6162   200002  0FFF               	dw	4095
  6163                           
  6164                           ;Config register IDLOC2 @ 0x200004
  6165                           ;	unspecified, using default values
  6166   200004                     	org	2097156
  6167   200004  0FFF               	dw	4095
  6168                           
  6169                           ;Config register IDLOC3 @ 0x200006
  6170                           ;	unspecified, using default values
  6171   200006                     	org	2097158
  6172   200006  0FFF               	dw	4095
  6173                           
  6174                           ;Config register IDLOC4 @ 0x200008
  6175                           ;	unspecified, using default values
  6176   200008                     	org	2097160
  6177   200008  0FFF               	dw	4095
  6178                           
  6179                           ;Config register IDLOC5 @ 0x20000A
  6180                           ;	unspecified, using default values
  6181   20000A                     	org	2097162
  6182   20000A  0FFF               	dw	4095
  6183                           
  6184                           ;Config register IDLOC6 @ 0x20000C
  6185                           ;	unspecified, using default values
  6186   20000C                     	org	2097164
  6187   20000C  0FFF               	dw	4095
  6188                           
  6189                           ;Config register IDLOC7 @ 0x20000E
  6190                           ;	unspecified, using default values
  6191   20000E                     	org	2097166
  6192   20000E  0FFF               	dw	4095
  6193                           
  6194                           ;Config register IDLOC8 @ 0x200010
  6195                           ;	unspecified, using default values
  6196   200010                     	org	2097168
  6197   200010  0FFF               	dw	4095
  6198                           
  6199                           ;Config register IDLOC9 @ 0x200012
  6200                           ;	unspecified, using default values
  6201   200012                     	org	2097170
  6202   200012  0FFF               	dw	4095
  6203                           
  6204                           ;Config register IDLOC10 @ 0x200014
  6205                           ;	unspecified, using default values
  6206   200014                     	org	2097172
  6207   200014  0FFF               	dw	4095
  6208                           
  6209                           ;Config register IDLOC11 @ 0x200016
  6210                           ;	unspecified, using default values
  6211   200016                     	org	2097174
  6212   200016  0FFF               	dw	4095
  6213                           
  6214                           ;Config register IDLOC12 @ 0x200018
  6215                           ;	unspecified, using default values
  6216   200018                     	org	2097176
  6217   200018  0FFF               	dw	4095
  6218                           
  6219                           ;Config register IDLOC13 @ 0x20001A
  6220                           ;	unspecified, using default values
  6221   20001A                     	org	2097178
  6222   20001A  0FFF               	dw	4095
  6223                           
  6224                           ;Config register IDLOC14 @ 0x20001C
  6225                           ;	unspecified, using default values
  6226   20001C                     	org	2097180
  6227   20001C  0FFF               	dw	4095
  6228                           
  6229                           ;Config register IDLOC15 @ 0x20001E
  6230                           ;	unspecified, using default values
  6231   20001E                     	org	2097182
  6232   20001E  0FFF               	dw	4095
  6233                           
  6234                           ;Config register IDLOC16 @ 0x200020
  6235                           ;	unspecified, using default values
  6236   200020                     	org	2097184
  6237   200020  0FFF               	dw	4095
  6238                           
  6239                           ;Config register IDLOC17 @ 0x200022
  6240                           ;	unspecified, using default values
  6241   200022                     	org	2097186
  6242   200022  0FFF               	dw	4095
  6243                           
  6244                           ;Config register IDLOC18 @ 0x200024
  6245                           ;	unspecified, using default values
  6246   200024                     	org	2097188
  6247   200024  0FFF               	dw	4095
  6248                           
  6249                           ;Config register IDLOC19 @ 0x200026
  6250                           ;	unspecified, using default values
  6251   200026                     	org	2097190
  6252   200026  0FFF               	dw	4095
  6253                           
  6254                           ;Config register IDLOC20 @ 0x200028
  6255                           ;	unspecified, using default values
  6256   200028                     	org	2097192
  6257   200028  0FFF               	dw	4095
  6258                           
  6259                           ;Config register IDLOC21 @ 0x20002A
  6260                           ;	unspecified, using default values
  6261   20002A                     	org	2097194
  6262   20002A  0FFF               	dw	4095
  6263                           
  6264                           ;Config register IDLOC22 @ 0x20002C
  6265                           ;	unspecified, using default values
  6266   20002C                     	org	2097196
  6267   20002C  0FFF               	dw	4095
  6268                           
  6269                           ;Config register IDLOC23 @ 0x20002E
  6270                           ;	unspecified, using default values
  6271   20002E                     	org	2097198
  6272   20002E  0FFF               	dw	4095
  6273                           
  6274                           ;Config register IDLOC24 @ 0x200030
  6275                           ;	unspecified, using default values
  6276   200030                     	org	2097200
  6277   200030  0FFF               	dw	4095
  6278                           
  6279                           ;Config register IDLOC25 @ 0x200032
  6280                           ;	unspecified, using default values
  6281   200032                     	org	2097202
  6282   200032  0FFF               	dw	4095
  6283                           
  6284                           ;Config register IDLOC26 @ 0x200034
  6285                           ;	unspecified, using default values
  6286   200034                     	org	2097204
  6287   200034  0FFF               	dw	4095
  6288                           
  6289                           ;Config register IDLOC27 @ 0x200036
  6290                           ;	unspecified, using default values
  6291   200036                     	org	2097206
  6292   200036  0FFF               	dw	4095
  6293                           
  6294                           ;Config register IDLOC28 @ 0x200038
  6295                           ;	unspecified, using default values
  6296   200038                     	org	2097208
  6297   200038  0FFF               	dw	4095
  6298                           
  6299                           ;Config register IDLOC29 @ 0x20003A
  6300                           ;	unspecified, using default values
  6301   20003A                     	org	2097210
  6302   20003A  0FFF               	dw	4095
  6303                           
  6304                           ;Config register IDLOC30 @ 0x20003C
  6305                           ;	unspecified, using default values
  6306   20003C                     	org	2097212
  6307   20003C  0FFF               	dw	4095
  6308                           
  6309                           ;Config register IDLOC31 @ 0x20003E
  6310                           ;	unspecified, using default values
  6311   20003E                     	org	2097214
  6312   20003E  0FFF               	dw	4095
  6313                           
  6314                           	psect	config
  6315                           
  6316                           ;Config register CONFIG1 @ 0x300000
  6317                           ;	External Oscillator Selection
  6318                           ;	FEXTOSC = OFF, Oscillator not enabled
  6319                           ;	Reset Oscillator Selection
  6320                           ;	RSTOSC = HFINTOSC_64MHZ, HFINTOSC with HFFRQ = 64 MHz and CDIV = 1:1
  6321   300000                     	org	3145728
  6322   300000  8C                 	db	140
  6323                           
  6324                           ;Config register CONFIG2 @ 0x300001
  6325                           ;	Clock out Enable bit
  6326                           ;	CLKOUTEN = OFF, CLKOUT function is disabled
  6327                           ;	PRLOCKED One-Way Set Enable bit
  6328                           ;	PR1WAY = ON, PRLOCKED bit can be cleared and set only once
  6329                           ;	Clock Switch Enable bit
  6330                           ;	CSWEN = ON, Writing to NOSC and NDIV is allowed
  6331                           ;	Fail-Safe Clock Monitor Enable bit
  6332                           ;	FCMEN = ON, Fail-Safe Clock Monitor enabled
  6333   300001                     	org	3145729
  6334   300001  FF                 	db	255
  6335                           
  6336                           ;Config register CONFIG3 @ 0x300002
  6337                           ;	MCLR Enable bit
  6338                           ;	MCLRE = EXTMCLR, If LVP = 0, MCLR pin is MCLR; If LVP = 1, RE3 pin function is MCLR
  6339                           ;	Power-up timer selection bits
  6340                           ;	PWRTS = PWRT_OFF, PWRT is disabled
  6341                           ;	Multi-vector enable bit
  6342                           ;	MVECEN = OFF, Interrupt contoller does not use vector table to prioritze interrupts
  6343                           ;	IVTLOCK bit One-way set enable bit
  6344                           ;	IVT1WAY = ON, IVTLOCKED bit can be cleared and set only once
  6345                           ;	Low Power BOR Enable bit
  6346                           ;	LPBOREN = OFF, Low-Power BOR disabled
  6347                           ;	Brown-out Reset Enable bits
  6348                           ;	BOREN = SBORDIS, Brown-out Reset enabled , SBOREN bit is ignored
  6349   300002                     	org	3145730
  6350   300002  F7                 	db	247
  6351                           
  6352                           ;Config register CONFIG4 @ 0x300003
  6353                           ;	Brown-out Reset Voltage Selection bits
  6354                           ;	BORV = VBOR_1P9, Brown-out Reset Voltage (VBOR) set to 1.9V
  6355                           ;	ZCD Disable bit
  6356                           ;	ZCD = OFF, ZCD module is disabled. ZCD can be enabled by setting the ZCDSEN bit of ZCD
      +                          CON
  6357                           ;	PPSLOCK bit One-Way Set Enable bit
  6358                           ;	PPS1WAY = ON, PPSLOCKED bit can be cleared and set only once; PPS registers remain loc
      +                          ked after one clear/set cycle
  6359                           ;	Stack Full/Underflow Reset Enable bit
  6360                           ;	STVREN = ON, Stack full/underflow will cause Reset
  6361                           ;	Low Voltage Programming Enable bit
  6362                           ;	LVP = ON, Low voltage programming enabled. MCLR/VPP pin function is MCLR. MCLRE config
      +                          uration bit is ignored
  6363                           ;	Extended Instruction Set Enable bit
  6364                           ;	XINST = OFF, Extended Instruction Set and Indexed Addressing Mode disabled
  6365   300003                     	org	3145731
  6366   300003  FF                 	db	255
  6367                           
  6368                           ;Config register CONFIG5 @ 0x300004
  6369                           ;	WDT Period selection bits
  6370                           ;	WDTCPS = WDTCPS_31, Divider ratio 1:65536; software control of WDTPS
  6371                           ;	WDT operating mode
  6372                           ;	WDTE = OFF, WDT Disabled; SWDTEN is ignored
  6373   300004                     	org	3145732
  6374   300004  9F                 	db	159
  6375                           
  6376                           ;Config register CONFIG6 @ 0x300005
  6377                           ;	WDT Window Select bits
  6378                           ;	WDTCWS = WDTCWS_7, window always open (100%); software control; keyed access not requi
      +                          red
  6379                           ;	WDT input clock selector
  6380                           ;	WDTCCS = SC, Software Control
  6381   300005                     	org	3145733
  6382   300005  FF                 	db	255
  6383                           
  6384                           ;Config register CONFIG7 @ 0x300006
  6385                           ;	Boot Block Size selection bits
  6386                           ;	BBSIZE = BBSIZE_512, Boot Block size is 512 words
  6387                           ;	Boot Block enable bit
  6388                           ;	BBEN = OFF, Boot block disabled
  6389                           ;	Storage Area Flash enable bit
  6390                           ;	SAFEN = OFF, SAF disabled
  6391                           ;	Background Debugger
  6392                           ;	DEBUG = OFF, Background Debugger disabled
  6393   300006                     	org	3145734
  6394   300006  FF                 	db	255
  6395                           
  6396                           ;Config register CONFIG8 @ 0x300007
  6397                           ;	Boot Block Write Protection bit
  6398                           ;	WRTB = OFF, Boot Block not Write protected
  6399                           ;	Configuration Register Write Protection bit
  6400                           ;	WRTC = OFF, Configuration registers not Write protected
  6401                           ;	Data EEPROM Write Protection bit
  6402                           ;	WRTD = OFF, Data EEPROM not Write protected
  6403                           ;	SAF Write protection bit
  6404                           ;	WRTSAF = OFF, SAF not Write Protected
  6405                           ;	Application Block write protection bit
  6406                           ;	WRTAPP = OFF, Application Block not write protected
  6407   300007                     	org	3145735
  6408   300007  FF                 	db	255
  6409                           
  6410                           ; Padding undefined space
  6411   300008                     	org	3145736
  6412   300008  FF                 	db	255
  6413                           
  6414                           ;Config register CONFIG10 @ 0x300009
  6415                           ;	PFM and Data EEPROM Code Protection bit
  6416                           ;	CP = OFF, PFM and Data EEPROM code protection disabled
  6417   300009                     	org	3145737
  6418   300009  FF                 	db	255
  6419                           tosu	equ	0x4FF
  6420                           tosh	equ	0x4FE
  6421                           tosl	equ	0x4FD
  6422                           stkptr	equ	0x4FC
  6423                           pclatu	equ	0x4FB
  6424                           pclath	equ	0x4FA
  6425                           pcl	equ	0x4F9
  6426                           tblptru	equ	0x4F8
  6427                           tblptrh	equ	0x4F7
  6428                           tblptrl	equ	0x4F6
  6429                           tablat	equ	0x4F5
  6430                           prodh	equ	0x4F4
  6431                           prodl	equ	0x4F3
  6432                           indf0	equ	0x4EF
  6433                           postinc0	equ	0x4EE
  6434                           postdec0	equ	0x4ED
  6435                           preinc0	equ	0x4EC
  6436                           plusw0	equ	0x4EB
  6437                           fsr0h	equ	0x4EA
  6438                           fsr0l	equ	0x4E9
  6439                           wreg	equ	0x4E8
  6440                           indf1	equ	0x4E7
  6441                           postinc1	equ	0x4E6
  6442                           postdec1	equ	0x4E5
  6443                           preinc1	equ	0x4E4
  6444                           plusw1	equ	0x4E3
  6445                           fsr1h	equ	0x4E2
  6446                           fsr1l	equ	0x4E1
  6447                           bsr	equ	0x4E0
  6448                           indf2	equ	0x4DF
  6449                           postinc2	equ	0x4DE
  6450                           postdec2	equ	0x4DD
  6451                           preinc2	equ	0x4DC
  6452                           plusw2	equ	0x4DB
  6453                           fsr2h	equ	0x4DA
  6454                           fsr2l	equ	0x4D9
  6455                           status	equ	0x4D8

Data Sizes:
    Strings     0
    Constant    0
    Data        0
    BSS         2
    Persistent  27
    Stack       0

Auto Spaces:
    Space          Size  Autos    Used
    COMRAM           95     50      79
    BANK5           160      0       0
    BANK6           256      0       0
    BANK7           256      0       0
    BANK8           256      0       0
    BANK9           256      0       0
    BANK10          256      0       0
    BANK11          256      0       0
    BANK12          256      0       0
    BANK13          256      0       0
    BANK14          256      0       0
    BANK15          256      0       0
    BANK16          256      0       0
    BANK17          256      0       0
    BANK18          256      0       0
    BANK19          256      0       0
    BANK20          256      0       0
    BANK21          256      0       0
    BANK22          256      0       0
    BANK23          256      0       0
    BANK24          256      0       0
    BANK25          256      0       0
    BANK26          256      0       0
    BANK27          256      0       0
    BANK28          256      0       0
    BANK29          256      0       0
    BANK30          256      0       0
    BANK31          256      0       0
    BANK32          256      0       0
    BANK33          256      0       0
    BANK34          256      0       0
    BANK35          256      0       0
    BANK36          256      0       0

Pointer List with Targets:

    GetFromOtherPacket@Len	PTR int  size(2) Largest target is 2
		 -> main@DataLen(COMRAM[2]), 

    GetFromOtherPacket@Data	PTR unsigned char  size(2) Largest target is 16
		 -> main@Buff(COMRAM[16]), 

    GetFromOtherPacket@Cmd	PTR unsigned char  size(2) Largest target is 1
		 -> main@DCmd(COMRAM[1]), 

    GetFromOtherPacket@TargetDipSW	PTR unsigned char  size(2) Largest target is 1
		 -> main@TargetDipSW(COMRAM[1]), 

    DiliverOtherPacket@Data	PTR unsigned char  size(2) Largest target is 16
		 -> main@Buff(COMRAM[16]), 

    SendRPIPacket@Data	PTR unsigned char  size(2) Largest target is 16
		 -> main@Buff(COMRAM[16]), 

    GetRPIPacket@Len	PTR int  size(2) Largest target is 2
		 -> main@DataLen(COMRAM[2]), 

    GetRPIPacket@Data	PTR unsigned char  size(2) Largest target is 16
		 -> main@Buff(COMRAM[16]), 

    GetRPIPacket@Cmd	PTR unsigned char  size(2) Largest target is 1
		 -> main@Cmd(COMRAM[1]), 

    FPGA_SetBuff@data	PTR unsigned char  size(2) Largest target is 16
		 -> main@Buff(COMRAM[16]), 

    FPGA_GetBuff@data	PTR unsigned char  size(2) Largest target is 16
		 -> main@Buff(COMRAM[16]), 

    UART2_SetErrorHandler@interruptHandler	PTR FTN()void  size(3) Largest target is 1
		 -> UART2_DefaultErrorHandler(), 

    UART2_SetOverrunErrorHandler@interruptHandler	PTR FTN()void  size(3) Largest target is 1
		 -> UART2_DefaultOverrunErrorHandler(), 

    UART2_SetFramingErrorHandler@interruptHandler	PTR FTN()void  size(3) Largest target is 1
		 -> UART2_DefaultFramingErrorHandler(), 

    UART2_ErrorHandler	PTR FTN()void  size(3) Largest target is 1
		 -> UART2_DefaultErrorHandler(), Absolute function(), 

    UART2_OverrunErrorHandler	PTR FTN()void  size(3) Largest target is 1
		 -> UART2_DefaultOverrunErrorHandler(), Absolute function(), 

    UART2_FramingErrorHandler	PTR FTN()void  size(3) Largest target is 1
		 -> UART2_DefaultFramingErrorHandler(), Absolute function(), 

    INT2_SetInterruptHandler@InterruptHandler	PTR FTN()void  size(3) Largest target is 1
		 -> INT2_DefaultInterruptHandler(), 

    INT2_InterruptHandler	PTR FTN()void  size(3) Largest target is 1
		 -> INT2_DefaultInterruptHandler(), Absolute function(), 

    INT1_SetInterruptHandler@InterruptHandler	PTR FTN()void  size(3) Largest target is 1
		 -> INT1_DefaultInterruptHandler(), 

    INT1_InterruptHandler	PTR FTN()void  size(3) Largest target is 1
		 -> INT1_DefaultInterruptHandler(), Absolute function(), 

    INT0_SetInterruptHandler@InterruptHandler	PTR FTN()void  size(3) Largest target is 1
		 -> INT0_DefaultInterruptHandler(), 

    INT0_InterruptHandler	PTR FTN()void  size(3) Largest target is 1
		 -> INT0_DefaultInterruptHandler(), Absolute function(), 

    UART1_SetErrorHandler@interruptHandler	PTR FTN()void  size(3) Largest target is 1
		 -> UART1_DefaultErrorHandler(), 

    UART1_SetOverrunErrorHandler@interruptHandler	PTR FTN()void  size(3) Largest target is 1
		 -> UART1_DefaultOverrunErrorHandler(), 

    UART1_SetFramingErrorHandler@interruptHandler	PTR FTN()void  size(3) Largest target is 1
		 -> UART1_DefaultFramingErrorHandler(), 

    UART1_ErrorHandler	PTR FTN()void  size(3) Largest target is 1
		 -> Absolute function(), UART1_DefaultErrorHandler(), 

    UART1_OverrunErrorHandler	PTR FTN()void  size(3) Largest target is 1
		 -> Absolute function(), UART1_DefaultOverrunErrorHandler(), 

    UART1_FramingErrorHandler	PTR FTN()void  size(3) Largest target is 1
		 -> Absolute function(), UART1_DefaultFramingErrorHandler(), 


Critical Paths under _main in COMRAM

    _main->_FPGA_GetBuff
    _SendRPIPacket->_UART2_Write
    _SendRPIPacket->_UART2_is_tx_ready
    _UART2_Initialize->_UART2_SetErrorHandler
    _UART2_Initialize->_UART2_SetFramingErrorHandler
    _UART2_Initialize->_UART2_SetOverrunErrorHandler
    _UART1_Initialize->_UART1_SetErrorHandler
    _UART1_Initialize->_UART1_SetFramingErrorHandler
    _UART1_Initialize->_UART1_SetOverrunErrorHandler
    _EXT_INT_Initialize->_INT0_SetInterruptHandler
    _EXT_INT_Initialize->_INT1_SetInterruptHandler
    _EXT_INT_Initialize->_INT2_SetInterruptHandler
    _FPGA_SetBuff->_FPGA_CLK
    _FPGA_SetBuff->_FPGA_CS
    _FPGA_SetBuff->_FPGA_SetCmd
    _FPGA_SetBuff->_FPGA_SetRW
    _FPGA_GetBuff->_FPGA_GetData
    _DiliverOtherPacket->_UART1_Write
    _DiliverOtherPacket->_UART1_is_tx_ready

Critical Paths under _INTERRUPT_InterruptManager in COMRAM

    None.

Critical Paths under _main in BANK5

    None.

Critical Paths under _INTERRUPT_InterruptManager in BANK5

    None.

Critical Paths under _main in BANK6

    None.

Critical Paths under _INTERRUPT_InterruptManager in BANK6

    None.

Critical Paths under _main in BANK7

    None.

Critical Paths under _INTERRUPT_InterruptManager in BANK7

    None.

Critical Paths under _main in BANK8

    None.

Critical Paths under _INTERRUPT_InterruptManager in BANK8

    None.

Critical Paths under _main in BANK9

    None.

Critical Paths under _INTERRUPT_InterruptManager in BANK9

    None.

Critical Paths under _main in BANK10

    None.

Critical Paths under _INTERRUPT_InterruptManager in BANK10

    None.

Critical Paths under _main in BANK11

    None.

Critical Paths under _INTERRUPT_InterruptManager in BANK11

    None.

Critical Paths under _main in BANK12

    None.

Critical Paths under _INTERRUPT_InterruptManager in BANK12

    None.

Critical Paths under _main in BANK13

    None.

Critical Paths under _INTERRUPT_InterruptManager in BANK13

    None.

Critical Paths under _main in BANK14

    None.

Critical Paths under _INTERRUPT_InterruptManager in BANK14

    None.

Critical Paths under _main in BANK15

    None.

Critical Paths under _INTERRUPT_InterruptManager in BANK15

    None.

Critical Paths under _main in BANK16

    None.

Critical Paths under _INTERRUPT_InterruptManager in BANK16

    None.

Critical Paths under _main in BANK17

    None.

Critical Paths under _INTERRUPT_InterruptManager in BANK17

    None.

Critical Paths under _main in BANK18

    None.

Critical Paths under _INTERRUPT_InterruptManager in BANK18

    None.

Critical Paths under _main in BANK19

    None.

Critical Paths under _INTERRUPT_InterruptManager in BANK19

    None.

Critical Paths under _main in BANK20

    None.

Critical Paths under _INTERRUPT_InterruptManager in BANK20

    None.

Critical Paths under _main in BANK21

    None.

Critical Paths under _INTERRUPT_InterruptManager in BANK21

    None.

Critical Paths under _main in BANK22

    None.

Critical Paths under _INTERRUPT_InterruptManager in BANK22

    None.

Critical Paths under _main in BANK23

    None.

Critical Paths under _INTERRUPT_InterruptManager in BANK23

    None.

Critical Paths under _main in BANK24

    None.

Critical Paths under _INTERRUPT_InterruptManager in BANK24

    None.

Critical Paths under _main in BANK25

    None.

Critical Paths under _INTERRUPT_InterruptManager in BANK25

    None.

Critical Paths under _main in BANK26

    None.

Critical Paths under _INTERRUPT_InterruptManager in BANK26

    None.

Critical Paths under _main in BANK27

    None.

Critical Paths under _INTERRUPT_InterruptManager in BANK27

    None.

Critical Paths under _main in BANK28

    None.

Critical Paths under _INTERRUPT_InterruptManager in BANK28

    None.

Critical Paths under _main in BANK29

    None.

Critical Paths under _INTERRUPT_InterruptManager in BANK29

    None.

Critical Paths under _main in BANK30

    None.

Critical Paths under _INTERRUPT_InterruptManager in BANK30

    None.

Critical Paths under _main in BANK31

    None.

Critical Paths under _INTERRUPT_InterruptManager in BANK31

    None.

Critical Paths under _main in BANK32

    None.

Critical Paths under _INTERRUPT_InterruptManager in BANK32

    None.

Critical Paths under _main in BANK33

    None.

Critical Paths under _INTERRUPT_InterruptManager in BANK33

    None.

Critical Paths under _main in BANK34

    None.

Critical Paths under _INTERRUPT_InterruptManager in BANK34

    None.

Critical Paths under _main in BANK35

    None.

Critical Paths under _INTERRUPT_InterruptManager in BANK35

    None.

Critical Paths under _main in BANK36

    None.

Critical Paths under _INTERRUPT_InterruptManager in BANK36

    None.

Call Graph Tables:

 ---------------------------------------------------------------------------------
 (Depth) Function   	        Calls       Base Space   Used Autos Params    Refs
 ---------------------------------------------------------------------------------
 (0) _main                                                25    25      0   11484
                                             26 COMRAM    24    24      0
                 _DiliverOtherPacket
                           _FPGA_CLK
                            _FPGA_CS
                       _FPGA_GetBuff
                       _FPGA_SetBuff
                         _FPGA_SetRW
                 _GetFromOtherPacket
                       _GetRPIPacket
                  _SYSTEM_Initialize
                      _SendRPIPacket
 ---------------------------------------------------------------------------------
 (1) _SendRPIPacket                                       11     8      3     835
                                              3 COMRAM    11     8      3
            _TMR0_HasOverflowOccured
                    _TMR0_Initialize
                    _TMR0_StartTimer
                        _UART2_Write
                  _UART2_is_tx_ready
 ---------------------------------------------------------------------------------
 (2) _UART2_is_tx_ready                                    1     1      0      24
                                              2 COMRAM     1     1      0
 ---------------------------------------------------------------------------------
 (2) _UART2_Write                                          1     1      0      15
                                              2 COMRAM     1     1      0
 ---------------------------------------------------------------------------------
 (1) _SYSTEM_Initialize                                    0     0      0     882
                    _ADCC_Initialize
                 _EXT_INT_Initialize
               _INTERRUPT_Initialize
              _OSCILLATOR_Initialize
             _PIN_MANAGER_Initialize
                     _PMD_Initialize
                    _TMR0_Initialize
                   _UART1_Initialize
                   _UART2_Initialize
 ---------------------------------------------------------------------------------
 (2) _UART2_Initialize                                     0     0      0     294
              _UART2_SetErrorHandler
       _UART2_SetFramingErrorHandler
       _UART2_SetOverrunErrorHandler
 ---------------------------------------------------------------------------------
 (3) _UART2_SetOverrunErrorHandler                         3     0      3      98
                                              2 COMRAM     3     0      3
 ---------------------------------------------------------------------------------
 (3) _UART2_SetFramingErrorHandler                         3     0      3      98
                                              2 COMRAM     3     0      3
 ---------------------------------------------------------------------------------
 (3) _UART2_SetErrorHandler                                3     0      3      98
                                              2 COMRAM     3     0      3
 ---------------------------------------------------------------------------------
 (2) _UART1_Initialize                                     0     0      0     294
              _UART1_SetErrorHandler
       _UART1_SetFramingErrorHandler
       _UART1_SetOverrunErrorHandler
 ---------------------------------------------------------------------------------
 (3) _UART1_SetOverrunErrorHandler                         3     0      3      98
                                              2 COMRAM     3     0      3
 ---------------------------------------------------------------------------------
 (3) _UART1_SetFramingErrorHandler                         3     0      3      98
                                              2 COMRAM     3     0      3
 ---------------------------------------------------------------------------------
 (3) _UART1_SetErrorHandler                                3     0      3      98
                                              2 COMRAM     3     0      3
 ---------------------------------------------------------------------------------
 (2) _PMD_Initialize                                       0     0      0       0
 ---------------------------------------------------------------------------------
 (2) _PIN_MANAGER_Initialize                               0     0      0       0
 ---------------------------------------------------------------------------------
 (2) _OSCILLATOR_Initialize                                0     0      0       0
 ---------------------------------------------------------------------------------
 (2) _INTERRUPT_Initialize                                 0     0      0       0
 ---------------------------------------------------------------------------------
 (2) _EXT_INT_Initialize                                   0     0      0     294
           _INT0_SetInterruptHandler
           _INT1_SetInterruptHandler
           _INT2_SetInterruptHandler
 ---------------------------------------------------------------------------------
 (3) _INT2_SetInterruptHandler                             3     0      3      98
                                              2 COMRAM     3     0      3
 ---------------------------------------------------------------------------------
 (3) _INT1_SetInterruptHandler                             3     0      3      98
                                              2 COMRAM     3     0      3
 ---------------------------------------------------------------------------------
 (3) _INT0_SetInterruptHandler                             3     0      3      98
                                              2 COMRAM     3     0      3
 ---------------------------------------------------------------------------------
 (2) _ADCC_Initialize                                      0     0      0       0
 ---------------------------------------------------------------------------------
 (1) _GetRPIPacket                                        16     8      8     711
                                              2 COMRAM    16     8      8
            _TMR0_HasOverflowOccured
                    _TMR0_Initialize
                    _TMR0_StartTimer
                         _UART2_Read
                  _UART2_is_rx_ready
 ---------------------------------------------------------------------------------
 (2) _UART2_is_rx_ready                                    0     0      0       0
 ---------------------------------------------------------------------------------
 (2) _UART2_Read                                           0     0      0       0
                   Absolute function *
          _UART2_DefaultErrorHandler *
   _UART2_DefaultFramingErrorHandler *
   _UART2_DefaultOverrunErrorHandler *
 ---------------------------------------------------------------------------------
 (3) _UART2_DefaultOverrunErrorHandler                     0     0      0       0
 ---------------------------------------------------------------------------------
 (3) _UART2_DefaultFramingErrorHandler                     0     0      0       0
 ---------------------------------------------------------------------------------
 (3) _UART2_DefaultErrorHandler                            0     0      0       0
 ---------------------------------------------------------------------------------
 (1) _GetFromOtherPacket                                  18     8     10     855
                                              2 COMRAM    18     8     10
            _TMR0_HasOverflowOccured
                    _TMR0_Initialize
                    _TMR0_StartTimer
                         _UART1_Read
                  _UART1_is_rx_ready
 ---------------------------------------------------------------------------------
 (2) _UART1_is_rx_ready                                    0     0      0       0
 ---------------------------------------------------------------------------------
 (2) _UART1_Read                                           0     0      0       0
                   Absolute function *
          _UART1_DefaultErrorHandler *
   _UART1_DefaultFramingErrorHandler *
   _UART1_DefaultOverrunErrorHandler *
 ---------------------------------------------------------------------------------
 (3) _UART1_DefaultOverrunErrorHandler                     0     0      0       0
 ---------------------------------------------------------------------------------
 (3) _UART1_DefaultFramingErrorHandler                     0     0      0       0
 ---------------------------------------------------------------------------------
 (3) _UART1_DefaultErrorHandler                            0     0      0       0
 ---------------------------------------------------------------------------------
 (7) Absolute function(Fake)                               0     0      0       0
 ---------------------------------------------------------------------------------
 (1) _FPGA_SetBuff                                         9     3      6    2514
                                              4 COMRAM     9     3      6
                           _FPGA_CLK
                            _FPGA_CS
                        _FPGA_SetCmd
                       _FPGA_SetData
                         _FPGA_SetRW
 ---------------------------------------------------------------------------------
 (2) _FPGA_SetData                                         1     1      0     120
                                              2 COMRAM     1     1      0
 ---------------------------------------------------------------------------------
 (1) _FPGA_GetBuff                                         9     3      6    2586
                                             17 COMRAM     9     3      6
                           _FPGA_CLK
                            _FPGA_CS
                       _FPGA_GetData
                        _FPGA_SetCmd
                         _FPGA_SetRW
 ---------------------------------------------------------------------------------
 (1) _FPGA_SetRW                                           2     0      2     250
                                              2 COMRAM     2     0      2
 ---------------------------------------------------------------------------------
 (2) _FPGA_SetCmd                                          2     0      2     240
                                              2 COMRAM     2     0      2
 ---------------------------------------------------------------------------------
 (2) _FPGA_GetData                                        15    15      0     192
                                              2 COMRAM    15    15      0
 ---------------------------------------------------------------------------------
 (2) _FPGA_CS                                              2     0      2     402
                                              2 COMRAM     2     0      2
 ---------------------------------------------------------------------------------
 (2) _FPGA_CLK                                             2     0      2     934
                                              2 COMRAM     2     0      2
 ---------------------------------------------------------------------------------
 (1) _DiliverOtherPacket                                  12     8      4     675
                                              3 COMRAM    12     8      4
            _TMR0_HasOverflowOccured
                    _TMR0_Initialize
                    _TMR0_StartTimer
                        _UART1_Write
                  _UART1_is_tx_ready
 ---------------------------------------------------------------------------------
 (2) _UART1_is_tx_ready                                    1     1      0      24
                                              2 COMRAM     1     1      0
 ---------------------------------------------------------------------------------
 (2) _UART1_Write                                          1     1      0      15
                                              2 COMRAM     1     1      0
 ---------------------------------------------------------------------------------
 (2) _TMR0_StartTimer                                      0     0      0       0
 ---------------------------------------------------------------------------------
 (2) _TMR0_Initialize                                      0     0      0       0
 ---------------------------------------------------------------------------------
 (2) _TMR0_HasOverflowOccured                              0     0      0       0
 ---------------------------------------------------------------------------------
 Estimated maximum stack depth 7
 ---------------------------------------------------------------------------------
 (Depth) Function   	        Calls       Base Space   Used Autos Params    Refs
 ---------------------------------------------------------------------------------
 (4) _INTERRUPT_InterruptManager                           2     2      0       0
                                              0 COMRAM     2     2      0
                           _INT0_ISR
                           _INT1_ISR
                           _INT2_ISR
 ---------------------------------------------------------------------------------
 (5) _INT2_ISR                                             0     0      0       0
                      _INT2_CallBack
 ---------------------------------------------------------------------------------
 (6) _INT2_CallBack                                        0     0      0       0
                   Absolute function *
       _INT2_DefaultInterruptHandler *
 ---------------------------------------------------------------------------------
 (7) _INT2_DefaultInterruptHandler                         0     0      0       0
 ---------------------------------------------------------------------------------
 (5) _INT1_ISR                                             0     0      0       0
                      _INT1_CallBack
 ---------------------------------------------------------------------------------
 (6) _INT1_CallBack                                        0     0      0       0
                   Absolute function *
       _INT1_DefaultInterruptHandler *
 ---------------------------------------------------------------------------------
 (7) _INT1_DefaultInterruptHandler                         0     0      0       0
 ---------------------------------------------------------------------------------
 (5) _INT0_ISR                                             0     0      0       0
                      _INT0_CallBack
 ---------------------------------------------------------------------------------
 (6) _INT0_CallBack                                        0     0      0       0
                   Absolute function *
       _INT0_DefaultInterruptHandler *
 ---------------------------------------------------------------------------------
 (7) _INT0_DefaultInterruptHandler                         0     0      0       0
 ---------------------------------------------------------------------------------
 (7) Absolute function(Fake)                               0     0      0       0
 ---------------------------------------------------------------------------------
 Estimated maximum stack depth 7
 ---------------------------------------------------------------------------------

 Call Graph Graphs:

 _main (ROOT)
   _DiliverOtherPacket
     _TMR0_HasOverflowOccured
     _TMR0_Initialize
     _TMR0_StartTimer
     _UART1_Write
     _UART1_is_tx_ready
   _FPGA_CLK
   _FPGA_CS
   _FPGA_GetBuff
     _FPGA_CLK
     _FPGA_CS
     _FPGA_GetData
     _FPGA_SetCmd
     _FPGA_SetRW
   _FPGA_SetBuff
     _FPGA_CLK
     _FPGA_CS
     _FPGA_SetCmd
     _FPGA_SetData
     _FPGA_SetRW
   _FPGA_SetRW
   _GetFromOtherPacket
     _TMR0_HasOverflowOccured
     _TMR0_Initialize
     _TMR0_StartTimer
     _UART1_Read
       Absolute function(Fake) *
       _UART1_DefaultErrorHandler *
       _UART1_DefaultFramingErrorHandler *
       _UART1_DefaultOverrunErrorHandler *
     _UART1_is_rx_ready
   _GetRPIPacket
     _TMR0_HasOverflowOccured
     _TMR0_Initialize
     _TMR0_StartTimer
     _UART2_Read
       Absolute function(Fake) *
       _UART2_DefaultErrorHandler *
       _UART2_DefaultFramingErrorHandler *
       _UART2_DefaultOverrunErrorHandler *
     _UART2_is_rx_ready
   _SYSTEM_Initialize
     _ADCC_Initialize
     _EXT_INT_Initialize
       _INT0_SetInterruptHandler
       _INT1_SetInterruptHandler
       _INT2_SetInterruptHandler
     _INTERRUPT_Initialize
     _OSCILLATOR_Initialize
     _PIN_MANAGER_Initialize
     _PMD_Initialize
     _TMR0_Initialize
     _UART1_Initialize
       _UART1_SetErrorHandler
       _UART1_SetFramingErrorHandler
       _UART1_SetOverrunErrorHandler
     _UART2_Initialize
       _UART2_SetErrorHandler
       _UART2_SetFramingErrorHandler
       _UART2_SetOverrunErrorHandler
   _SendRPIPacket
     _TMR0_HasOverflowOccured
     _TMR0_Initialize
     _TMR0_StartTimer
     _UART2_Write
     _UART2_is_tx_ready

 _INTERRUPT_InterruptManager (ROOT)
   _INT0_ISR
     _INT0_CallBack
       Absolute function(Fake) *
       _INT0_DefaultInterruptHandler *
   _INT1_ISR
     _INT1_CallBack
       Absolute function(Fake) *
       _INT1_DefaultInterruptHandler *
   _INT2_ISR
     _INT2_CallBack
       Absolute function(Fake) *
       _INT2_DefaultInterruptHandler *

 Address spaces:
Name               Size   Autos  Total    Cost      Usage
BIGRAM            1FFF      0       0      69        0.0%
EEDATA             400      0       0       0        0.0%
BITBIGSFRllllll    159      0       0     106        0.0%
BITBANK36          100      0       0      66        0.0%
BANK36             100      0       0      67        0.0%
BITBANK35          100      0       0      64        0.0%
BANK35             100      0       0      65        0.0%
BITBANK34          100      0       0      62        0.0%
BANK34             100      0       0      63        0.0%
BITBANK33          100      0       0      60        0.0%
BANK33             100      0       0      61        0.0%
BITBANK32          100      0       0      58        0.0%
BANK32             100      0       0      59        0.0%
BITBANK31          100      0       0      56        0.0%
BANK31             100      0       0      57        0.0%
BITBANK30          100      0       0      54        0.0%
BANK30             100      0       0      55        0.0%
BITBANK29          100      0       0      52        0.0%
BANK29             100      0       0      53        0.0%
BITBANK28          100      0       0      50        0.0%
BANK28             100      0       0      51        0.0%
BITBANK27          100      0       0      48        0.0%
BANK27             100      0       0      49        0.0%
BITBANK26          100      0       0      46        0.0%
BANK26             100      0       0      47        0.0%
BITBANK25          100      0       0      44        0.0%
BANK25             100      0       0      45        0.0%
BITBANK24          100      0       0      42        0.0%
BANK24             100      0       0      43        0.0%
BITBANK23          100      0       0      40        0.0%
BANK23             100      0       0      41        0.0%
BITBANK22          100      0       0      38        0.0%
BANK22             100      0       0      39        0.0%
BITBANK21          100      0       0      36        0.0%
BANK21             100      0       0      37        0.0%
BITBANK20          100      0       0      34        0.0%
BANK20             100      0       0      35        0.0%
BITBANK19          100      0       0      32        0.0%
BANK19             100      0       0      33        0.0%
BITBANK18          100      0       0      30        0.0%
BANK18             100      0       0      31        0.0%
BITBANK17          100      0       0      28        0.0%
BANK17             100      0       0      29        0.0%
BITBANK16          100      0       0      26        0.0%
BANK16             100      0       0      27        0.0%
BITBANK15          100      0       0      24        0.0%
BANK15             100      0       0      25        0.0%
BITBANK14          100      0       0      22        0.0%
BANK14             100      0       0      23        0.0%
BITBANK13          100      0       0      20        0.0%
BANK13             100      0       0      21        0.0%
BITBANK12          100      0       0      18        0.0%
BANK12             100      0       0      19        0.0%
BITBANK11          100      0       0      16        0.0%
BANK11             100      0       0      17        0.0%
BITBANK10          100      0       0      14        0.0%
BANK10             100      0       0      15        0.0%
BITBANK9           100      0       0      12        0.0%
BANK9              100      0       0      13        0.0%
BITBANK8           100      0       0      10        0.0%
BANK8              100      0       0      11        0.0%
BITBANK7           100      0       0       8        0.0%
BANK7              100      0       0       9        0.0%
BITBANK6           100      0       0       6        0.0%
BANK6              100      0       0       7        0.0%
BITBIGSFR_1         FE      0       0      68        0.0%
BITBIGSFRllhlll     BD      0       0      91        0.0%
BITBANK5            A0      0       0       4        0.0%
BANK5               A0      0       0       5        0.0%
BITBIGSFRllhhhh     72      0       0      83        0.0%
BITCOMRAM           5F      0       0       0        0.0%
COMRAM              5F     32      4F       1       83.2%
BITBIGSFRllhlll     51      0       0      92        0.0%
BITBIGSFRllllll     43      0       0     109        0.0%
BITBIGSFRllllll     40      0       0     112        0.0%
BITBIGSFRllllll     31      0       0     103        0.0%
BITBIGSFRllllll     26      0       0     104        0.0%
BITBIGSFRhl         1E      0       0      71        0.0%
BITBIGSFRllllll     19      0       0     111        0.0%
BITBIGSFRllllh      17      0       0     100        0.0%
BITBIGSFRlllllh     11      0       0     101        0.0%
BITBIGSFRllllll      9      0       0     105        0.0%
BITBIGSFRhh          7      0       0      70        0.0%
BITBIGSFRlhlhh       6      0       0      80        0.0%
BITBIGSFRllhlll      5      0       0      89        0.0%
BITBIGSFRlhhhhh      5      0       0      73        0.0%
BITBIGSFRlhhhhh      4      0       0      72        0.0%
BITBIGSFRlhhhhl      4      0       0      75        0.0%
BITBIGSFRlhll        4      0       0      82        0.0%
BITBIGSFRllhlll      3      0       0      88        0.0%
BITBIGSFRllhhhl      3      0       0      84        0.0%
BITBIGSFRllhllh      3      0       0      87        0.0%
BITBIGSFRllhlh       3      0       0      86        0.0%
BITBIGSFRllhhl       3      0       0      85        0.0%
BITBIGSFRlhlhl       3      0       0      81        0.0%
BITBIGSFRlhhhhh      2      0       0      74        0.0%
BITBIGSFRllhlll      1      0       0      96        0.0%
BITBIGSFRlhhhlh      1      0       0      76        0.0%
BITBIGSFRllhlll      1      0       0      93        0.0%
BITBIGSFRllhlll      1      0       0      94        0.0%
BITBIGSFRllhlll      1      0       0      95        0.0%
BITBIGSFRllllll      1      0       0     110        0.0%
BITBIGSFRllllll      1      0       0     107        0.0%
BITBIGSFRllllll      1      0       0     108        0.0%
BITBIGSFRllhlll      1      0       0      90        0.0%
BITBIGSFRllllll      1      0       0     102        0.0%
BITBIGSFRlllhh       1      0       0      98        0.0%
BITBIGSFRlllhl       1      0       0      99        0.0%
BITBIGSFRlhhlh       1      0       0      78        0.0%
BITBIGSFRllhlll      1      0       0      97        0.0%
BITBIGSFRlhhhll      1      0       0      77        0.0%
BITBIGSFRlhhll       1      0       0      79        0.0%
BIGSFR_1             0      0       0     200        0.0%
BIGSFR               0      0       0     200        0.0%
BITSFR_6             0      0       0     200        0.0%
SFR_6                0      0       0     200        0.0%
BITSFR_5             0      0       0     200        0.0%
SFR_5                0      0       0     200        0.0%
BITSFR_4             0      0       0     200        0.0%
SFR_4                0      0       0     200        0.0%
BITSFR_3             0      0       0     200        0.0%
SFR_3                0      0       0     200        0.0%
BITSFR_2             0      0       0     200        0.0%
SFR_2                0      0       0     200        0.0%
BITSFR_1             0      0       0     200        0.0%
SFR_1                0      0       0     200        0.0%
BITSFR               0      0       0     200        0.0%
SFR                  0      0       0     200        0.0%
STACK                0      0       0       2        0.0%
NULL                 0      0       0       0        0.0%
ABS                  0      0      4F     113        0.0%
DATA                 0      0      4F       3        0.0%
CODE                 0      0       0       0        0.0%


Microchip Technology PIC18 Macro Assembler V2.40 build 20220703182018 
Symbol Table                                                                                   Fri Dec 30 00:25:48 2022

                   __end_of_UART2_is_rx_ready 1336                                ??_FPGA_GetData 0503  
             __end_of_TMR0_HasOverflowOccured 135E                                ??_FPGA_GetBuff 0518  
                                          l23 13FC                                            l97 0FD2  
                   __end_of_UART2_is_tx_ready 11F0                                            u10 1346  
                                          u11 1340                                            u40 0E56  
                                          u16 1348                                            u41 0E52  
                                          u50 0E6A                                            u51 0E66  
                                          u70 0E96                                            u71 0E92  
                                          u90 0EC2                                            u91 0EBE  
                                          u68 0E72                                            u69 0E86  
                                          u88 0E9E                                            u89 0EB2  
                                         l100 1348                                           l104 1216  
                                         l120 0EE0                                           l105 1218  
                                         l114 0E48                                           l123 12F8  
                                         l132 1404                                           l212 1134  
                                         l141 1394                                           l126 130A  
                                         l206 13BE                                           l135 1408  
                                         l144 13B0                                           l129 1406  
                                         l321 0B9C                                           l138 13A2  
                                         l180 13DA                                           l193 13CC  
                                         l611 127E                                           l700 12F4  
                                         l614 1262                                           l703 1400  
                                         l712 1378                                           l608 123E  
                                         l801 10DA                                           l810 10F0  
                                         l802 10D8                                           l706 13FE  
                                         l715 136A                                           l733 1320  
                                         l805 10E8                                           l709 1402  
                                         l814 12D6                                           l478 1096  
                                         l718 1386                                           l751 135C  
                                         l823 12BE                                           l671 103A  
                                         l736 13F8                                           l808 10EE  
                                         l832 12A6                                           l817 12DC  
                                         l841 0C68                                           l826 12C4  
                                         l850 0C84                                           l674 1334  
                                         l819 12DE                                           l835 12AC  
                                         l931 0DAC                                           l828 12C6  
                                         l844 0C6E                                           l837 12AE  
                                         l925 0C56                                           l853 0C94  
                                         l790 10AC                                           l862 0CB0  
                                         l694 0E46                                           l678 11EC  
                                         l919 0AD6                                           l871 0CD6  
                                         l847 0C7E                                           l935 0688  
                                         l679 11EE                                           l880 0CF2  
                                         l856 0C9A                                           l688 0DAE  
                                         l936 082C                                           l793 10BC  
                                         l865 0CC0                                           l697 12E2  
                                         l874 0CDC                                           l795 10C4  
                                         l787 10A6                                           l883 0D02  
                                         l859 0CAA                                           l796 10C2  
                                         l868 0CC6                                           l972 08F0  
                                         l789 10AE                                           l877 0CEC  
                                         l965 09C2                                           l886 0D08  
                                         l966 087A                                           l991 0654  
                                         l799 10D2                                           l992 04C4  
                                         l888 0D0A                                           l968 08AA  
                                         l994 04F4                                ??_FPGA_SetData 0503  
                                         l998 053A                                           u110 1306  
                                         u111 1302                                           u210 0DBC  
                                         u211 0DB8                                           u108 0EC8  
                                         u220 0DD0                                           u109 0EDC  
                                         u221 0DCC                                           u400 0CAA  
                                         u240 0DFC                                           u401 0CA6  
                                         u241 0DF8                                           u410 0CC0  
                                         u411 0CBC                                           u420 0CD6  
                                         u260 0E28                                           u180 1332  
                                         u421 0CD2                                           u261 0E24  
                                         u181 132C                                           u430 0CEC  
                                         u238 0DD8                                           u431 0CE8  
                                         u239 0DEC                                           u440 0D02  
                                         u280 12F0                                           u441 0CFE  
                                         u281 12EC                                           u290 135A  
                                         u370 0C68                                           u258 0E04  
                                         u186 1334                                           u291 1354  
                                         u371 0C64                                           u259 0E18  
                                         u380 0C7E                                           u381 0C7A  
                              ??_FPGA_SetBuff 050B                                           u390 0C94  
                                         u278 0E2E                                           u391 0C90  
                                         u279 0E42                                           u296 135C  
                  ??_INT0_SetInterruptHandler 0506                                           tosl 0004FD  
                                         wreg 0004E8                                 _INT0_CallBack 1196  
                             __end_of_FPGA_CS 12C8                                 _INT1_CallBack 1166  
                                        l1002 0580                                          l1018 0282  
                                        l1019 0474                                          l1052 00FC  
                                        l1053 0248                                          l1054 0146  
                                        l3001 0C14                                          l3003 0C32  
                                        l3011 0D30                                          l3013 0D3C  
                                        l3021 0D6A                                          l3005 0D0C  
                                        l3101 07C0                                          l3023 0D88  
                                        l3015 0D4E                                          l3007 0D18  
                                        l3103 07C4                                          l3031 0682  
                                        l3017 0D5A                                          l3009 0D24  
                                        l3105 07C8                                          l3025 0656  
                                        l3201 095C                                          l3019 0D66  
                                        l3123 0814                                          l3115 07F8  
                                        l3051 06CA                                          l3043 06AC  
                                        l3035 068C                                          l3027 066A  
                                        l3203 0960                                          l3221 0478  
                                        l3125 082A                                          l3117 07FE  
                                        l3109 07E0                                          l3053 06D6  
                                        l3037 0690                                          l3029 0670  
                                        l3213 09A4                                          l3205 0984  
                                        l3141 0850                                          l3133 0830  
                                        l3311 05E2                                          l3303 05BA  
                                        l3231 04AC                                          l3223 047C  
                                        l3071 0718                                          l3063 06FA  
                                        l3055 06DA                                          l3039 0694  
                                        l3207 0988                                          l3151 0872  
                                        l3135 0834                                          l3321 0618  
                                        l3313 05E8                                          l3241 04BC  
                                        l3225 0480                                          l1801 0EB2  
                                        l3073 071C                                          l3057 06DE  
                                        l3049 06C4                                          l3217 09BC  
                                        l3209 098C                                          l3161 08AE  
                                        l3153 0876                                          l3145 0868  
                                        l3137 0838                                          l1811 1306  
                                        l3323 061C                                          l3315 05EC  
                                        l3243 04C0                                          l3235 04B2  
                                        l1803 0EC2                                          l3411 0374  
                                        l3403 035A                                          l3091 0766  
                                        l3083 0748                                          l3075 0728  
                                        l3059 06E2                                          l3163 08B4  
                                        l3147 0868                                          l3333 064C  
                                        l3309 05D2                                          l3317 05F0  
                                        l3261 050A                                          l3253 04F8  
                                        l3237 04B2                                          l3229 0498  
                                        l1805 0EDC                                          l3413 0378  
                                        l3405 0360                                          l3341 0264  
                                        l3093 0776                                          l3077 072C  
                                        l3069 0712                                          l3181 08FE  
                                        l3173 08D8                                          l3165 08B8  
                                        l3157 0892                                          l3149 086E  
                                        l3501 016E                                          l3335 0652  
                                        l3327 0634                                          l3319 0614  
                                        l3271 053E                                          l3255 04FE  
                                        l3247 04DC                                          l3239 04B8  
                                        l3423 03A8                                          l3431 03C6  
                                        l3407 0364                                          l3351 028A  
                                        l3343 026A                                          l1911 0DD2  
                                        l1903 0DAE                                          l3095 077A  
                                        l3079 0730                                          l3191 092A  
                                        l3183 090A                                          l3167 08BC  
                                        l3511 01F6                                          l3503 0174  
                                        l1809 12F8                                          l3273 0544  
                                        l3265 0522                                          l3257 0502  
                                        l3433 03EA                                          l3425 03AE  
                                        l3417 0390                                          l3409 0370  
                                        l3353 028E                                          l3345 027C  
                                        l1921 0E28                                          l1913 0DEC  
                                        l1905 0DBC                                          l3089 0760  
                                        l3097 077E                                          l3185 090E  
                                        l3177 08F4                                          l3169 08C0  
                                        l3513 0232                                          l3505 018A  
                                        l1931 13F4                                          l3291 058A  
                                        l3283 0568                                          l3275 0548  
                                        l3259 0506                                          l1771 1336  
                                        l3451 0446                                          l3443 0428  
                                        l3435 0408                                          l3427 03BE  
                                        l3371 02D8                                          l3363 02BE  
                                        l3339 0250                                          l1923 0E42  
                                        l1915 0DFC                                          l1907 0DC0  
                                        l3099 07A2                                          l1851 0B64  
                                        l1843 0AD8                                          l3195 0942  
                                        l3187 0912                                          l3179 08FA  
                                        l3507 01C2                                          l1933 134A  
                                        l3293 058E                                          l3277 054C  
                                        l3437 040C                                          l3429 03C2  
                                        l3373 02DC                                          l3365 02C4  
                                        l3357 02A6                                          l3349 0286  
                                        l1917 0DFE                                          l1909 0DD0  
                                        l1861 0B72                                          l1853 0B66  
                                        l1845 0B04                                          l2901 11C6  
                                        l3197 0952                                          l3509 01D0  
                                        l3295 059A                                          l3279 0550  
                                        l2911 1098                                          l1951 0C9C  
                                        l1791 0E6A                                          l3439 0410  
                                        l3391 0326                                          l3383 030C  
                                        l3367 02D0                                          l1919 0E18  
                                        l1759 13FA                                          l1863 0B74  
                                        l1855 0B68                                          l1847 0B18  
                                        l1871 1240                                          l1927 12E2  
                                        l2903 11CA                                          l3199 0958  
                                        l3471 002E                                          l3297 059E  
                                        l3289 0584                                          l2913 12C8  
                                        l2921 09C4                                          l1953 0CB2  
                                        l1945 0C5A                                          l1793 0E6C  
                                        l1785 0E48                                          l3457 045C  
                                        l3449 0440                                          l3393 032A  
                                        l3385 0312                                          l3377 02F4  
                                        l3369 02D4                                          l2841 13CE  
                                        l1873 1264                                          l1865 0B76  
                                        l1857 0B6E                                          l1849 0B62  
                                        l1929 12F0                                          l2905 11D8  
                                        l3481 007C                                          l3473 003A  
                                        l1875 130C                                          l3299 05A2  
                                        l2915 12B0                                          l2931 0A00  
                                        l2923 09D2                                          l1955 0CC8  
                                        l1947 0C70                                          l1795 0E86  
                                        l1787 0E56                                          l3459 0472  
                                        l3387 031E                                          l2843 13C0  
                                        l1867 0B7C                                          l1859 0B70  
                                        l2835 1396                                          l2851 137A  
                                        l2907 11E8                                          l3491 00E2  
                                        l3483 007C                                          l3475 0046  
                                        l3467 001E                                          l1877 131A  
                                        l2941 0A38                                          l2933 0A08  
                                        l2925 09DE                                          l2917 1298  
                                        l1957 0CDE                                          l1949 0C86  
                                        l1797 0E96                                          l1789 0E5A  
                                        l3397 0342                                          l3389 0322  
                                        l1869 103C                                          l2845 13B2  
                                        l2837 1388                                          l2861 0FCE  
                                        l2853 0F60                                          l3493 00E6  
                                        l3485 0080                                          l3477 0052  
                                        l3469 0022                                          l2863 11F0  
                                        l2951 0A6E                                          l2943 0A44  
                                        l2935 0A16                                          l2927 09E6  
                                        l2919 09C4                                          l1959 0CF4  
                                        l1799 0E98                                          l2839 13A4  
                                        l2855 0F9E                                          l2847 136C  
                                        l3495 010A                                          l3487 009C  
                                        l3479 006E                                          l2865 11F4  
                                        l2961 0AAA                                          l2953 0A7C  
                                        l2945 0A4C                                          l2937 0A22  
                                        l2929 09F4                                          l1889 1322  
                                        l2881 110A                                          l2873 10F2  
                                        l2857 0FAE                                          l2849 135E  
                                        l3497 0120                                          l3489 00D0  
                                        l2867 1202                                          l2963 0AB2  
                                        l2955 0A88                                          l2947 0A5A  
                                        l2939 0A2A                                          l2883 111C  
                                        l2875 10F6                                          l2859 0FBE  
                                        l2891 0FD4                                          l2971 121E  
                                        l3499 0154                                          l2869 1212  
                                        l2965 0AD4                                          l2957 0A90  
                                        l2949 0A66                                          l2885 111E  
                                        l2877 1106                                          l2893 1006  
                                        l2981 1232                                          l2973 1222  
                                        l2959 0A9E                                          l2991 0BC2  
                                        l2887 1120                                          l2879 1108  
                                        l2895 1016                                          l2983 1236  
                                        l2975 1226                                          l2993 0BCE  
                                        l2889 1132                                          l2897 1026  
                                        l2985 123A                                          l2977 122A  
                                        l2969 121A                                          l2995 0BE6  
                                        l2987 0B9E                                          l2899 1036  
                                        l2979 122E                                          l2997 0BFE  
                                        l2989 0BB6                                          l2999 0C10  
                                        u2000 03A4                                          u2001 03A0  
                                        u2010 03EA                                          u2011 03E6  
                                        u2020 0408                                          u2100 0154  
                                        u2021 0404                                          u2101 0150  
                                        u2030 0424                                          u2110 016E  
                                        u2031 0420                                          u2111 016A  
                                        u1400 10E8                                          u2040 043C  
                                        u2120 018A                                          u1401 10E4  
                                        u2041 0438                                          u2121 0186  
                                        u1330 1202                                          u1410 12D6  
                                        u2050 0458                                          u2130 01F6  
                                        u1331 11FE                                          u1411 12D2  
                                        u2051 0454                                          u2131 01F2  
                                        u1340 1212                                          u1420 12BE  
                                        u1500 0A9E                                          u2140 0232  
                                        u2060 00D0                                          u1341 120E  
                                        u1421 12BA                                          u1501 0A9A  
                                        u2141 022E                                          u2061 00CC  
                                        _LATA 0004BE                                          u1510 0AC2  
                                        u1430 12A6                                          u1350 11D8  
                                        u2070 00E2                                          _LATB 0004BF  
                                        u1511 0ABC                                          u1431 12A2  
                                        u1351 11D4                                          u2071 00DE  
                                        _LATC 0004C0                                          u1440 09D2  
                                        u1520 0C32                                          u1600 0744  
                                        u1360 11E8                                          u2080 010A  
                                        _LATD 0004C1                                          u1441 09CE  
                                        u1521 0C2E                                          u1601 0740  
                                        u1361 11E4                                          u2081 0106  
                                        _LATE 0004C2                                          u1450 09F4  
                                        u1370 10A6                                          u1530 0D88  
                                        u1610 075C                                          u2090 0120  
                                        _LATF 0004C3                                          u1451 09F0  
                                        u1371 10A2                                          u1531 0D84  
                                        u1611 0758                                          u2091 011C  
                                        u1516 0AC4                                          u1460 0A16  
                                        u1380 10BC                                          u1620 07A2  
                                        u1540 066A                                          u1700 08A6  
                                        u1461 0A12                                          u1381 10B8  
                                        u1621 079E                                          u1541 0666  
                                        u1701 08A2                                          u1470 0A38  
                                        u1390 10D2                                          u1630 07C0  
                                        u1550 0682                                          u1710 08D4  
                                        u1471 0A34                                          u1391 10CE  
                                        u1631 07BC                                          u1551 067E  
                                        u1711 08D0                                          u1800 04D8  
                                        u1480 0A5A                                          u1640 07DC  
                                        u1560 06A8                                          u1720 08EC  
                                        u1801 04D4                                          u1481 0A56  
                                        u1641 07D8                                          u1561 06A4  
                                        u1721 08E8                                          u1810 04F0  
                                        u1490 0A7C                                          u1650 07F4  
                                        u1570 06C0                                          u1730 0926  
                                        u1811 04EC                                          u1491 0A78  
                                        u1651 07F0                                          u1571 06BC  
                                        u1731 0922                                          u1900 0648  
                                        u1820 051E                                          u1660 0810  
                                        u1580 06F6                                          u1740 093E  
                                        u1901 0644                                          u1821 051A  
                                        u1661 080C                                          u1581 06F2  
                                        u1741 093A                                          u1830 0536  
                                        u1910 0264                                          u1590 070E  
                                        u1750 0984                                          u1670 084C  
                                        u1831 0532                                          u1911 0260  
                                        u1591 070A                                          u1751 0980  
                                        u1671 0848                                          u1840 0564  
                                        u1920 027C                                          u1760 09A0  
                                        u1680 0864                                          u1841 0560  
                                        u1921 0278                                          u1761 099C  
                                        u1681 0860                                          u1850 057C  
                                        u1930 02A2                                          u1770 09B8  
                                        u1690 088E                                          u1851 0578  
                                        u1931 029E                                          u1771 09B4  
                                        u1691 088A                                          u1860 05B6  
                                        u1780 0494                                          u1940 02BA  
                                        u1861 05B2                                          u1781 0490  
                                        u1941 02B6                                          u1870 05CE  
                                        u1790 04AC                                          u1950 02F0  
                                        u1871 05CA                                          u1791 04A8  
                                        u1951 02EC                                          u1880 0614  
                                        u1960 0308                                          u1881 0610  
                                        u1961 0304                                          u1890 0630  
                                        u1970 033E                                          u1891 062C  
                                        u1971 033A                                          u1980 0356  
                                        _PMD0 000060                                          u1981 0352  
                                        _PMD1 000061                                          u1990 038C  
                                        u1991 0388                                          _PMD3 000063  
                                        _PMD4 000064                                          _PMD5 000065  
                                        _PMD6 000066                                          _PMD7 000067  
                                        _PMD8 000068                                          i2l30 0F32  
                                        i2l31 0F56                                          i2l34 0F56  
                                        i2l28 0F0E                                          _WPUA 000401  
                                        _WPUB 000409                                          _WPUC 000411  
                                        _WPUD 000419                                          _WPUE 000421  
                                        _WPUF 000429                                 _INT2_CallBack 1136  
                                        _main 001E                               _TMR0_StartTimer 13F4  
                                        fsr2h 0004DA                                          indf2 0004DF  
                                        fsr2l 0004D9                     ?_INT2_SetInterruptHandler 0503  
                                        start 001A                              GetRPIPacket@Data 0505  
                                ___param_bank 000000                              __end_of_FPGA_CLK 12E0  
                                 ?_UART1_Read 0501                                   ?_UART2_Read 0501  
                     __end_of_TMR0_Initialize 1322                          GetRPIPacket@Checksum 050E  
                            __end_of_INT0_ISR 13F4                              __end_of_INT1_ISR 13EC  
                            __end_of_INT2_ISR 13E4                 __end_of_OSCILLATOR_Initialize 1280  
                                       _ADACT 0003F9                                         _ADCAP 0003F0  
                                       ?_main 0501                                         _ADCLK 0003FA  
                                       _ADCNT 0003E6                                         _ADPCH 0003EC  
                                       _ADREF 0003F8                                         _ADRPT 0003E7  
                                       _U1P1H 0002A6                                         _U1P2H 0002A8  
                                       _U1P3H 0002AA                                         _U1P1L 0002A5  
                                       _U1P2L 0002A7                                         _U1P3L 0002A9  
                                       _U2P1L 0002B8                                         _U2P2L 0002BA  
                                       _U2P3L 0002BC                                         _U1UIR 0002B1  
                                       _U1RXB 0002A1                                         _U2UIR 0002C4  
                                       _U1TXB 0002A3                                         _U2RXB 0002B4  
                                       i2l203 1164                                         i2l209 140A  
                                       _U2TXB 0002B6                                         i2l173 13F2  
                                       i2l190 1194                                         i2l183 140E  
                                       i2l177 11C4                                         i2l186 13EA  
                                       i2l196 140C                                         i2l199 13E2  
                                       _OSCEN 0000B3                                         _TMR0H 000319  
                                       _TMR0L 000318                                         _TRISA 0004C6  
                                       _TRISB 0004C7                                ?_INT0_CallBack 0501  
                                       _TRISC 0004C8                                         _TRISD 0004C9  
                                       _TRISE 0004CA                                         _TRISF 0004CB  
                              ?_INT1_CallBack 0501                ??_INT1_DefaultInterruptHandler 0501  
                              ?_INT2_CallBack 0501                      _INT1_SetInterruptHandler 13C0  
                                       pclath 0004FA                                         pclatu 0004FB  
                                       status 0004D8           fp__UART1_DefaultFramingErrorHandler 0000  
    __end_of_UART1_DefaultFramingErrorHandler 1408            ??_UART1_DefaultFramingErrorHandler 0503  
           ?_UART1_DefaultFramingErrorHandler 0501              _UART1_DefaultFramingErrorHandler 1406  
              ??_UART2_SetOverrunErrorHandler 0506                               __initialization 1280  
                               GetRPIPacket@d 0512                                 GetRPIPacket@i 050F  
                                __end_of_main 0250                   ??_UART1_DefaultErrorHandler 0503  
                       GetFromOtherPacket@Cmd 0505                         GetFromOtherPacket@Len 0509  
                 ?_INTERRUPT_InterruptManager 0501                                  ?_UART1_Write 0501  
                                ?_UART2_Write 0501                         _UART1_is_tx_ready$447 0503  
                                      ??_main 051B                                     ??_FPGA_CS 0505  
                               __activetblptr 000003                              _UART1_Initialize 0F60  
                                      _ADACCH 0003E4                                        _ADACCL 0003E3  
                     __end_of_TMR0_StartTimer 13FA                                        _ADACCU 0003E5  
                                      _ADACQH 0003EF                                        _ADACQL 0003EE  
                                      _ADCON0 0003F3                                        _ADCON1 0003F4  
                                      _ADCON2 0003F5                                        _ADCON3 0003F6  
                                      _ADERRH 0003DE                                        _ADERRL 0003DD  
                                      _ACTCON 0000AC                                        _ADLTHH 0003DA  
                                      _ADLTHL 0003D9                                        _ADRESH 0003EB  
                                      _ADRESL 0003EA                                        _ADPREH 0003F2  
                                      _ADPREL 0003F1                                        _ADSTAT 0003F7  
                                      _ADUTHH 0003DC                                        _ADUTHL 0003DB  
                                      _ANSELA 000400                                        _ANSELB 000408  
                                      _ANSELC 000410                                        _ANSELD 000418  
                                      _ANSELE 000420                                        _ANSELF 000428  
                                      _T0CON0 00031A                                        _T0CON1 00031B  
                                      _RB1I2C 000289                                        _RB2I2C 000288  
                                      _U1CON0 0002AB                                        _U1CON1 0002AC  
                                      _U1CON2 0002AD                                        _RC3I2C 000287  
                                      _RC4I2C 000286                                        _U1BRGH 0002AF  
                                      _U1FIFO 0002B0                 GetFromOtherPacket@TargetDipSW 0503  
                                      _U2CON0 0002BE                                        _U2CON1 0002BF  
                                      _U2CON2 0002C0                                        _U1BRGL 0002AE  
                                      _U2BRGH 0002C2                                        _U2FIFO 0002C3  
                                      _U2BRGL 0002C1                         SendRPIPacket@Checksum 050B  
                                      _RB4PPS 00020D                                        _ODCONA 000402  
                                      _ODCONB 00040A                                        _RC6PPS 000217  
                                      _ODCONC 000412                                        _ODCOND 00041A  
                                      _ODCONE 000422                                        _ODCONF 00042A  
                        __end_of_FPGA_GetData 0AD8                                        i2l2011 13EC  
                                      i2l2013 13EE                                        i2l2021 13DE  
                                      i2l2015 13E4                                        i2l2017 13E6  
                                      i2l2019 13DC                                        i2l1813 1196  
                                      i2l1821 1136                                        i2l1815 11AA  
                                      i2l1823 114A                                        i2l1817 1166  
                                      i2l2561 0EEA                                        i2l1819 117A  
                                      i2l2571 0F40                                        i2l2563 0EF8  
                                      i2l2573 0F4E                                        i2l2565 0F06  
                                      i2l2567 0F1C                                        i2l2569 0F2A  
                        __end_of_FPGA_GetBuff 0C58                                        _INLVLA 000404  
                                      _INLVLB 00040C                                        _INLVLC 000414  
                                      _INLVLD 00041C                                        _INLVLE 000424  
                                      _INLVLF 00042C                                        _TABLAT 0004F5  
                                      _OSCFRQ 0000B1                         _UART1_SetErrorHandler 13A4  
                        __end_of_FPGA_SetData 0D0C                          __end_of_FPGA_SetBuff 0DAE  
                            _UART2_Initialize 0FD4                     _UART2_OverrunErrorHandler 0536  
                  ?_UART2_DefaultErrorHandler 0501                              ?_TMR0_Initialize 0501  
                GetFromOtherPacket@MaxBuffLen 050B                                  _GetRPIPacket 0656  
                                      isa$std 000001                               ??_INT0_CallBack 0501  
                             _ADCC_Initialize 103C                                _PMD_Initialize 1240  
                   DiliverOtherPacket@DataLen 0507          __end_of_INT2_DefaultInterruptHandler 140C  
                _INT2_DefaultInterruptHandler 140A                               ??_INT1_CallBack 0501  
                             ??_INT2_CallBack 0501                                     FPGA_CLK@d 0503  
    INT2_SetInterruptHandler@InterruptHandler 0503      INT1_SetInterruptHandler@InterruptHandler 0503  
    INT0_SetInterruptHandler@InterruptHandler 0503          __end_of_UART1_SetOverrunErrorHandler 1396  
                _UART1_SetOverrunErrorHandler 1388                     _UART1_DefaultErrorHandler 1408  
                                   ?_FPGA_CLK 0503                             _SYSTEM_Initialize 121A  
                                  __accesstop 0560                       __end_of__initialization 1292  
                                   ?_INT0_ISR 0501                                     ?_INT1_ISR 0501  
                                   ?_INT2_ISR 0501                                  ??_FPGA_SetRW 0505  
                          ?_SYSTEM_Initialize 0501                                 ___rparam_used 000001  
                           _FPGA_GetData$1662 0503                             _FPGA_GetData$1663 0505  
                           _FPGA_GetData$1664 0507                             _FPGA_GetData$1665 0509  
                           _FPGA_GetData$1666 050B                             _FPGA_GetData$1667 050D  
                           _FPGA_GetData$1668 050F                                __pcstackCOMRAM 0501  
                       _UART2_SetErrorHandler 137A                    __end_of_GetFromOtherPacket 0476  
                         ??_SYSTEM_Initialize 0506             __end_of_UART2_DefaultErrorHandler 1404  
                  __end_of_DiliverOtherPacket 0656                        __end_of_PMD_Initialize 1264  
                      GetFromOtherPacket@Data 0507              __end_of_INT2_SetInterruptHandler 13C0  
                   _UART1_FramingErrorHandler 054B                            __end_of_FPGA_SetRW 12B0  
             fp__INT2_DefaultInterruptHandler 0000                 ?_INT2_DefaultInterruptHandler 0501  
                               _SendRPIPacket 082E                               main@TargetDipSW 052F  
                            ?_TMR0_StartTimer 0501                     __end_of_SYSTEM_Initialize 1240  
                                  ??_FPGA_CLK 0505                 ?_UART1_SetOverrunErrorHandler 0503  
                      ?_UART1_SetErrorHandler 0503                         _INT0_InterruptHandler 0542  
                                  ??_INT0_ISR 0501                                    ??_INT1_ISR 0501  
                                  ??_INT2_ISR 0501                                    __pnvCOMRAM 0533  
                                     IVTBASEH 00045E                                       IVTBASEL 00045D  
                                     IVTBASEU 00045F                                  ??_UART1_Read 0503  
                                ??_UART2_Read 0503          __end_of_UART2_SetFramingErrorHandler 137A  
                _UART2_SetFramingErrorHandler 136C                       __end_of_ADCC_Initialize 1098  
                                     _ADFLTRH 0003E2                                       _ADFLTRL 0003E1  
                                     _ADPREVH 0003E9                                       _ADPREVL 0003E8  
                                     _ADSTPTH 0003E0                                       _ADSTPTL 0003DF  
                             ?_PMD_Initialize 0501                         DiliverOtherPacket@Cmd 0504  
                                     _FPGA_CS 12B0                                       _U1ERRIE 0002B3  
                                     _U1ERRIR 0002B2                                       _U2ERRIE 0002C6  
                                     _U2ERRIR 0002C5                    ??_INT1_SetInterruptHandler 0506  
                                     _INT0PPS 00023E                                       _INT1PPS 00023F  
                                     _INT2PPS 000240                                       _U1RXPPS 000272  
                                     _U2RXPPS 000274                                ?_SendRPIPacket 0504  
                                     _OSCCON1 0000AD                                       _OSCCON3 0000AF  
                                     _TBLPTRH 0004F7                                       _TBLPTRL 0004F6  
                                     _TBLPTRU 0004F8                                       i2u12_40 11AA  
                                     i2u12_41 11A6                                       i2u13_48 11B0  
                                     i2u14_40 117A                                       i2u13_49 11C4  
                                     i2u14_41 1176                                       i2u15_48 1180  
                                     i2u16_40 114A                                       i2u15_49 1194  
                                     i2u16_41 1146                                       i2u17_48 1150  
                                     i2u17_49 1164                                       _NVMADRH 000044  
                                     _NVMADRL 000043                                       _NVMADRU 000045  
                                     _OSCTUNE 0000B0                                       _NVMDATL 000046  
                                     _NVMLOCK 000042                                       _SLRCONA 000403  
                                     _SLRCONB 00040B                                       _SLRCONC 000413  
                                     _SLRCOND 00041B                                       _SLRCONE 000423  
                                     _SLRCONF 00042B                        GetRPIPacket@MaxBuffLen 0509  
                     _TMR0_HasOverflowOccured 134A                            __end_of_UART1_Read 0EE2  
                          __end_of_UART2_Read 0E48                     ?_INT0_SetInterruptHandler 0503  
                                     __Hparam 0000                        ?_UART2_SetErrorHandler 0503  
                                     __Lparam 0000                      __end_of_UART1_Initialize 0FD4  
               ?_UART2_SetFramingErrorHandler 0503                                       __pcinit 1280  
                                _FPGA_GetData 09C4                                  _FPGA_GetBuff 0B9E  
                                     __ramtop 2600                                       __ptext0 001E  
                                     __ptext1 082E                                       __ptext2 11C6  
                                     __ptext3 12E0                                       __ptext4 121A  
                                     __ptext5 0FD4                                       __ptext6 135E  
                                     __ptext7 136C                                       __ptext8 137A  
                                     __ptext9 0F60           fp__UART2_DefaultOverrunErrorHandler 0000  
    __end_of_UART2_DefaultOverrunErrorHandler 1400            ??_UART2_DefaultOverrunErrorHandler 0503  
           ?_UART2_DefaultOverrunErrorHandler 0501              _UART2_DefaultOverrunErrorHandler 13FE  
                       _OSCILLATOR_Initialize 1264                                  _FPGA_SetData 0C58  
                                _FPGA_SetBuff 0D0C                      ??_PIN_MANAGER_Initialize 0503  
                    __end_of_UART2_Initialize 103C                                     _PIE10bits 0004A8  
                                     main@Cmd 0530                          end_of_initialization 1292  
                    _INT2_SetInterruptHandler 13B2                ??_INT2_DefaultInterruptHandler 0501  
                                   _PIR10bits 0004B8                                     _PIR15bits 0004BD  
                  DiliverOtherPacket@Checksum 050E                ??_UART1_SetOverrunErrorHandler 0506  
                            FPGA_GetBuff@data 0514                        _UART2_is_tx_ready$1403 0503  
                                     postdec2 0004DD                                       postinc2 0004DE  
                            ?_ADCC_Initialize 0501                   ??_UART2_DefaultErrorHandler 0503  
                           UART1_Write@txData 0503                         _INT1_InterruptHandler 053F  
                                   _PORTDbits 0004D1                               ??_SendRPIPacket 0507  
                   ??_TMR0_HasOverflowOccured 0503                                 ??_FPGA_SetCmd 0505  
                             GetRPIPacket@Cmd 0503                               GetRPIPacket@Len 0507  
                         GetFromOtherPacket@d 0514                           GetFromOtherPacket@i 0511  
                         GetRPIPacket@DataLen 0511                  __end_of_INTERRUPT_Initialize 13FE  
        __end_of_INT0_DefaultInterruptHandler 1410                  _INT0_DefaultInterruptHandler 140E  
                      ?_OSCILLATOR_Initialize 0501                         __end_of_INT0_CallBack 11C6  
              ??_UART2_SetFramingErrorHandler 0506                           start_initialization 1280  
                          _GetFromOtherPacket 0250                         __end_of_INT1_CallBack 1196  
                     ??_UART1_SetErrorHandler 0506                     _UART2_DefaultErrorHandler 1402  
                          _DiliverOtherPacket 0476                                    ivt0x8_base 0008  
                       __end_of_INT2_CallBack 1166                           ?_GetFromOtherPacket 0503  
                        SendRPIPacket@DataLen 0506                           DiliverOtherPacket@d 050F  
                         DiliverOtherPacket@i 050C                           ?_DiliverOtherPacket 0504  
                         __end_of_FPGA_SetCmd 10F2                              ??_PMD_Initialize 0503  
                        ??_GetFromOtherPacket 050D                             UART2_Write@txData 0503  
                  __end_of_EXT_INT_Initialize 1136               fp__INT0_DefaultInterruptHandler 0000  
               ?_INT0_DefaultInterruptHandler 0501                                      FPGA_CS@d 0503  
                                    ?_FPGA_CS 0503                          ??_DiliverOtherPacket 0508  
                                 __pbssCOMRAM 054E              __end_of_INT0_SetInterruptHandler 13DC  
                          _UART1_ErrorHandler 0545                     _UART2_FramingErrorHandler 0539  
                       _INT2_InterruptHandler 053C                  fp__UART1_DefaultErrorHandler 0000  
                     ??_UART2_SetErrorHandler 0506                           FPGA_GetBuff@DataLen 0516  
                      _PIN_MANAGER_Initialize 0AD8                             ?_UART1_Initialize 0501  
        __end_of_UART1_SetFramingErrorHandler 13A4                  _UART1_SetFramingErrorHandler 1396  
                          ??_UART1_Initialize 0506                                     _bufferRAM 002500  
                            _uart1RxLastError 054F                                 ??_UART1_Write 0503  
                               ??_UART2_Write 0503                  ??_INTERRUPT_InterruptManager 0501  
                  ??_INT2_SetInterruptHandler 0506           fp__UART1_DefaultOverrunErrorHandler 0000  
    __end_of_UART1_DefaultOverrunErrorHandler 1406            ??_UART1_DefaultOverrunErrorHandler 0503  
           ?_UART1_DefaultOverrunErrorHandler 0501              _UART1_DefaultOverrunErrorHandler 1404  
                           ?_UART2_Initialize 0501                        DiliverOtherPacket@Data 0505  
                                 _U1ERRIRbits 0002B2                            ??_UART2_Initialize 0506  
                        _INTERRUPT_Initialize 13FA                                      _FPGA_CLK 12C8  
                                 _FPGA_SetCmd 1098                              _uart2RxLastError 054E  
                           ??_TMR0_Initialize 0503                                   _U2ERRIRbits 0002C5  
                                    _INT0_ISR 13EC                                      _INT1_ISR 13E4  
                                    _INT2_ISR 13DC                                      _LATAbits 0004BE  
       UART2_SetErrorHandler@interruptHandler 0503         UART1_SetErrorHandler@interruptHandler 0503  
                                    _LATCbits 0004C0                                      _LATFbits 0004C3  
                   ?_INT1_SetInterruptHandler 0503                                      _PIE1bits 00049F  
                                    _PIE6bits 0004A4                               FPGA_GetBuff@Cmd 0512  
                                    i2u111_40 0EF8                                      i2u111_41 0EF4  
                                    i2u112_40 0F06                                      i2u112_41 0F02  
                                    i2u113_40 0F1C                                      i2u113_41 0F18  
                                    i2u114_40 0F2A                                      i2u114_41 0F26  
                                    i2u115_40 0F40                                      i2u115_41 0F3C  
                                    i2u116_40 0F4E                                      i2u116_41 0F4A  
                                    _PIR1bits 0004AF                                      _PIR3bits 0004B1  
                                    _PIR4bits 0004B2                                      _PIR6bits 0004B4  
                                    _PIR8bits 0004B6                 ?_UART1_SetFramingErrorHandler 0503  
                              SendRPIPacket@d 050E                                SendRPIPacket@i 050C  
                  GetFromOtherPacket@Checksum 0510                                 ?_GetRPIPacket 0503  
                                   main@DipSW 052C                                    _ADCON0bits 0003F3  
                                  _ADCON1bits 0003F4                                    _ADCON2bits 0003F5  
                                  _ADCON3bits 0003F6                ??_INT0_DefaultInterruptHandler 0501  
                         __end_of_UART1_Write 130C                            _UART2_ErrorHandler 0533  
                         __end_of_UART2_Write 12F6                                   _INTCON0bits 0004D6  
                       ?_INTERRUPT_Initialize 0501                      _INT0_SetInterruptHandler 13CE  
                                  _ADSTATbits 0003F7                                      __Hrparam 0000  
                                    __Lrparam 0000                       ??_OSCILLATOR_Initialize 0503  
                           ??_TMR0_StartTimer 0503                                ??_GetRPIPacket 050B  
                                  _T0CON0bits 00031A                         __end_of_SendRPIPacket 09C4  
                                    __pivt0x8 0008                                      __ptext10 1388  
                                    __ptext11 1396                                      __ptext20 13CE  
                                    __ptext12 13A4                                      __ptext21 103C  
                                    __ptext13 1240                                      __ptext30 0E48  
                                    __ptext22 0656                                      __ptext14 0AD8  
                                    __ptext31 1404                                      __ptext23 1322  
                                    __ptext15 1264                                      __ptext40 12B0  
                                    __ptext32 1406                                      __ptext24 0DAE  
                                    __ptext16 13FA                                      __ptext41 12C8  
                                    __ptext33 1408                                      __ptext25 13FE  
                                    __ptext17 10F2                                      __ptext50 1136  
                                    __ptext42 0476                                      __ptext34 0D0C  
                                    __ptext26 1400                                      __ptext18 13B2  
                                    __ptext51 140A                                      __ptext43 11F0  
                                    __ptext35 0C58                                      __ptext27 1402  
                                    __ptext19 13C0                                      __ptext52 13E4  
                                    __ptext44 12F6                                      __ptext36 0B9E  
                                    __ptext28 0250                                      __ptext53 1166  
                                    __ptext45 13F4                                      __ptext37 1298  
                                    __ptext29 1336                                      __ptext54 140C  
                                    __ptext46 130C                                      __ptext38 1098  
                                    __ptext55 13EC                                      __ptext47 134A  
                                    __ptext39 09C4                                      __ptext56 1196  
                                    __ptext48 0EE2                                      __ptext57 140E  
                                    __ptext49 13DC                                      __ptext58 0000  
                                  _U1CON0bits 0002AB                 __end_of_UART1_SetErrorHandler 13B2  
                                  _U2CON0bits 0002BE           fp__UART2_DefaultFramingErrorHandler 0000  
    __end_of_UART2_DefaultFramingErrorHandler 1402            ??_UART2_DefaultFramingErrorHandler 0503  
           ?_UART2_DefaultFramingErrorHandler 0501              _UART2_DefaultFramingErrorHandler 1400  
                                  _FPGA_SetRW 1298                     _UART1_OverrunErrorHandler 0548  
UART2_SetOverrunErrorHandler@interruptHandler 0503  UART1_SetOverrunErrorHandler@interruptHandler 0503  
                            FPGA_SetBuff@data 0507                                      isa$xinst 000000  
                   GetFromOtherPacket@DataLen 0513                 DiliverOtherPacket@TargetDipSW 050B  
                                    main@DCmd 052E                    ?_UART1_DefaultErrorHandler 0501  
                                    main@Buff 051C            __end_of_INTERRUPT_InterruptManager 0F60  
                  _INTERRUPT_InterruptManager 0EE2                             _UART1_is_rx_ready 1336  
                                 _UART1_Write 12F6          __end_of_INT1_DefaultInterruptHandler 140E  
                _INT1_DefaultInterruptHandler 140C                                   _UART2_Write 12E0  
                           _UART1_is_tx_ready 11F0                            ?_UART1_is_rx_ready 0501  
                    ?_TMR0_HasOverflowOccured 0501                ??_UART1_SetFramingErrorHandler 0506  
                          ?_UART1_is_tx_ready 0501                                   _NVMCON0bits 000040  
                                 _NVMCON1bits 000041                        ??_INTERRUPT_Initialize 0503  
                         ??_UART1_is_rx_ready 0503                            _EXT_INT_Initialize 10F2  
                         ??_UART1_is_tx_ready 0503          __end_of_UART2_SetOverrunErrorHandler 136C  
                _UART2_SetOverrunErrorHandler 135E                                      intlevel2 0000  
                         FPGA_SetBuff@DataLen 0509                       ?_PIN_MANAGER_Initialize 0501  
                         ?_EXT_INT_Initialize 0501                 __end_of_UART2_SetErrorHandler 1388  
                               FPGA_GetData@d 0511                               FPGA_SetBuff@Cmd 0505  
                               FPGA_GetBuff@i 0519                     __end_of_UART1_is_rx_ready 134A  
                                  _UART1_Read 0E48                                    _UART2_Read 0DAE  
UART2_SetFramingErrorHandler@interruptHandler 0503  UART1_SetFramingErrorHandler@interruptHandler 0503  
                   __end_of_UART1_is_tx_ready 121A             __end_of_UART1_DefaultErrorHandler 140A  
                               ?_FPGA_GetData 0501                                 ?_FPGA_GetBuff 0512  
                           SendRPIPacket@Data 0504                             _UART2_is_rx_ready 1322  
                           _UART2_is_tx_ready 11C6                          ??_EXT_INT_Initialize 0506  
                          ?_UART2_is_rx_ready 0501               fp__INT1_DefaultInterruptHandler 0000  
               ?_INT1_DefaultInterruptHandler 0501                                FPGA_SetCmd@Cmd 0503  
                               ?_FPGA_SetData 0501                                 ?_FPGA_SetBuff 0505  
                          ?_UART2_is_tx_ready 0501                               _TMR0_Initialize 130C  
            __end_of_INT1_SetInterruptHandler 13CE                           ??_UART2_is_rx_ready 0503  
                            SendRPIPacket@Cmd 050A                           ??_UART2_is_tx_ready 0503  
                                ?_FPGA_SetCmd 0503                __end_of_PIN_MANAGER_Initialize 0B9E  
                           ??_ADCC_Initialize 0503                                 FPGA_SetData@d 0503  
                        __end_of_GetRPIPacket 082E                                 FPGA_SetBuff@i 050C  
               ?_UART2_SetOverrunErrorHandler 0503                  fp__UART2_DefaultErrorHandler 0000  
                                 ?_FPGA_SetRW 0503                                   FPGA_SetRW@d 0503  
                                 main@DataLen 0531  
